 nanohack

 Timestamp is 615384d9 (Tue Sep 28 23:10:49 2021)

 Preferred load address is 0000000180000000

 Start         Length     Name                   Class
 0001:00000000 00001040H .text$di                CODE
 0001:00001040 000ca440H .text$mn                CODE
 0001:000cb480 00000040H .text$mn$00             CODE
 0001:000cb4c0 00004590H .text$x                 CODE
 0001:000cfa50 00000b18H .text$yd                CODE
 0002:00000000 000003d8H .idata$5                DATA
 0002:000003d8 00000028H .00cfg                  DATA
 0002:00000400 00000008H .CRT$XCA                DATA
 0002:00000408 00000038H .CRT$XCC                DATA
 0002:00000440 00000028H .CRT$XCL                DATA
 0002:00000468 00000180H .CRT$XCU                DATA
 0002:000005e8 00000008H .CRT$XCZ                DATA
 0002:000005f0 00000008H .CRT$XIA                DATA
 0002:000005f8 00000040H .CRT$XIC                DATA
 0002:00000638 00000008H .CRT$XIZ                DATA
 0002:00000640 00000008H .CRT$XLA                DATA
 0002:00000648 00000008H .CRT$XLZ                DATA
 0002:00000650 00000008H .CRT$XPA                DATA
 0002:00000658 00000010H .CRT$XPX                DATA
 0002:00000668 00000008H .CRT$XPXA               DATA
 0002:00000670 00000008H .CRT$XPZ                DATA
 0002:00000678 00000008H .CRT$XTA                DATA
 0002:00000680 00000020H .CRT$XTZ                DATA
 0002:00000688 00000000H .gehcont$y              DATA
 0002:00000688 00000000H .gfids$y                DATA
 0002:000006a0 00017de0H .rdata                  DATA
 0002:00018480 00000000H .rdata$CastGuardVftablesA DATA
 0002:00018480 00000000H .rdata$CastGuardVftablesC DATA
 0002:00018480 00000030H .rdata$T                DATA
 0002:000184b0 00005214H .rdata$r                DATA
 0002:0001d6c4 000001ccH .rdata$voltmd           DATA
 0002:0001d890 00000458H .rdata$zzzdbg           DATA
 0002:0001dce8 00000008H .rtc$IAA                DATA
 0002:0001dcf0 00000008H .rtc$IZZ                DATA
 0002:0001dcf8 00000008H .rtc$TAA                DATA
 0002:0001dd00 00000008H .rtc$TZZ                DATA
 0002:0001dd08 00000004H .tls                    DATA
 0002:0001dd0c 00000004H .tls$                   DATA
 0002:0001dd10 00000008H .tls$ZZZ                DATA
 0002:0001dd18 0000ba78H .xdata                  DATA
 0002:00029790 00000b2cH .xdata$x                DATA
 0002:0002a2bc 00000000H .edata                  DATA
 0002:0002a2bc 00000078H .idata$2                DATA
 0002:0002a334 00000014H .idata$3                DATA
 0002:0002a348 000003d8H .idata$4                DATA
 0002:0002a720 000008d2H .idata$6                DATA
 0003:00000000 000010a0H .data                   DATA
 0003:000010a0 000007d0H .data$r                 DATA
 0003:00001870 00001d00H .data$rs                DATA
 0003:00003570 00003b64H .bss                    DATA
 0004:00000000 00007254H .pdata                  DATA
 0005:00000000 00002210H .detourc                DATA
 0006:00000000 00000018H .detourd                DATA
 0007:00000000 000000f4H _RDATA                  DATA
 0008:00000000 00000060H .rsrc$01                DATA
 0008:00000060 00000098H .rsrc$02                DATA

  Address         Publics by Value              Rva+Base               Lib:Object

 0000:00000000       __guard_longjmp_table      0000000000000000     <absolute>
 0000:00000000       __guard_fids_count         0000000000000000     <absolute>
 0000:00000000       ___safe_se_handler_table   0000000000000000     <absolute>
 0000:00000000       __x64_code_ranges_to_entry_points_count 0000000000000000     <absolute>
 0000:00000000       __arm64x_extra_rfe_table   0000000000000000     <absolute>
 0000:00000000       __arm64x_redirection_metadata 0000000000000000     <absolute>
 0000:00000000       __hybrid_code_map          0000000000000000     <absolute>
 0000:00000000       __guard_iat_table          0000000000000000     <absolute>
 0000:00000000       __arm64x_extra_rfe_table_size 0000000000000000     <absolute>
 0000:00000000       ___safe_se_handler_count   0000000000000000     <absolute>
 0000:00000000       __x64_code_ranges_to_entry_points 0000000000000000     <absolute>
 0000:00000000       __guard_iat_count          0000000000000000     <absolute>
 0000:00000000       __guard_longjmp_count      0000000000000000     <absolute>
 0000:00000000       __dynamic_value_reloc_table 0000000000000000     <absolute>
 0000:00000000       __hybrid_auxiliary_iat     0000000000000000     <absolute>
 0000:00000000       __hybrid_auxiliary_iat_copy 0000000000000000     <absolute>
 0000:00000000       __guard_eh_cont_count      0000000000000000     <absolute>
 0000:00000000       __AbsoluteZero             0000000000000000     <absolute>
 0000:00000000       __guard_check_icall_a64n_fptr 0000000000000000     <absolute>
 0000:00000000       __guard_fids_table         0000000000000000     <absolute>
 0000:00000000       __arm64x_redirection_metadata_count 0000000000000000     <absolute>
 0000:00000000       __enclave_config           0000000000000000     <absolute>
 0000:00000000       __guard_eh_cont_table      0000000000000000     <absolute>
 0000:00000000       __arm64x_native_entrypoint 0000000000000000     <absolute>
 0000:00000000       __hybrid_code_map_count    0000000000000000     <absolute>
 0000:00000100       __guard_flags              0000000000000100     <absolute>
 0000:00000000       __ImageBase                0000000180000000     <linker-defined>
 0001:00001040       ?c_str@?$basic_string@DU?$char_traits@D@std@@V?$allocator@D@2@@std@@QEBAPEBDXZ 0000000180002040 f i auth.obj
 0001:00001050       ??0exception@std@@QEAA@AEBV01@@Z 0000000180002050 f i multipart.obj
 0001:00001090       ??1bad_array_new_length@std@@UEAA@XZ 0000000180002090 f i multipart.obj
 0001:00001090       ??1exception@std@@UEAA@XZ  0000000180002090 f i multipart.obj
 0001:00001090       ??1range_error@std@@UEAA@XZ 0000000180002090 f i entry.obj
 0001:00001090       ??1bad_cast@std@@UEAA@XZ   0000000180002090 f i entry.obj
 0001:00001090       ??1failure@ios_base@std@@UEAA@XZ 0000000180002090 f i entry.obj
 0001:00001090       ??1bad_weak_ptr@std@@UEAA@XZ 0000000180002090 f i colorpicker.obj
 0001:00001090       ??1runtime_error@std@@UEAA@XZ 0000000180002090 f i timeout.obj
 0001:00001090       ??1bad_alloc@std@@UEAA@XZ  0000000180002090 f i multipart.obj
 0001:00001090       ??1out_of_range@std@@UEAA@XZ 0000000180002090 f i libcpmt:xthrow.obj
 0001:00001090       ??1length_error@std@@UEAA@XZ 0000000180002090 f i libcpmt:xthrow.obj
 0001:00001090       ??1bad_function_call@std@@UEAA@XZ 0000000180002090 f i libcpmt:xthrow.obj
 0001:00001090       ??1system_error@std@@UEAA@XZ 0000000180002090 f i entry.obj
 0001:000010b0       ?what@exception@std@@UEBAPEBDXZ 00000001800020b0 f i multipart.obj
 0001:000010d0       ??_Elogic_error@std@@UEAAPEAXI@Z 00000001800020d0 f i libcpmt:xthrow.obj
 0001:000010d0       ??_Gbad_cast@std@@UEAAPEAXI@Z 00000001800020d0 f i entry.obj
 0001:000010d0       ??_Ebad_alloc@std@@UEAAPEAXI@Z 00000001800020d0 f i * CIL library *:* CIL module *
 0001:000010d0       ??_Erange_error@std@@UEAAPEAXI@Z 00000001800020d0 f i * CIL library *:* CIL module *
 0001:000010d0       ??_Eout_of_range@std@@UEAAPEAXI@Z 00000001800020d0 f i libcpmt:xthrow.obj
 0001:000010d0       ??_Gexception@std@@UEAAPEAXI@Z 00000001800020d0 f i multipart.obj
 0001:000010d0       ??_Ebad_cast@std@@UEAAPEAXI@Z 00000001800020d0 f i * CIL library *:* CIL module *
 0001:000010d0       ??_Gout_of_range@std@@UEAAPEAXI@Z 00000001800020d0 f i libcpmt:xthrow.obj
 0001:000010d0       ??_Gbad_weak_ptr@std@@UEAAPEAXI@Z 00000001800020d0 f i colorpicker.obj
 0001:000010d0       ??_Ebad_function_call@std@@UEAAPEAXI@Z 00000001800020d0 f i libcpmt:xthrow.obj
 0001:000010d0       ??_Gbad_function_call@std@@UEAAPEAXI@Z 00000001800020d0 f i libcpmt:xthrow.obj
 0001:000010d0       ??_Ebad_array_new_length@std@@UEAAPEAXI@Z 00000001800020d0 f i * CIL library *:* CIL module *
 0001:000010d0       ??_Eruntime_error@std@@UEAAPEAXI@Z 00000001800020d0 f i * CIL library *:* CIL module *
 0001:000010d0       ??_Glength_error@std@@UEAAPEAXI@Z 00000001800020d0 f i libcpmt:xthrow.obj
 0001:000010d0       ??_Glogic_error@std@@UEAAPEAXI@Z 00000001800020d0 f i libcpmt:xthrow.obj
 0001:000010d0       ??_Elength_error@std@@UEAAPEAXI@Z 00000001800020d0 f i libcpmt:xthrow.obj
 0001:000010d0       ??_Gbad_array_new_length@std@@UEAAPEAXI@Z 00000001800020d0 f i multipart.obj
 0001:000010d0       ??_Ebad_weak_ptr@std@@UEAAPEAXI@Z 00000001800020d0 f i * CIL library *:* CIL module *
 0001:000010d0       ??_Eexception@std@@UEAAPEAXI@Z 00000001800020d0 f i * CIL library *:* CIL module *
 0001:000010d0       ??_Grange_error@std@@UEAAPEAXI@Z 00000001800020d0 f i entry.obj
 0001:000010d0       ??_Gruntime_error@std@@UEAAPEAXI@Z 00000001800020d0 f i timeout.obj
 0001:000010d0       ??_Gbad_alloc@std@@UEAAPEAXI@Z 00000001800020d0 f i multipart.obj
 0001:00001120       ??0bad_array_new_length@std@@QEAA@XZ 0000000180002120 f i multipart.obj
 0001:00001150       ?__scrt_throw_std_bad_array_new_length@@YAXXZ 0000000180002150 f i LIBCMT:throw_bad_alloc.obj
 0001:00001150       ?_Throw_bad_array_new_length@std@@YAXXZ 0000000180002150 f i multipart.obj
 0001:00001170       ??0bad_array_new_length@std@@QEAA@AEBV01@@Z 0000000180002170 f i multipart.obj
 0001:000011b0       ??0bad_alloc@std@@QEAA@AEBV01@@Z 00000001800021b0 f i multipart.obj
 0001:000011f0       ??1?$basic_string@DU?$char_traits@D@std@@V?$allocator@D@2@@std@@QEAA@XZ 00000001800021f0 f i multipart.obj
 0001:00001250       ??0?$basic_string@DU?$char_traits@D@std@@V?$allocator@D@2@@std@@QEAA@AEBV01@@Z 0000000180002250 f i multipart.obj
 0001:00001320       ?_Construct_lv_contents@?$basic_string@DU?$char_traits@D@std@@V?$allocator@D@2@@std@@AEAAXAEBV12@@Z 0000000180002320 f i multipart.obj
 0001:000013f0       ??$_Allocate_manually_vector_aligned@U_Default_allocate_traits@std@@@std@@YAPEAX_K@Z 00000001800023f0 f i multipart.obj
 0001:00001430       ?_Throw_tree_length_error@std@@YAXXZ 0000000180002430 f i proxies.obj
 0001:00001450       ?_Xlen_string@std@@YAXXZ   0000000180002450 f i timeout.obj
 0001:00001470       ??0runtime_error@std@@QEAA@PEBD@Z 0000000180002470 f i timeout.obj
 0001:000014e0       ??0runtime_error@std@@QEAA@AEBV01@@Z 00000001800024e0 f i timeout.obj
 0001:00001520       ?assign@?$basic_string@DU?$char_traits@D@std@@V?$allocator@D@2@@std@@QEAAAEAV12@QEBD_K@Z 0000000180002520 f i timeout.obj
 0001:00001680       ?append@?$basic_string@DU?$char_traits@D@std@@V?$allocator@D@2@@std@@QEAAAEAV12@QEBD_K@Z 0000000180002680 f i timeout.obj
 0001:00001710       ??$?HDU?$char_traits@D@std@@V?$allocator@D@1@@std@@YA?AV?$basic_string@DU?$char_traits@D@std@@V?$allocator@D@2@@0@$$QEAV10@QEBD@Z 0000000180002710 f i timeout.obj
 0001:00001780       ??$?HDU?$char_traits@D@std@@V?$allocator@D@1@@std@@YA?AV?$basic_string@DU?$char_traits@D@std@@V?$allocator@D@2@@0@QEBD$$QEAV10@@Z 0000000180002780 f i timeout.obj
 0001:000017f0       ??$_Reallocate_for@V<lambda_1>@?1??assign@?$basic_string@DU?$char_traits@D@std@@V?$allocator@D@2@@std@@QEAAAEAV34@QEBD_K@Z@PEBD@?$basic_string@DU?$char_traits@D@std@@V?$allocator@D@2@@std@@AEAAAEAV01@_KV<lambda_1>@?1??assign@01@QEAAAEAV01@QEBD0@Z@PEBD@Z 00000001800027f0 f i timeout.obj
 0001:00001930       ??$_Reallocate_grow_by@V<lambda_1>@?1??append@?$basic_string@DU?$char_traits@D@std@@V?$allocator@D@2@@std@@QEAAAEAV34@QEBD_K@Z@PEBD_K@?$basic_string@DU?$char_traits@D@std@@V?$allocator@D@2@@std@@AEAAAEAV01@_KV<lambda_1>@?1??append@01@QEAAAEAV01@QEBD0@Z@PEBD_K@Z 0000000180002930 f i timeout.obj
 0001:00001ac0       ?insert@?$basic_string@DU?$char_traits@D@std@@V?$allocator@D@2@@std@@QEAAAEAV12@_KQEBD0@Z 0000000180002ac0 f i timeout.obj
 0001:00001bc0       ?_Xran@?$_String_val@U?$_Simple_types@D@std@@@std@@SAXXZ 0000000180002bc0 f i timeout.obj
 0001:00001bc0       ?_Xran@?$_String_val@U?$_Simple_types@_W@std@@@std@@SAXXZ 0000000180002bc0 f i cryptlib:misc.obj
 0001:00001bc0       ?_Xran@?$_String_val@U?$_Simple_types@G@std@@@std@@SAXXZ 0000000180002bc0 f i libcpmt:wlocale.obj
 0001:00001be0       ??$_Reallocate_grow_by@V<lambda_1>@?1??insert@?$basic_string@DU?$char_traits@D@std@@V?$allocator@D@2@@std@@QEAAAEAV34@_KQEBD0@Z@_KPEBD_K@?$basic_string@DU?$char_traits@D@std@@V?$allocator@D@2@@std@@AEAAAEAV01@_KV<lambda_1>@?1??insert@01@QEAAAEAV01@0QEBD0@Z@_KPEBD3@Z 0000000180002be0 f i timeout.obj
 0001:00001db0       __local_stdio_printf_options 0000000180002db0 f i entry.obj
 0001:00001dc0       swprintf                   0000000180002dc0 f i entry.obj
 0001:00001e20       ??0range_error@std@@QEAA@PEBD@Z 0000000180002e20 f i entry.obj
 0001:00001e90       ?_Throw_range_error@std@@YAXQEBD@Z 0000000180002e90 f i entry.obj
 0001:00001eb0       ??0range_error@std@@QEAA@AEBV01@@Z 0000000180002eb0 f i entry.obj
 0001:00001ef0       ?default_error_condition@error_category@std@@UEBA?AVerror_condition@2@H@Z 0000000180002ef0 f i entry.obj
 0001:00001f00       ?equivalent@error_category@std@@UEBA_NHAEBVerror_condition@2@@Z 0000000180002f00 f i entry.obj
 0001:00001f40       ?equivalent@error_category@std@@UEBA_NAEBVerror_code@2@H@Z 0000000180002f40 f i entry.obj
 0001:00001f60       ?make_error_code@std@@YA?AVerror_code@1@W4errc@1@@Z 0000000180002f60 f i entry.obj
 0001:00001f80       ?make_error_code@std@@YA?AVerror_code@1@W4io_errc@1@@Z 0000000180002f80 f i entry.obj
 0001:00001fa0       ??0_System_error@std@@IEAA@Verror_code@1@AEBV?$basic_string@DU?$char_traits@D@std@@V?$allocator@D@2@@1@@Z 0000000180002fa0 f i entry.obj
 0001:00002140       ??_Gfailure@ios_base@std@@UEAAPEAXI@Z 0000000180003140 f i entry.obj
 0001:00002140       ??_Esystem_error@std@@UEAAPEAXI@Z 0000000180003140 f i * CIL library *:* CIL module *
 0001:00002140       ??_E_System_error@std@@UEAAPEAXI@Z 0000000180003140 f i * CIL library *:* CIL module *
 0001:00002140       ??_Efailure@ios_base@std@@UEAAPEAXI@Z 0000000180003140 f i * CIL library *:* CIL module *
 0001:00002140       ??_G_System_error@std@@UEAAPEAXI@Z 0000000180003140 f i entry.obj
 0001:00002140       ??_Gsystem_error@std@@UEAAPEAXI@Z 0000000180003140 f i entry.obj
 0001:00002190       ??0system_error@std@@QEAA@Verror_code@1@@Z 0000000180003190 f i entry.obj
 0001:00002250       ?_Throw_system_error@std@@YAXW4errc@1@@Z 0000000180003250 f i entry.obj
 0001:00002290       ??0system_error@std@@QEAA@AEBV01@@Z 0000000180003290 f i entry.obj
 0001:000022f0       ??0_System_error@std@@QEAA@AEBV01@@Z 00000001800032f0 f i entry.obj
 0001:00002340       ??1_System_error_message@std@@QEAA@XZ 0000000180003340 f i entry.obj
 0001:00002350       ?name@_Generic_error_category@std@@UEBAPEBDXZ 0000000180003350 f i entry.obj
 0001:00002360       ?message@_Generic_error_category@std@@UEBA?AV?$basic_string@DU?$char_traits@D@std@@V?$allocator@D@2@@2@H@Z 0000000180003360 f i entry.obj
 0001:000023b0       ??_E?$output_stream_adapter@D@detail@nlohmann@@UEAAPEAXI@Z 00000001800033b0 f i * CIL library *:* CIL module *
 0001:000023b0       ??_G_Generic_error_category@std@@UEAAPEAXI@Z 00000001800033b0 f i entry.obj
 0001:000023b0       ??_E_Iostream_error_category2@std@@UEAAPEAXI@Z 00000001800033b0 f i * CIL library *:* CIL module *
 0001:000023b0       ??_E_System_error_category@std@@UEAAPEAXI@Z 00000001800033b0 f i * CIL library *:* CIL module *
 0001:000023b0       ??_G?$output_stream_adapter@D@detail@nlohmann@@UEAAPEAXI@Z 00000001800033b0 f i container.obj
 0001:000023b0       ??_E_Generic_error_category@std@@UEAAPEAXI@Z 00000001800033b0 f i * CIL library *:* CIL module *
 0001:000023b0       ??_G_System_error_category@std@@UEAAPEAXI@Z 00000001800033b0 f i entry.obj
 0001:000023b0       ??_G_Iostream_error_category2@std@@UEAAPEAXI@Z 00000001800033b0 f i entry.obj
 0001:000023e0       ?name@_Iostream_error_category2@std@@UEBAPEBDXZ 00000001800033e0 f i entry.obj
 0001:000023f0       ?message@_Iostream_error_category2@std@@UEBA?AV?$basic_string@DU?$char_traits@D@std@@V?$allocator@D@2@@2@H@Z 00000001800033f0 f i entry.obj
 0001:00002480       ?name@_System_error_category@std@@UEBAPEBDXZ 0000000180003480 f i entry.obj
 0001:00002490       ?message@_System_error_category@std@@UEBA?AV?$basic_string@DU?$char_traits@D@std@@V?$allocator@D@2@@2@H@Z 0000000180003490 f i entry.obj
 0001:00002540       ?default_error_condition@_System_error_category@std@@UEBA?AVerror_condition@2@H@Z 0000000180003540 f i entry.obj
 0001:000025a0       ??0bad_cast@std@@QEAA@XZ   00000001800035a0 f i entry.obj
 0001:000025d0       ?_Throw_bad_cast@std@@YAXXZ 00000001800035d0 f i entry.obj
 0001:000025f0       ??0bad_cast@std@@QEAA@AEBV01@@Z 00000001800035f0 f i entry.obj
 0001:00002630       ?_Decref@_Ref_count_base@std@@QEAAXXZ 0000000180003630 f i entry.obj
 0001:00002680       ?showmanyc@?$basic_streambuf@DU?$char_traits@D@std@@@std@@MEAA_JXZ 0000000180003680 f i entry.obj
 0001:00002680       ?CopyRangeTo2@Sink@CryptoPP@@UEBA_KAEAVBufferedTransformation@2@AEA_K_KAEBV?$basic_string@DU?$char_traits@D@std@@V?$allocator@D@2@@std@@_N@Z 0000000180003680 f i entry.obj
 0001:00002680       ?GetAutoSignalPropagation@BufferedTransformation@CryptoPP@@UEBAHXZ 0000000180003680 f i entry.obj
 0001:00002680       ?AttachedTransformation@BufferedTransformation@CryptoPP@@UEAAPEAV12@XZ 0000000180003680 f i entry.obj
 0001:00002680       ?do_encoding@?$codecvt_utf8@_W$0BAPPPP@$0A@@std@@MEBAHXZ 0000000180003680 f i entry.obj
 0001:00002680       ?NumberOfMessageSeries@BufferedTransformation@CryptoPP@@UEBAIXZ 0000000180003680 f i entry.obj
 0001:00002680       ?_Get_deleter@_Ref_count_base@std@@UEBAPEAXAEBVtype_info@@@Z 0000000180003680 f i entry.obj
 0001:00002680       ?Put2@BitBucket@CryptoPP@@UEAA_KPEBE_KH_N@Z 0000000180003680 f i cryptlib:cryptlib.obj
 0001:00002680       ?sync@?$basic_streambuf@DU?$char_traits@D@std@@@std@@MEAAHXZ 0000000180003680 f i entry.obj
 0001:00002690       ??_E_Facet_base@std@@UEAAPEAXI@Z 0000000180003690 f i * CIL library *:* CIL module *
 0001:00002690       ??_G_Facet_base@std@@UEAAPEAXI@Z 0000000180003690 f i entry.obj
 0001:000026c0       ??0_Locinfo@std@@QEAA@PEBD@Z 00000001800036c0 f i entry.obj
 0001:00002740       ??1_Locinfo@std@@QEAA@XZ   0000000180003740 f i entry.obj
 0001:000027e0       ?_Incref@facet@locale@std@@UEAAXXZ 00000001800037e0 f i entry.obj
 0001:000027f0       ?_Decref@facet@locale@std@@UEAAPEAV_Facet_base@3@XZ 00000001800037f0 f i entry.obj
 0001:00002800       ??1facet@locale@std@@MEAA@XZ 0000000180003800 f i entry.obj
 0001:00002800       ??1time_base@std@@UEAA@XZ  0000000180003800 f i libcpmt:wlocale.obj
 0001:00002800       ??1money_base@std@@UEAA@XZ 0000000180003800 f i libcpmt:wlocale.obj
 0001:00002800       ??1codecvt_base@std@@UEAA@XZ 0000000180003800 f i entry.obj
 0001:00002810       ??1locale@std@@QEAA@XZ     0000000180003810 f i entry.obj
 0001:00002840       ?do_encoding@codecvt_base@std@@MEBAHXZ 0000000180003840 f i entry.obj
 0001:00002840       ?do_max_length@codecvt_base@std@@MEBAHXZ 0000000180003840 f i entry.obj
 0001:00002840       _get_startup_argv_mode     0000000180003840 f i LIBCMT:argv_mode.obj
 0001:00002850       ?do_in@?$codecvt@_WDU_Mbstatet@@@std@@MEBAHAEAU_Mbstatet@@PEBD1AEAPEBDPEA_W3AEAPEA_W@Z 0000000180003850 f i entry.obj
 0001:00002930       ?do_out@?$codecvt@_WDU_Mbstatet@@@std@@MEBAHAEAU_Mbstatet@@PEB_W1AEAPEB_WPEAD3AEAPEAD@Z 0000000180003930 f i entry.obj
 0001:00002a40       ?do_unshift@?$codecvt@_WDU_Mbstatet@@@std@@MEBAHAEAU_Mbstatet@@PEAD1AEAPEAD@Z 0000000180003a40 f i entry.obj
 0001:00002ae0       ?do_length@?$codecvt@_WDU_Mbstatet@@@std@@MEBAHAEAU_Mbstatet@@PEBD1_K@Z 0000000180003ae0 f i entry.obj
 0001:00002b90       ?IsolatedFlush@?$Bufferless@VSink@CryptoPP@@@CryptoPP@@UEAA_N_N0@Z 0000000180003b90 f i entry.obj
 0001:00002b90       ?CanModifyInput@BufferedTransformation@CryptoPP@@UEBA_NXZ 0000000180003b90 f i entry.obj
 0001:00002b90       ?do_always_noconv@?$codecvt@GDU_Mbstatet@@@std@@MEBA_NXZ 0000000180003b90 f i libcpmt:wlocale.obj
 0001:00002b90       ?IsolatedMessageSeriesEnd@BufferedTransformation@CryptoPP@@UEAA_N_N@Z 0000000180003b90 f i entry.obj
 0001:00002b90       ?IsolatedFlush@?$Bufferless@VBufferedTransformation@CryptoPP@@@CryptoPP@@UEAA_N_N0@Z 0000000180003b90 f i cryptlib:integer.obj
 0001:00002b90       ?FIPS_140_2_ComplianceEnabled@CryptoPP@@YA_NXZ 0000000180003b90 f i cryptlib:fips140.obj
 0001:00002b90       ?do_always_noconv@?$codecvt@_WDU_Mbstatet@@@std@@MEBA_NXZ 0000000180003b90 f i entry.obj
 0001:00002b90       ?Attachable@BufferedTransformation@CryptoPP@@UEAA_NXZ 0000000180003b90 f i entry.obj
 0001:00002b90       ?do_always_noconv@?$codecvt_utf8@_W$0BAPPPP@$0A@@std@@MEBA_NXZ 0000000180003b90 f i entry.obj
 0001:00002b90       ?PowerUpSelfTestInProgressOnThisThread@CryptoPP@@YA_NXZ 0000000180003b90 f i cryptlib:fips140.obj
 0001:00002b90       ?GetNextMessageSeries@BufferedTransformation@CryptoPP@@UEAA_NXZ 0000000180003b90 f i entry.obj
 0001:00002b90       ?IsolatedFlush@?$InputRejecting@VBufferedTransformation@CryptoPP@@@CryptoPP@@UEAA_N_N0@Z 0000000180003b90 f i entry.obj
 0001:00002b90       ?GetVoidValue@NullNameValuePairs@CryptoPP@@UEBA_NPEBDAEBVtype_info@@PEAX@Z 0000000180003b90 f i cryptlib:cryptlib.obj
 0001:00002ba0       ?do_max_length@?$codecvt@_WDU_Mbstatet@@@std@@MEBAHXZ 0000000180003ba0 f i entry.obj
 0001:00002ba0       ?do_max_length@?$codecvt@GDU_Mbstatet@@@std@@MEBAHXZ 0000000180003ba0 f i libcpmt:wlocale.obj
 0001:00002bb0       ?do_encoding@?$codecvt@_WDU_Mbstatet@@@std@@MEBAHXZ 0000000180003bb0 f i entry.obj
 0001:00002bb0       ?do_encoding@?$codecvt@GDU_Mbstatet@@@std@@MEBAHXZ 0000000180003bb0 f i libcpmt:wlocale.obj
 0001:00002bc0       ??_G?$codecvt@_WDU_Mbstatet@@@std@@MEAAPEAXI@Z 0000000180003bc0 f i entry.obj
 0001:00002bc0       ??_G?$codecvt_utf8@_W$0BAPPPP@$0A@@std@@UEAAPEAXI@Z 0000000180003bc0 f i entry.obj
 0001:00002bc0       ??_E?$codecvt@_WDU_Mbstatet@@@std@@MEAAPEAXI@Z 0000000180003bc0 f i * CIL library *:* CIL module *
 0001:00002bc0       ??_E?$codecvt_utf8@_W$0BAPPPP@$0A@@std@@UEAAPEAXI@Z 0000000180003bc0 f i * CIL library *:* CIL module *
 0001:00002bc0       ??_G?$codecvt@GDU_Mbstatet@@@std@@MEAAPEAXI@Z 0000000180003bc0 f i libcpmt:wlocale.obj
 0001:00002bc0       ??_E?$codecvt@GDU_Mbstatet@@@std@@MEAAPEAXI@Z 0000000180003bc0 f i libcpmt:wlocale.obj
 0001:00002bf0       ?_Getcat@?$ctype@D@std@@SA_KPEAPEBVfacet@locale@2@PEBV42@@Z 0000000180003bf0 f i entry.obj
 0001:00002d80       ?do_tolower@?$ctype@D@std@@MEBADD@Z 0000000180003d80 f i entry.obj
 0001:00002d90       ?do_tolower@?$ctype@D@std@@MEBAPEBDPEADPEBD@Z 0000000180003d90 f i entry.obj
 0001:00002de0       ?do_toupper@?$ctype@D@std@@MEBADD@Z 0000000180003de0 f i entry.obj
 0001:00002df0       ?do_toupper@?$ctype@D@std@@MEBAPEBDPEADPEBD@Z 0000000180003df0 f i entry.obj
 0001:00002e40       ?do_narrow@?$ctype@D@std@@MEBADDD@Z 0000000180003e40 f i entry.obj
 0001:00002e40       ?do_widen@?$ctype@D@std@@MEBADD@Z 0000000180003e40 f i entry.obj
 0001:00002e50       ?do_widen@?$ctype@D@std@@MEBAPEBDPEBD0PEAD@Z 0000000180003e50 f i entry.obj
 0001:00002e70       ?do_narrow@?$ctype@D@std@@MEBAPEBDPEBD0DPEAD@Z 0000000180003e70 f i entry.obj
 0001:00002e90       ??_G?$ctype@D@std@@MEAAPEAXI@Z 0000000180003e90 f i entry.obj
 0001:00002e90       ??_E?$ctype@D@std@@MEAAPEAXI@Z 0000000180003e90 f i * CIL library *:* CIL module *
 0001:00002f00       ??0failure@ios_base@std@@QEAA@PEBDAEBVerror_code@2@@Z 0000000180003f00 f i entry.obj
 0001:00002fd0       ?clear@ios_base@std@@QEAAXH_N@Z 0000000180003fd0 f i entry.obj
 0001:00003060       ??0failure@ios_base@std@@QEAA@AEBV012@@Z 0000000180004060 f i entry.obj
 0001:000030c0       ??_Eios_base@std@@UEAAPEAXI@Z 00000001800040c0 f i * CIL library *:* CIL module *
 0001:000030c0       ??_Gios_base@std@@UEAAPEAXI@Z 00000001800040c0 f i entry.obj
 0001:00003100       ?ceil@@YAMM@Z              0000000180004100 f i entry.obj
 0001:00003110       ?_Make_ec@filesystem@std@@YA?AVerror_code@2@W4__std_win_error@@@Z 0000000180004110 f i entry.obj
 0001:00003130       ?_Throw_system_error_from_std_win_error@filesystem@std@@YAXW4__std_win_error@@@Z 0000000180004130 f i entry.obj
 0001:00003170       ?_Convert_narrow_to_wide@filesystem@std@@YA?AV?$basic_string@_WU?$char_traits@_W@std@@V?$allocator@_W@2@@2@W4__std_code_page@@V?$basic_string_view@DU?$char_traits@D@std@@@2@@Z 0000000180004170 f i entry.obj
 0001:000032c0       ?_Find_relative_path@filesystem@std@@YAPEB_WQEB_W0@Z 00000001800042c0 f i entry.obj
 0001:000033d0       ?_Tidy_deallocate@?$basic_string@_WU?$char_traits@_W@std@@V?$allocator@_W@2@@std@@AEAAXXZ 00000001800043d0 f i entry.obj
 0001:000033d0       ??1path@filesystem@std@@QEAA@XZ 00000001800043d0 f i entry.obj
 0001:000033d0       ?_Tidy_deallocate@?$basic_string@GU?$char_traits@G@std@@V?$allocator@G@2@@std@@AEAAXXZ 00000001800043d0 f i libcpmt:wlocale.obj
 0001:000033d0       ??1?$basic_string@_WU?$char_traits@_W@std@@V?$allocator@_W@2@@std@@QEAA@XZ 00000001800043d0 f i entry.obj
 0001:00003440       ??0filesystem_error@filesystem@std@@QEAA@AEBV?$basic_string@DU?$char_traits@D@std@@V?$allocator@D@2@@2@AEBVpath@12@Verror_code@2@@Z 0000000180004440 f i entry.obj
 0001:00003560       ?what@filesystem_error@filesystem@std@@UEBAPEBDXZ 0000000180004560 f i entry.obj
 0001:00003570       ?_Pretty_message@filesystem_error@filesystem@std@@CA?AV?$basic_string@DU?$char_traits@D@std@@V?$allocator@D@2@@3@V?$basic_string_view@DU?$char_traits@D@std@@@3@AEBVpath@23@1@Z 0000000180004570 f i entry.obj
 0001:000037f0       ??_Gfilesystem_error@filesystem@std@@UEAAPEAXI@Z 00000001800047f0 f i entry.obj
 0001:000037f0       ??_Efilesystem_error@filesystem@std@@UEAAPEAXI@Z 00000001800047f0 f i * CIL library *:* CIL module *
 0001:00003940       ??1filesystem_error@filesystem@std@@UEAA@XZ 0000000180004940 f i entry.obj
 0001:00003a60       ??0filesystem_error@filesystem@std@@QEAA@AEBV012@@Z 0000000180004a60 f i entry.obj
 0001:00003af0       ?_Throw_fs_error@filesystem@std@@YAXPEBDAEBVerror_code@2@AEBVpath@12@@Z 0000000180004af0 f i entry.obj
 0001:00003b50       ?create_directories@filesystem@std@@YA_NAEBVpath@12@AEAVerror_code@2@@Z 0000000180004b50 f i entry.obj
 0001:00003e20       ?ToUnicode@StringConverter@@YA?AV?$basic_string@_WU?$char_traits@_W@std@@V?$allocator@_W@2@@std@@AEBV?$basic_string@DU?$char_traits@D@std@@V?$allocator@D@2@@3@@Z 0000000180004e20 f   entry.obj
 0001:00003ee0       ?ToASCII@StringConverter@@YA?AV?$basic_string@DU?$char_traits@D@std@@V?$allocator@D@2@@std@@AEBV?$basic_string@_WU?$char_traits@_W@std@@V?$allocator@_W@2@@3@@Z 0000000180004ee0 f   entry.obj
 0001:00003fa0       ??1Exception@CryptoPP@@UEAA@XZ 0000000180004fa0 f i entry.obj
 0001:00004020       ?what@Exception@CryptoPP@@UEBAPEBDXZ 0000000180005020 f i entry.obj
 0001:00004030       ??_ENoChannelSupport@BufferedTransformation@CryptoPP@@UEAAPEAXI@Z 0000000180005030 f i cryptlib:cryptlib.obj
 0001:00004030       ??_EInvalidArgument@CryptoPP@@UEAAPEAXI@Z 0000000180005030 f i * CIL library *:* CIL module *
 0001:00004030       ??_GNoChannelSupport@BufferedTransformation@CryptoPP@@UEAAPEAXI@Z 0000000180005030 f i cryptlib:cryptlib.obj
 0001:00004030       ??_GBERDecodeErr@CryptoPP@@UEAAPEAXI@Z 0000000180005030 f i cryptlib:integer.obj
 0001:00004030       ??_GException@CryptoPP@@UEAAPEAXI@Z 0000000180005030 f i entry.obj
 0001:00004030       ??_GInvalidArgument@CryptoPP@@UEAAPEAXI@Z 0000000180005030 f i entry.obj
 0001:00004030       ??_ESelfTestFailure@CryptoPP@@UEAAPEAXI@Z 0000000180005030 f i cryptlib:cryptlib.obj
 0001:00004030       ??_EInputRejected@?$InputRejecting@VBufferedTransformation@CryptoPP@@@CryptoPP@@UEAAPEAXI@Z 0000000180005030 f i * CIL library *:* CIL module *
 0001:00004030       ??_EException@CryptoPP@@UEAAPEAXI@Z 0000000180005030 f i * CIL library *:* CIL module *
 0001:00004030       ??_EBERDecodeErr@CryptoPP@@UEAAPEAXI@Z 0000000180005030 f i cryptlib:integer.obj
 0001:00004030       ??_GSelfTestFailure@CryptoPP@@UEAAPEAXI@Z 0000000180005030 f i cryptlib:cryptlib.obj
 0001:00004030       ??_GInputRejected@?$InputRejecting@VBufferedTransformation@CryptoPP@@@CryptoPP@@UEAAPEAXI@Z 0000000180005030 f i entry.obj
 0001:00004030       ??_ENotImplemented@CryptoPP@@UEAAPEAXI@Z 0000000180005030 f i * CIL library *:* CIL module *
 0001:00004030       ??_GNotImplemented@CryptoPP@@UEAAPEAXI@Z 0000000180005030 f i entry.obj
 0001:00004070       ??0InvalidArgument@CryptoPP@@QEAA@AEBV?$basic_string@DU?$char_traits@D@std@@V?$allocator@D@2@@std@@@Z 0000000180005070 f i entry.obj
 0001:000040c0       ??1NotImplemented@CryptoPP@@UEAA@XZ 00000001800050c0 f i entry.obj
 0001:000040c0       ??1SelfTestFailure@CryptoPP@@UEAA@XZ 00000001800050c0 f i cryptlib:cryptlib.obj
 0001:000040c0       ??1InputRejected@?$InputRejecting@VBufferedTransformation@CryptoPP@@@CryptoPP@@UEAA@XZ 00000001800050c0 f i entry.obj
 0001:000040c0       ??1BERDecodeErr@CryptoPP@@UEAA@XZ 00000001800050c0 f i cryptlib:integer.obj
 0001:000040c0       ??1InvalidArgument@CryptoPP@@UEAA@XZ 00000001800050c0 f i entry.obj
 0001:000040c0       ??1NoChannelSupport@BufferedTransformation@CryptoPP@@UEAA@XZ 00000001800050c0 f i cryptlib:cryptlib.obj
 0001:000040d0       ??0NotImplemented@CryptoPP@@QEAA@AEBV?$basic_string@DU?$char_traits@D@std@@V?$allocator@D@2@@std@@@Z 00000001800050d0 f i entry.obj
 0001:00004120       ??_GNullNameValuePairs@CryptoPP@@UEAAPEAXI@Z 0000000180005120 f i cryptlib:cryptlib.obj
 0001:00004120       ??_ENullNameValuePairs@CryptoPP@@UEAAPEAXI@Z 0000000180005120 f i cryptlib:cryptlib.obj
 0001:00004120       ??_GNameValuePairs@CryptoPP@@UEAAPEAXI@Z 0000000180005120 f i entry.obj
 0001:00004120       ??_ENameValuePairs@CryptoPP@@UEAAPEAXI@Z 0000000180005120 f i * CIL library *:* CIL module *
 0001:00004150       ??0InvalidArgument@CryptoPP@@QEAA@AEBV01@@Z 0000000180005150 f i entry.obj
 0001:000041c0       ??0Exception@CryptoPP@@QEAA@AEBV01@@Z 00000001800051c0 f i entry.obj
 0001:00004220       ?Clone@Clonable@CryptoPP@@UEBAPEAV12@XZ 0000000180005220 f i entry.obj
 0001:00004260       ??0NotImplemented@CryptoPP@@QEAA@AEBV01@@Z 0000000180005260 f i entry.obj
 0001:000042d0       ?AlgorithmName@Algorithm@CryptoPP@@UEBA?AV?$basic_string@DU?$char_traits@D@std@@V?$allocator@D@2@@std@@XZ 00000001800052d0 f i entry.obj
 0001:00004310       ?AlgorithmProvider@Algorithm@CryptoPP@@UEBA?AV?$basic_string@DU?$char_traits@D@std@@V?$allocator@D@2@@std@@XZ 0000000180005310 f i entry.obj
 0001:00004350       ?CreatePutSpace@BufferedTransformation@CryptoPP@@UEAAPEAEAEA_K@Z 0000000180005350 f i entry.obj
 0001:00004360       ?PutModifiable2@BufferedTransformation@CryptoPP@@UEAA_KPEAE_KH_N@Z 0000000180005360 f i entry.obj
 0001:00004380       ?SetAutoSignalPropagation@BufferedTransformation@CryptoPP@@UEAAXH@Z 0000000180005380 f i entry.obj
 0001:00004380       ?do_close@?$messages@G@std@@MEBAXH@Z 0000000180005380 f i libcpmt:wlocale.obj
 0001:00004380       ?do_close@?$messages@D@std@@MEBAXH@Z 0000000180005380 f i libcpmt:xlocale.obj
 0001:00004380       ?Load@CButton@FGUI@@UEAAXAEAV?$basic_json@Vmap@std@@Vvector@2@V?$basic_string@DU?$char_traits@D@std@@V?$allocator@D@2@@2@_N_J_KNVallocator@2@Uadl_serializer@nlohmann@@V?$vector@EV?$allocator@E@std@@@2@@nlohmann@@@Z 0000000180005380 f i button.obj
 0001:00004380       ?IsolatedInitialize@BitBucket@CryptoPP@@UEAAXAEBVNameValuePairs@2@@Z 0000000180005380 f i cryptlib:cryptlib.obj
 0001:00004380       ?Save@CLabel@FGUI@@UEAAXAEAV?$basic_json@Vmap@std@@Vvector@2@V?$basic_string@DU?$char_traits@D@std@@V?$allocator@D@2@@2@_N_J_KNVallocator@2@Uadl_serializer@nlohmann@@V?$vector@EV?$allocator@E@std@@@2@@nlohmann@@@Z 0000000180005380 f i label.obj
 0001:00004380       ?Load@CTabPanel@FGUI@@UEAAXAEAV?$basic_json@Vmap@std@@Vvector@2@V?$basic_string@DU?$char_traits@D@std@@V?$allocator@D@2@@2@_N_J_KNVallocator@2@Uadl_serializer@nlohmann@@V?$vector@EV?$allocator@E@std@@@2@@nlohmann@@@Z 0000000180005380 f i tabpanel.obj
 0001:00004380       ?Input@CLabel@FGUI@@UEAAXXZ 0000000180005380 f i label.obj
 0001:00004380       _guard_check_icall_nop     0000000180005380 f i LIBCMT:guard_support.obj
 0001:00004380       ?Input@CContainer@FGUI@@UEAAXXZ 0000000180005380 f i container.obj
 0001:00004380       ?imbue@?$basic_streambuf@DU?$char_traits@D@std@@@std@@MEAAXAEBVlocale@2@@Z 0000000180005380 f i entry.obj
 0001:00004380       ?StoreInitialize@BERGeneralDecoder@CryptoPP@@EEAAXAEBVNameValuePairs@2@@Z 0000000180005380 f i cryptlib:integer.obj
 0001:00004380       ?Save@CButton@FGUI@@UEAAXAEAV?$basic_json@Vmap@std@@Vvector@2@V?$basic_string@DU?$char_traits@D@std@@V?$allocator@D@2@@2@_N_J_KNVallocator@2@Uadl_serializer@nlohmann@@V?$vector@EV?$allocator@E@std@@@2@@nlohmann@@@Z 0000000180005380 f i button.obj
 0001:00004380       ?_Unlock@?$basic_streambuf@DU?$char_traits@D@std@@@std@@UEAAXXZ 0000000180005380 f i entry.obj
 0001:00004380       ?Save@CTabPanel@FGUI@@UEAAXAEAV?$basic_json@Vmap@std@@Vvector@2@V?$basic_string@DU?$char_traits@D@std@@V?$allocator@D@2@@2@_N_J_KNVallocator@2@Uadl_serializer@nlohmann@@V?$vector@EV?$allocator@E@std@@@2@@nlohmann@@@Z 0000000180005380 f i tabpanel.obj
 0001:00004380       ?do_close@?$messages@_W@std@@MEBAXH@Z 0000000180005380 f i libcpmt:wlocale.obj
 0001:00004380       ?Input@CTabPanel@FGUI@@UEAAXXZ 0000000180005380 f i tabpanel.obj
 0001:00004380       ?Tooltip@CTabPanel@FGUI@@UEAAXXZ 0000000180005380 f i tabpanel.obj
 0001:00004380       ?Update@CButton@FGUI@@UEAAXXZ 0000000180005380 f i button.obj
 0001:00004380       ?Load@CLabel@FGUI@@UEAAXAEAV?$basic_json@Vmap@std@@Vvector@2@V?$basic_string@DU?$char_traits@D@std@@V?$allocator@D@2@@2@_N_J_KNVallocator@2@Uadl_serializer@nlohmann@@V?$vector@EV?$allocator@E@std@@@2@@nlohmann@@@Z 0000000180005380 f i label.obj
 0001:00004380       ?_Lock@?$basic_streambuf@DU?$char_traits@D@std@@@std@@UEAAXXZ 0000000180005380 f i entry.obj
 0001:00004390       ?NumberOfMessagesInThisSeries@BufferedTransformation@CryptoPP@@UEBAIXZ 0000000180005390 f i entry.obj
 0001:000043a0       ?AttachedTransformation@BufferedTransformation@CryptoPP@@UEBAPEBV12@XZ 00000001800053a0 f i entry.obj
 0001:000043b0       ?Detach@BufferedTransformation@CryptoPP@@UEAAXPEAV12@@Z 00000001800053b0 f i entry.obj
 0001:000043f0       ?IsolatedInitialize@Store@CryptoPP@@UEAAXAEBVNameValuePairs@2@@Z 00000001800053f0 f i entry.obj
 0001:00004400       ?NumberOfMessages@Store@CryptoPP@@UEBAIXZ 0000000180005400 f i entry.obj
 0001:00004410       ?TransferTo2@Sink@CryptoPP@@UEAA_KAEAVBufferedTransformation@2@AEA_KAEBV?$basic_string@DU?$char_traits@D@std@@V?$allocator@D@2@@std@@_N@Z 0000000180005410 f i entry.obj
 0001:00004420       ??0Vector2@@QEAA@XZ        0000000180005420 f i entry.obj
 0001:00004430       ??0Vector2@@QEAA@MM@Z      0000000180005430 f i entry.obj
 0001:00004440       ??HVector2@@QEBA?AV0@AEBV0@@Z 0000000180005440 f i entry.obj
 0001:00004470       ??0Vector3@@QEAA@MMM@Z     0000000180005470 f i entry.obj
 0001:00004490       ??HVector3@@QEBA?AV0@AEBV0@@Z 0000000180005490 f i entry.obj
 0001:000044d0       ?distance@Vector3@@QEBAMV1@@Z 00000001800054d0 f i entry.obj
 0001:00004520       ??0Color3@@QEAA@MMMM@Z     0000000180005520 f i entry.obj
 0001:00004540       ?get_key@@YA_NH@Z          0000000180005540 f   entry.obj
 0001:000046d0       ?Init@Renderer@@YA_NPEAUIDXGISwapChain@@@Z 00000001800056d0 f   entry.obj
 0001:000049e0       ?rectangle_filled@Renderer@@YAXVVector2@@0VColor3@@@Z 00000001800059e0 f   entry.obj
 0001:00004a70       ?line@Renderer@@YAXVVector2@@0VColor3@@_NM@Z 0000000180005a70 f   entry.obj
 0001:00004bb0       ?circle@Renderer@@YAXVVector2@@VColor3@@MM@Z 0000000180005bb0 f   entry.obj
 0001:00004c50       ?get_text_size@Renderer@@YA?AVVector2@@V?$basic_string@_WU?$char_traits@_W@std@@V?$allocator@_W@2@@std@@M@Z 0000000180005c50 f   entry.obj
 0001:00004e50       ?Widget@CBuilder@FGUI@@QEAAAEAV12@V?$shared_ptr@VCWidgets@FGUI@@@std@@@Z 0000000180005e50 f i entry.obj
 0001:00004f10       ?Title@CBuilder@FGUI@@QEAAAEAV12@V?$basic_string@DU?$char_traits@D@std@@V?$allocator@D@2@@std@@@Z 0000000180005f10 f i entry.obj
 0001:00004fd0       ?Font@CBuilder@FGUI@@QEAAAEAV12@V?$basic_string@DU?$char_traits@D@std@@V?$allocator@D@2@@std@@H_NH@Z 0000000180005fd0 f i entry.obj
 0001:00005120       ?Medium@CBuilder@FGUI@@QEAAAEAV12@V?$shared_ptr@VCWidgets@FGUI@@@std@@H@Z 0000000180006120 f i entry.obj
 0001:00005230       ?Text@CBuilder@FGUI@@QEAAAEAV12@V?$basic_string@DU?$char_traits@D@std@@V?$allocator@D@2@@std@@@Z 0000000180006230 f i entry.obj
 0001:00005440       ?Entry@CBuilder@FGUI@@QEAAAEAV12@V?$basic_string@DU?$char_traits@D@std@@V?$allocator@D@2@@std@@I@Z 0000000180006440 f i entry.obj
 0001:00005850       ?Callback@CBuilder@FGUI@@QEAAAEAV12@V?$function@$$A6AXXZ@std@@@Z 0000000180006850 f i entry.obj
 0001:00005ce0       ?Tab@CBuilder@FGUI@@QEAAAEAV12@V?$basic_string@DU?$char_traits@D@std@@V?$allocator@D@2@@std@@@Z 0000000180006ce0 f i entry.obj
 0001:00005e80       ?SpawnIn@CBuilder@FGUI@@QEAAAEAV12@V?$shared_ptr@VCContainer@FGUI@@@std@@_N@Z 0000000180006e80 f i entry.obj
 0001:00005f20       ??1?$function@$$A6A_NHW4parse_event_t@detail@nlohmann@@AEAV?$basic_json@Vmap@std@@Vvector@2@V?$basic_string@DU?$char_traits@D@std@@V?$allocator@D@2@@2@_N_J_KNVallocator@2@Uadl_serializer@nlohmann@@V?$vector@EV?$allocator@E@std@@@2@@3@@Z@std@@QEAA@XZ 0000000180006f20 f i container.obj
 0001:00005f20       ??1?$function@$$A6AXXZ@std@@QEAA@XZ 0000000180006f20 f i entry.obj
 0001:00005f20       ??1?$_Func_class@X$$V@std@@QEAA@XZ 0000000180006f20 f i entry.obj
 0001:00005f20       ??1?$_Func_class@_NHW4parse_event_t@detail@nlohmann@@AEAV?$basic_json@Vmap@std@@Vvector@2@V?$basic_string@DU?$char_traits@D@std@@V?$allocator@D@2@@2@_N_J_KNVallocator@2@Uadl_serializer@nlohmann@@V?$vector@EV?$allocator@E@std@@@2@@3@@std@@QEAA@XZ 0000000180006f20 f i container.obj
 0001:00005f50       ?PullInput@FGUI_INPUT_WIN32@@YAXXZ 0000000180006f50 f i entry.obj
 0001:00006030       ?IsKeyHeld@FGUI_INPUT_WIN32@@YA_NI@Z 0000000180007030 f i entry.obj
 0001:00006060       ?IsKeyReleased@FGUI_INPUT_WIN32@@YA_NI@Z 0000000180007060 f i entry.obj
 0001:000060a0       ?IsKeyPressed@FGUI_INPUT_WIN32@@YA_NI@Z 00000001800070a0 f i entry.obj
 0001:000060e0       ?GetCursorPos@FGUI_INPUT_WIN32@@YA?AUSPoint_t@FGUI@@XZ 00000001800070e0 f i entry.obj
 0001:000060f0       ?GetCursorPosDelta@FGUI_INPUT_WIN32@@YA?AUSPoint_t@FGUI@@XZ 00000001800070f0 f i entry.obj
 0001:00006100       ?IsCursorInArea@FGUI_INPUT_WIN32@@YA_NUSArea_t@FGUI@@@Z 0000000180007100 f i entry.obj
 0001:00006140       ?CreateFontA@FGUI_D3D11@@YAXAEAPEAUCFont@FGUI@@V?$basic_string@DU?$char_traits@D@std@@V?$allocator@D@2@@std@@HH_N@Z 0000000180007140 f i entry.obj
 0001:00006230       ?GetScreenSize@FGUI_D3D11@@YA?AUSDimension_t@FGUI@@XZ 0000000180007230 f i entry.obj
 0001:00006250       ?GetTextSize@FGUI_D3D11@@YA?AUSDimension_t@FGUI@@PEAUCFont@3@V?$basic_string@DU?$char_traits@D@std@@V?$allocator@D@2@@std@@@Z 0000000180007250 f i entry.obj
 0001:00006320       ?Text@FGUI_D3D11@@YAXHHPEAUCFont@FGUI@@USColor_t@3@V?$basic_string@DU?$char_traits@D@std@@V?$allocator@D@2@@std@@@Z 0000000180007320 f i entry.obj
 0001:000064f0       ?Rectangle@FGUI_D3D11@@YAXHHHHUSColor_t@FGUI@@@Z 00000001800074f0 f i entry.obj
 0001:00006620       ?Outline@FGUI_D3D11@@YAXHHHHUSColor_t@FGUI@@@Z 0000000180007620 f i entry.obj
 0001:000066c0       ?Line@FGUI_D3D11@@YAXHHHHUSColor_t@FGUI@@@Z 00000001800076c0 f i entry.obj
 0001:000067f0       ?Gradient@FGUI_D3D11@@YAXHHHHUSColor_t@FGUI@@0_N@Z 00000001800077f0 f i entry.obj
 0001:00006a20       ??1?$shared_ptr@VCColorPicker@FGUI@@@std@@QEAA@XZ 0000000180007a20 f i entry.obj
 0001:00006a20       ??1?$shared_ptr@VCButton@FGUI@@@std@@QEAA@XZ 0000000180007a20 f i entry.obj
 0001:00006a20       ??1?$shared_ptr@VCSlider@FGUI@@@std@@QEAA@XZ 0000000180007a20 f i entry.obj
 0001:00006a20       ??1?$shared_ptr@VCLabel@FGUI@@@std@@QEAA@XZ 0000000180007a20 f i entry.obj
 0001:00006a20       ??1?$shared_ptr@VCTextBox@FGUI@@@std@@QEAA@XZ 0000000180007a20 f i entry.obj
 0001:00006a20       ??1?$shared_ptr@VCCheckBox@FGUI@@@std@@QEAA@XZ 0000000180007a20 f i entry.obj
 0001:00006a20       ??1?$output_adapter@DV?$basic_string@DU?$char_traits@D@std@@V?$allocator@D@2@@std@@@detail@nlohmann@@QEAA@XZ 0000000180007a20 f i container.obj
 0001:00006a20       ??1?$shared_ptr@VCTabPanel@FGUI@@@std@@QEAA@XZ 0000000180007a20 f i entry.obj
 0001:00006a20       ??1?$shared_ptr@VCContainer@FGUI@@@std@@QEAA@XZ 0000000180007a20 f i entry.obj
 0001:00006a20       ??1?$shared_ptr@VCMultiBox@FGUI@@@std@@QEAA@XZ 0000000180007a20 f i entry.obj
 0001:00006a20       ??1?$shared_ptr@VCKeyBinder@FGUI@@@std@@QEAA@XZ 0000000180007a20 f i entry.obj
 0001:00006a20       ??1CBuilder@FGUI@@QEAA@XZ  0000000180007a20 f i entry.obj
 0001:00006a20       ??1?$shared_ptr@VCListBox@FGUI@@@std@@QEAA@XZ 0000000180007a20 f i entry.obj
 0001:00006a20       ??1?$shared_ptr@VCWidgets@FGUI@@@std@@QEAA@XZ 0000000180007a20 f i entry.obj
 0001:00006a20       ??1?$shared_ptr@VCComboBox@FGUI@@@std@@QEAA@XZ 0000000180007a20 f i entry.obj
 0001:00006a20       ??1?$shared_ptr@U?$output_adapter_protocol@D@detail@nlohmann@@@std@@QEAA@XZ 0000000180007a20 f i container.obj
 0001:00006a70       ?is_menu_open@ui@plusminus@@YA_NXZ 0000000180007a70 f   entry.obj
 0001:00006a80       ?get_bool@ui@plusminus@@YA_NV?$basic_string@DU?$char_traits@D@std@@V?$allocator@D@2@@std@@@Z 0000000180007a80 f   entry.obj
 0001:00006bc0       ?get_combobox@ui@plusminus@@YA_KV?$basic_string@DU?$char_traits@D@std@@V?$allocator@D@2@@std@@@Z 0000000180007bc0 f   entry.obj
 0001:00006d00       ?get_float@ui@plusminus@@YAMV?$basic_string@DU?$char_traits@D@std@@V?$allocator@D@2@@std@@@Z 0000000180007d00 f   entry.obj
 0001:00006e50       ?get_text@ui@plusminus@@YA?AV?$basic_string@DU?$char_traits@D@std@@V?$allocator@D@2@@std@@V34@@Z 0000000180007e50 f   entry.obj
 0001:00006f90       ?get_color@ui@plusminus@@YA?AVColor3@@V?$basic_string@DU?$char_traits@D@std@@V?$allocator@D@2@@std@@@Z 0000000180007f90 f   entry.obj
 0001:00007100       ?get_keybind@ui@plusminus@@YAIV?$basic_string@DU?$char_traits@D@std@@V?$allocator@D@2@@std@@@Z 0000000180008100 f   entry.obj
 0001:00007240       ?create_window@wrapper@ui@plusminus@@YAXV?$basic_string@DU?$char_traits@D@std@@V?$allocator@D@2@@std@@VVector2@@1I@Z 0000000180008240 f   entry.obj
 0001:000074c0       ?button@wrapper@ui@plusminus@@YAXV?$basic_string@DU?$char_traits@D@std@@V?$allocator@D@2@@std@@V?$function@$$A6AXXZ@5@VVector2@@W4Tabs@23@@Z 00000001800084c0 f   entry.obj
 0001:00007860       ?checkbox@wrapper@ui@plusminus@@YAXV?$basic_string@DU?$char_traits@D@std@@V?$allocator@D@2@@std@@VVector2@@W4Tabs@23@_N31@Z 0000000180008860 f   entry.obj
 0001:000080c0       ?label@wrapper@ui@plusminus@@YAXV?$basic_string@DU?$char_traits@D@std@@V?$allocator@D@2@@std@@VVector2@@W4Tabs@23@_N@Z 00000001800090c0 f   entry.obj
 0001:00008400       ?color_picker@wrapper@ui@plusminus@@YAXV?$basic_string@DU?$char_traits@D@std@@V?$allocator@D@2@@std@@VVector2@@W4Tabs@23@@Z 0000000180009400 f   entry.obj
 0001:00008690       ?textbox@wrapper@ui@plusminus@@YAXV?$basic_string@DU?$char_traits@D@std@@V?$allocator@D@2@@std@@VVector2@@W4Tabs@23@0@Z 0000000180009690 f   entry.obj
 0001:00008a40       ?combobox@wrapper@ui@plusminus@@YAXV?$basic_string@DU?$char_traits@D@std@@V?$allocator@D@2@@std@@V?$vector@V?$basic_string@DU?$char_traits@D@std@@V?$allocator@D@2@@std@@V?$allocator@V?$basic_string@DU?$char_traits@D@std@@V?$allocator@D@2@@std@@@2@@5@VVector2@@W4Tabs@23@@Z 0000000180009a40 f   entry.obj
 0001:00009050       ?keybind@wrapper@ui@plusminus@@YAXV?$basic_string@DU?$char_traits@D@std@@V?$allocator@D@2@@std@@VVector2@@W4Tabs@23@@Z 000000018000a050 f   entry.obj
 0001:000092e0       ?slider@wrapper@ui@plusminus@@YAXV?$basic_string@DU?$char_traits@D@std@@V?$allocator@D@2@@std@@VVector2@@MMMW4Tabs@23@@Z 000000018000a2e0 f   entry.obj
 0001:000096f0       ?tabs@wrapper@ui@plusminus@@YAXV?$vector@V?$basic_string@DU?$char_traits@D@std@@V?$allocator@D@2@@std@@V?$allocator@V?$basic_string@DU?$char_traits@D@std@@V?$allocator@D@2@@std@@@2@@std@@@Z 000000018000a6f0 f   entry.obj
 0001:00009b20       ?OnSetupDevice@ui@plusminus@@YAXXZ 000000018000ab20 f i entry.obj
 0001:00015e00       ??R<lambda_1>@?1??OnSetupDevice@ui@plusminus@@YAXXZ@QEBA@XZ 0000000180016e00 f i entry.obj
 0001:00016210       ??R<lambda_2>@?1??OnSetupDevice@ui@plusminus@@YAXXZ@QEBA@XZ 0000000180017210 f i entry.obj
 0001:00016620       ?compute@crcdetail@@YAIPEBDII@Z 0000000180017620 f i entry.obj
 0001:00016670       ?New@String@System@@SAPEAV12@PEBD@Z 0000000180017670 f i entry.obj
 0001:00016710       ?name@Il2CppType@@QEAAPEADXZ 0000000180017710 f i entry.obj
 0001:000167d0       ?paramCount@Il2CppMethod@@QEAAIXZ 00000001800177d0 f i entry.obj
 0001:00016900       ?retType@Il2CppMethod@@QEAAPEAVIl2CppType@@XZ 0000000180017900 f i entry.obj
 0001:00016a30       ?getParam@Il2CppMethod@@QEAAPEAVIl2CppType@@I@Z 0000000180017a30 f i entry.obj
 0001:00016b30       ?name@Il2CppMethod@@QEAAPEADXZ 0000000180017b30 f i entry.obj
 0001:00016c10       ?name@Il2CppField@@QEAAPEADXZ 0000000180017c10 f i entry.obj
 0001:00016ce0       ?offset@Il2CppField@@QEAAIXZ 0000000180017ce0 f i entry.obj
 0001:00016dd0       ?methods@Il2CppClass@@QEAAPEAVIl2CppMethod@@PEAX@Z 0000000180017dd0 f i entry.obj
 0001:00016ee0       ?fields@Il2CppClass@@QEAAPEAVIl2CppField@@PEAX@Z 0000000180017ee0 f i entry.obj
 0001:00016fe0       ?classcount@Il2CppImage@@QEAA_KXZ 0000000180017fe0 f i entry.obj
 0001:00017110       ?get_class@Il2CppImage@@QEAAPEAVIl2CppClass@@_K@Z 0000000180018110 f i entry.obj
 0001:00017200       ?assemblyCount@Il2CppDomain@@QEAA_KXZ 0000000180018200 f i entry.obj
 0001:00017360       ?assemblies@Il2CppDomain@@QEAAPEAPEAVIl2CppAssembly@@XZ 0000000180018360 f i entry.obj
 0001:000174c0       ?il2cpp_domain_get@@YAPEAVIl2CppDomain@@XZ 00000001800184c0 f   entry.obj
 0001:00017550       ?klass@@YAPEAVIl2CppClass@@I@Z 0000000180018550 f   entry.obj
 0001:00017db0       ?field@@YA_KI@Z            0000000180018db0 f   entry.obj
 0001:00018800       ?method@@YA_KI@Z           0000000180019800 f   entry.obj
 0001:00019780       ?init_classes@@YAXXZ       000000018001a780 f   entry.obj
 0001:00019f00       ?init_methods@@YAXXZ       000000018001af00 f   entry.obj
 0001:0001ae60       ?init_fields@@YAXXZ        000000018001be60 f   entry.obj
 0001:0001b7b0       ?empty@box_bounds@@QEAA_NXZ 000000018001c7b0 f i entry.obj
 0001:0001b830       ?GetType@Type@@SAPEAV1@PEBD@Z 000000018001c830 f i entry.obj
 0001:0001b8c0       ?transform@Component@@QEAAPEAVTransform@@XZ 000000018001c8c0 f i entry.obj
 0001:0001b940       ?class_name_hash@Component@@QEAAIXZ 000000018001c940 f i entry.obj
 0001:0001b9b0       ?IsPlayer@Component@@QEAA_NXZ 000000018001c9b0 f i entry.obj
 0001:0001c0e0       ?layer@GameObject@@QEAAHXZ 000000018001d0e0 f i entry.obj
 0001:0001c160       ?position@Transform@@QEAA?AVVector3@@XZ 000000018001d160 f i entry.obj
 0001:0001c220       ?up@Transform@@QEAA?AVVector3@@XZ 000000018001d220 f i entry.obj
 0001:0001c2e0       ?Entity@LocalPlayer@@SAPEAVBasePlayer@@XZ 000000018001d2e0 f i entry.obj
 0001:0001c350       ?entityList@EntityRealm@BaseNetworkable@@QEAAAEAPEAVListDictionary@@XZ 000000018001d350 f i entry.obj
 0001:0001c400       ?IsDestroyed@BaseNetworkable@@QEAA_NXZ 000000018001d400 f i entry.obj
 0001:0001c480       ?clientEntities@BaseNetworkable@@SAPEAVEntityRealm@1@XZ 000000018001d480 f i entry.obj
 0001:0001c4f0       ?ShortPrefabName_hash@BaseNetworkable@@QEAAIXZ 000000018001d4f0 f i entry.obj
 0001:0001c5e0       ?net@BaseNetworkable@@QEAAAEAPEAVNetworkable@@XZ 000000018001d5e0 f i entry.obj
 0001:0001c690       ?IsValid@BaseEntity@@QEAA_NXZ 000000018001d690 f i entry.obj
 0001:0001c790       ?model@BaseEntity@@QEAAAEAPEAVModel@@XZ 000000018001d790 f i entry.obj
 0001:0001c840       ?HasFlag@BaseEntity@@QEAA_NW4Flags@1@@Z 000000018001d840 f   entry.obj
 0001:0001c8f0       ?LineOfSight@@YA_NVVector3@@0@Z 000000018001d8f0 f   entry.obj
 0001:0001ca80       ?health@BaseCombatEntity@@QEAAAEAMXZ 000000018001da80 f i entry.obj
 0001:0001cb30       ?TargetMovement@BaseMovement@@QEAAAEAVVector3@@XZ 000000018001db30 f i entry.obj
 0001:0001cbe0       ?Ducking@BaseMovement@@QEAAAEAMXZ 000000018001dbe0 f i entry.obj
 0001:0001cc90       ?body@PlayerWalkMovement@@QEAAAEAPEAVRigidBody@@XZ 000000018001dc90 f i entry.obj
 0001:0001cd40       ?swimming@PlayerWalkMovement@@QEAAAEA_NXZ 000000018001dd40 f i entry.obj
 0001:0001cdf0       ?english@Phrase@@QEAAPEB_WXZ 000000018001ddf0 f i entry.obj
 0001:0001ce80       ?displayName@ItemDefinition@@QEAAAEAPEAVPhrase@@XZ 000000018001de80 f i entry.obj
 0001:0001cf30       ?uid@Item@@QEAAAEAIXZ      000000018001df30 f i entry.obj
 0001:0001cfe0       ?amount@Item@@QEAAAEAHXZ   000000018001dfe0 f i entry.obj
 0001:0001d090       ?info@Item@@QEAAAEAPEAVItemDefinition@@XZ 000000018001e090 f i entry.obj
 0001:0001d140       ?itemList@ItemContainer@@QEAAAEAPEAU?$List@PEAVItem@@@System@@XZ 000000018001e140 f i entry.obj
 0001:0001d1f0       ?containerBelt@PlayerInventory@@QEAAAEAPEAVItemContainer@@XZ 000000018001e1f0 f i entry.obj
 0001:0001d2a0       ?viewOffset@PlayerEyes@@QEAAAEAVVector3@@XZ 000000018001e2a0 f i entry.obj
 0001:0001d350       ?flags@ModelState@@QEAAAEAHXZ 000000018001e350 f i entry.obj
 0001:0001d400       ?Get@StringPool@@SAIPEBD@Z 000000018001e400 f i entry.obj
 0001:0001d490       ?HitEntity@HitTest@@QEAAAEAPEAVBaseNetworkable@@XZ 000000018001e490 f i entry.obj
 0001:0001d540       ?HitPoint@HitTest@@QEAAAEAVVector3@@XZ 000000018001e540 f i entry.obj
 0001:0001d5f0       ?HitTransform@HitTest@@QEAAAEAPEAVTransform@@XZ 000000018001e5f0 f i entry.obj
 0001:0001d6a0       ?HitMaterial@HitTest@@QEAAAEAPEAVString@System@@XZ 000000018001e6a0 f i entry.obj
 0001:0001d750       ?IgnoreLayerCollision@Physics@@SAXHH_N@Z 000000018001e750 f i entry.obj
 0001:0001d930       ?thickness@Projectile@@QEAAAEAMXZ 000000018001e930 f i entry.obj
 0001:0001d9e0       ?isAuthoritative@Projectile@@QEAA_NXZ 000000018001e9e0 f i entry.obj
 0001:0001da60       ?contents@Magazine@BaseProjectile@@QEAAAEAHXZ 000000018001ea60 f i entry.obj
 0001:0001db10       ?primaryMagazine@BaseProjectile@@QEAAAEAPEAVMagazine@1@XZ 000000018001eb10 f i entry.obj
 0001:0001dbc0       ?nextReloadTime@BaseProjectile@@QEAAAEAMXZ 000000018001ebc0 f i entry.obj
 0001:0001dc70       ?reloadTime@BaseProjectile@@QEAAAEAMXZ 000000018001ec70 f i entry.obj
 0001:0001dd20       ?Empty@BaseProjectile@@QEAA_NXZ 000000018001ed20 f i entry.obj
 0001:0001de00       ?CalculateCooldownTime@BaseProjectile@@QEAAMMM@Z 000000018001ee00 f i entry.obj
 0001:0001de40       ?_fov@Graphics@ConVar@@SAAEAMXZ 000000018001ee40 f i entry.obj
 0001:0001deb0       ?isNpc@PlayerModel@@QEAA_NXZ 000000018001eeb0 f i entry.obj
 0001:0001df30       ??0BoneCache@@QEAA@XZ      000000018001ef30 f i entry.obj
 0001:0001e320       ?hitBone@Attack@@QEAAAEAIXZ 000000018001f320 f i entry.obj
 0001:0001e3d0       ?hitPositionWorld@Attack@@QEAAAEAVVector3@@XZ 000000018001f3d0 f i entry.obj
 0001:0001e480       ?_displayName@BasePlayer@@QEAAPEB_WXZ 000000018001f480 f i entry.obj
 0001:0001e510       ?userID@BasePlayer@@QEAAAEA_KXZ 000000018001f510 f i entry.obj
 0001:0001e5c0       ?mounted@BasePlayer@@QEAAAEAPEAVBaseMountable@@XZ 000000018001f5c0 f i entry.obj
 0001:0001e670       ?movement@BasePlayer@@QEAAAEAPEAVPlayerWalkMovement@@XZ 000000018001f670 f i entry.obj
 0001:0001e720       ?modelState@BasePlayer@@QEAAAEAPEAVModelState@@XZ 000000018001f720 f i entry.obj
 0001:0001e7d0       ?playerModel@BasePlayer@@QEAAAEAPEAVPlayerModel@@XZ 000000018001f7d0 f i entry.obj
 0001:0001e880       ?playerFlags@BasePlayer@@QEAAAEAW4PlayerFlags@@XZ 000000018001f880 f i entry.obj
 0001:0001e930       ?inventory@BasePlayer@@QEAAAEAPEAVPlayerInventory@@XZ 000000018001f930 f i entry.obj
 0001:0001e9e0       ?clActiveItem@BasePlayer@@QEAAAEAIXZ 000000018001f9e0 f i entry.obj
 0001:0001ea90       ?eyes@BasePlayer@@QEAAAEAPEAVPlayerEyes@@XZ 000000018001fa90 f i entry.obj
 0001:0001eb40       ?clientTickInterval@BasePlayer@@QEAAAEAMXZ 000000018001fb40 f i entry.obj
 0001:0001ebf0       ?IsDucked@BasePlayer@@QEAA_NXZ 000000018001fbf0 f i entry.obj
 0001:0001ec60       ?find_mpv_bone@BasePlayer@@QEAAPEAVBone@@XZ 000000018001fc60 f i entry.obj
 0001:0001ed90       ?HasPlayerFlag@BasePlayer@@QEAA_NW4PlayerFlags@@@Z 000000018001fd90 f i entry.obj
 0001:0001edc0       ?GetMaxSpeed@BasePlayer@@QEAAMXZ 000000018001fdc0 f i entry.obj
 0001:0001ee50       ?isCached@BasePlayer@@QEAA_NXZ 000000018001fe50 f i entry.obj
 0001:0001eed0       ?is_teammate@BasePlayer@@QEAA_NXZ 000000018001fed0 f i entry.obj
 0001:0001f040       ?midPoint@BasePlayer@@QEAA?AVVector3@@XZ 0000000180020040 f i entry.obj
 0001:0001f170       ?is_visible@BasePlayer@@QEAA_NXZ 0000000180020170 f i entry.obj
 0001:0001f300       ?bones@BasePlayer@@QEAAPEAVBoneCache@@XZ 0000000180020300 f i entry.obj
 0001:0001f3c0       ?GetHeldItem@BasePlayer@@QEAAPEAVItem@@XZ 00000001800203c0 f i entry.obj
 0001:0001f480       ?boneTransforms@Model@@QEAAAEAPEAV?$Array@PEAVTransform@@@System@@XZ 0000000180020480 f i entry.obj
 0001:0001f530       ?boneNames@Model@@QEAAAEAPEAV?$Array@PEAVString@System@@@System@@XZ 0000000180020530 f i entry.obj
 0001:0001f5e0       ?resolve@Model@@QEAAPEAVBone@@I@Z 00000001800205e0 f i entry.obj
 0001:0001fb60       ?find_bone@Model@@QEAA?AU?$pair@PEAVTransform@@_N@std@@VVector3@@@Z 0000000180020b60 f i entry.obj
 0001:0001fe30       ?GetCamera@Camera@@SA_KXZ  0000000180020e30 f i entry.obj
 0001:000200b0       ?world_to_screen@Camera@@SA_NVVector3@@AEAVVector2@@@Z 00000001800210b0 f i entry.obj
 0001:00020210       ?getViewMatrix@Camera@@SA?AVMatrix@@XZ 0000000180021210 f i entry.obj
 0001:000202e0       ?get_bounds@bonecache@@YA?AUbox_bounds@@PEAVBasePlayer@@M@Z 00000001800212e0 f   entry.obj
 0001:000205a0       ?cachePlayer@bonecache@@YAXPEAVBasePlayer@@@Z 00000001800215a0 f   entry.obj
 0001:00020b50       ?find_manipulate_angle@other@@YAXXZ 0000000180021b50 f   entry.obj
 0001:00021370       ?euler_angles@math@@YA?AVVector3@@VQuaternion@@@Z 0000000180022370 f   entry.obj
 0001:000216b0       ?rotate_point@math@@YA?AVVector3@@V2@0M@Z 00000001800226b0 f   entry.obj
 0001:00021760       ?belt_tab_mov@belt@entities@@YAXVVector2@@@Z 0000000180022760 f   entry.obj
 0001:00021870       ?dfc@entities@@YAMPEAVBasePlayer@@@Z 0000000180022870 f   entry.obj
 0001:000219b0       ?get_color@entities@@YA?AVColor3@@PEAVBasePlayer@@_N@Z 00000001800229b0 f   entry.obj
 0001:00021d40       ?loop@entities@@YAXXZ      0000000180022d40 f   entry.obj
 0001:0002cfd0       ??0CBounds@@QEAA@XZ        000000018002dfd0 f i entry.obj
 0001:0002cff0       ?present_hook@d3d@@YAJPEAUIDXGISwapChain@@II@Z 000000018002dff0 f   entry.obj
 0001:0002d9b0       ?resize_hook@d3d@@YAJPEAUIDXGISwapChain@@IIIW4DXGI_FORMAT@@I@Z 000000018002e9b0 f   entry.obj
 0001:0002da60       ?init@d3d@@YA_NXZ          000000018002ea60 f   entry.obj
 0001:0002dcb0       ?get_prediction@aimutils@@YA?AVVector3@@XZ 000000018002ecb0 f   entry.obj
 0001:0002e860       ?ClientUpdate_hk@@YAXPEAVBasePlayer@@@Z 000000018002f860 f   entry.obj
 0001:0002ea50       ?ClientUpdate_Sleeping_hk@@YAXPEAVBasePlayer@@@Z 000000018002fa50 f   entry.obj
 0001:0002ec40       ?GetModifiedAimConeDirection_hk@@YA?AVVector3@@MV1@_N@Z 000000018002fc40 f   entry.obj
 0001:0002eff0       ?BuildAttackMessage_hk@@YAPEAVAttack@@PEAVHitTest@@@Z 000000018002fff0 f   entry.obj
 0001:0002ff70       ?DoAttack_hk@@YAXPEAVFlintStrikeWeapon@@@Z 0000000180030f70 f   entry.obj
 0001:00030100       ?BodyLeanOffset_hk@@YA?AVVector3@@PEAVPlayerEyes@@@Z 0000000180031100 f   entry.obj
 0001:00030420       ?DoFirstPersonCamera_hk@@YAXPEAVPlayerEyes@@PEAVComponent@@@Z 0000000180031420 f   entry.obj
 0001:000308c0       ?CanAttack_hk@@YA_NPEAVBasePlayer@@@Z 00000001800318c0 f   entry.obj
 0001:00030970       ?UpdateVelocity_hk@@YAXPEAVPlayerWalkMovement@@@Z 0000000180031970 f   entry.obj
 0001:00030da0       ?EyePositionForPlayer_hk@@YA?AVVector3@@PEAVBaseMountable@@PEAVBasePlayer@@VQuaternion@@@Z 0000000180031da0 f   entry.obj
 0001:00031020       ?HandleJumping_hk@@YAXPEAVPlayerWalkMovement@@PEAVModelState@@_N2@Z 0000000180032020 f   entry.obj
 0001:000315c0       ?OnLand_hk@@YAXPEAVBasePlayer@@M@Z 00000001800325c0 f   entry.obj
 0001:00031670       ?IsDown_hk@@YA_NPEAVInputState@@W4BUTTON@@@Z 0000000180032670 f   entry.obj
 0001:00031b40       ?OnAttacked_hk@@YAXPEAVBaseCombatEntity@@PEAVHitInfo@@@Z 0000000180032b40 f   entry.obj
 0001:00031b50       ?ClientInput_hk@@YAXPEAVBasePlayer@@_K@Z 0000000180032b50 f   entry.obj
 0001:000335c0       ?DoMovement_hk@@YAXPEAVProjectile@@M@Z 00000001800345c0 f   entry.obj
 0001:00033700       ?GetRandomVelocity_hk@@YAMPEAVItemModProjectile@@@Z 0000000180034700 f   entry.obj
 0001:000337c0       ?ProcessAttack_hk@@YAXPEAVBaseMelee@@PEAVHitTest@@@Z 00000001800347c0 f   entry.obj
 0001:00033eb0       ?AddPunch_hk@@YAXPEAVHeldEntity@@VVector3@@M@Z 0000000180034eb0 f   entry.obj
 0001:00033ff0       ?MoveTowards_hk@@YA?AVVector3@@V1@0M@Z 0000000180034ff0 f   entry.obj
 0001:00034240       ?DoHit_hk@@YA_NPEAVProjectile@@PEAVHitTest@@VVector3@@2@Z 0000000180035240 f   entry.obj
 0001:00034ad0       ?SetEffectScale_hk@@YAXPEAVProjectile@@M@Z 0000000180035ad0 f   entry.obj
 0001:00034bc0       ?StartCoroutine_hk@@YAPEAVObject_@System@@PEAVMonoBehaviour@@PEAV12@@Z 0000000180035bc0 f   entry.obj
 0001:00034d40       ?BobApply_hk@@YAXPEAVViewmodelBob@@_KM@Z 0000000180035d40 f   entry.obj
 0001:00034e20       ?SwayApply_hk@@YAXPEAVViewmodelSway@@_K@Z 0000000180035e20 f   entry.obj
 0001:00034ee0       ?LowerApply_hk@@YAXPEAVViewmodelLower@@_K@Z 0000000180035ee0 f   entry.obj
 0001:00034fa0       ?ConsoleRun_hk@@YAPEAVString@System@@PEAUOption@ConsoleSystem@@PEAV12@PEAV?$Array@PEAVObject_@System@@@2@@Z 0000000180035fa0 f   entry.obj
 0001:00035500       ?set_flying_hk@@YAXPEAVModelState@@_N@Z 0000000180036500 f   entry.obj
 0001:00035510       ?do_hooks@@YAXXZ           0000000180036510 f   entry.obj
 0001:000359d0       ?undo_hooks@@YAXXZ         00000001800369d0 f   entry.obj
 0001:00035e70       ?entry_thread@@YAXXZ       0000000180036e70 f   entry.obj
 0001:000369c0       ??_D?$basic_ifstream@DU?$char_traits@D@std@@@std@@QEAAXXZ 00000001800379c0 f i entry.obj
 0001:00036a60       DllMain                    0000000180037a60 f   entry.obj
 0001:00036aa0       ?imbue@?$basic_filebuf@DU?$char_traits@D@std@@@std@@MEAAXAEBVlocale@2@@Z 0000000180037aa0 f i entry.obj
 0001:00036ad0       ?sync@?$basic_filebuf@DU?$char_traits@D@std@@@std@@MEAAHXZ 0000000180037ad0 f i entry.obj
 0001:00036b20       ?setbuf@?$basic_filebuf@DU?$char_traits@D@std@@@std@@MEAAPEAV?$basic_streambuf@DU?$char_traits@D@std@@@2@PEAD_J@Z 0000000180037b20 f i entry.obj
 0001:00036b80       ?seekpos@?$basic_filebuf@DU?$char_traits@D@std@@@std@@MEAA?AV?$fpos@U_Mbstatet@@@2@V32@H@Z 0000000180037b80 f i entry.obj
 0001:00036c60       ?seekoff@?$basic_filebuf@DU?$char_traits@D@std@@@std@@MEAA?AV?$fpos@U_Mbstatet@@@2@_JHH@Z 0000000180037c60 f i entry.obj
 0001:00036d70       ?xsputn@?$basic_filebuf@DU?$char_traits@D@std@@@std@@MEAA_JPEBD_J@Z 0000000180037d70 f i entry.obj
 0001:00036ea0       ?xsgetn@?$basic_filebuf@DU?$char_traits@D@std@@@std@@MEAA_JPEAD_J@Z 0000000180037ea0 f i entry.obj
 0001:00037050       ?uflow@?$basic_filebuf@DU?$char_traits@D@std@@@std@@MEAAHXZ 0000000180038050 f i entry.obj
 0001:00037320       ?underflow@?$basic_filebuf@DU?$char_traits@D@std@@@std@@MEAAHXZ 0000000180038320 f i entry.obj
 0001:00037390       ?pbackfail@?$basic_filebuf@DU?$char_traits@D@std@@@std@@MEAAHH@Z 0000000180038390 f i entry.obj
 0001:00037470       ?overflow@?$basic_filebuf@DU?$char_traits@D@std@@@std@@MEAAHH@Z 0000000180038470 f i entry.obj
 0001:00037610       ?_Unlock@?$basic_filebuf@DU?$char_traits@D@std@@@std@@UEAAXXZ 0000000180038610 f i entry.obj
 0001:00037630       ?_Lock@?$basic_filebuf@DU?$char_traits@D@std@@@std@@UEAAXXZ 0000000180038630 f i entry.obj
 0001:00037650       ??1?$basic_filebuf@DU?$char_traits@D@std@@@std@@UEAA@XZ 0000000180038650 f i entry.obj
 0001:00037780       ??0?$basic_ifstream@DU?$char_traits@D@std@@@std@@QEAA@AEBV?$basic_string@DU?$char_traits@D@std@@V?$allocator@D@2@@1@HH@Z 0000000180038780 f i entry.obj
 0001:000378d0       ?dec@?$wstring@$08$0BEN@@xorstr_impl@@AEBA_W_W@Z 00000001800388d0 f i entry.obj
 0001:000378d0       ?dec@?$wstring@$0BD@$0BEB@@xorstr_impl@@AEBA_W_W@Z 00000001800388d0 f i entry.obj
 0001:000378d0       ?enc@?$wstring@$0BD@$0BEF@@xorstr_impl@@AEBA_W_W@Z 00000001800388d0 f i entry.obj
 0001:000378d0       ?enc@?$wstring@$0BD@$0BDI@@xorstr_impl@@AEBA_W_W@Z 00000001800388d0 f i entry.obj
 0001:000378d0       ?dec@?$wstring@$0N@$0BGB@@xorstr_impl@@AEBA_W_W@Z 00000001800388d0 f i entry.obj
 0001:000378d0       ?enc@?$wstring@$0BB@$0BGK@@xorstr_impl@@AEBA_W_W@Z 00000001800388d0 f i entry.obj
 0001:000378d0       ?dec@?$wstring@$08$0BFO@@xorstr_impl@@AEBA_W_W@Z 00000001800388d0 f i entry.obj
 0001:000378d0       ?dec@?$wstring@$0CB@$0BFL@@xorstr_impl@@AEBA_W_W@Z 00000001800388d0 f i entry.obj
 0001:000378d0       ?dec@?$wstring@$0BP@$0BFJ@@xorstr_impl@@AEBA_W_W@Z 00000001800388d0 f i entry.obj
 0001:000378d0       ?dec@?$wstring@$0BB@$0BGG@@xorstr_impl@@AEBA_W_W@Z 00000001800388d0 f i entry.obj
 0001:000378d0       ?dec@?$wstring@$0L@$0BFH@@xorstr_impl@@AEBA_W_W@Z 00000001800388d0 f i entry.obj
 0001:000378d0       ?enc@?$wstring@$0BD@$0BDN@@xorstr_impl@@AEBA_W_W@Z 00000001800388d0 f i entry.obj
 0001:000378d0       ?enc@?$wstring@$0BF@$0BFF@@xorstr_impl@@AEBA_W_W@Z 00000001800388d0 f i entry.obj
 0001:000378d0       ?enc@?$wstring@$0BP@$0BFJ@@xorstr_impl@@AEBA_W_W@Z 00000001800388d0 f i entry.obj
 0001:000378d0       ?enc@?$wstring@$0L@$0BEK@@xorstr_impl@@AEBA_W_W@Z 00000001800388d0 f i entry.obj
 0001:000378d0       ?enc@?$wstring@$0N@$0BGB@@xorstr_impl@@AEBA_W_W@Z 00000001800388d0 f i entry.obj
 0001:000378d0       ?dec@?$wstring@$0BF@$0BFF@@xorstr_impl@@AEBA_W_W@Z 00000001800388d0 f i entry.obj
 0001:000378d0       ?enc@?$wstring@$08$0BEN@@xorstr_impl@@AEBA_W_W@Z 00000001800388d0 f i entry.obj
 0001:000378d0       ?enc@?$wstring@$0BB@$0BDC@@xorstr_impl@@AEBA_W_W@Z 00000001800388d0 f i entry.obj
 0001:000378d0       ?enc@?$wstring@$0L@$0BFH@@xorstr_impl@@AEBA_W_W@Z 00000001800388d0 f i entry.obj
 0001:000378d0       ?enc@?$wstring@$08$0BEP@@xorstr_impl@@AEBA_W_W@Z 00000001800388d0 f i entry.obj
 0001:000378d0       ?dec@?$wstring@$0BF@$0BED@@xorstr_impl@@AEBA_W_W@Z 00000001800388d0 f i entry.obj
 0001:000378d0       ?dec@?$wstring@$06$0BDA@@xorstr_impl@@AEBA_W_W@Z 00000001800388d0 f i entry.obj
 0001:000378d0       ?enc@?$wstring@$08$0BFO@@xorstr_impl@@AEBA_W_W@Z 00000001800388d0 f i entry.obj
 0001:000378d0       ?enc@?$wstring@$0BF@$0BFD@@xorstr_impl@@AEBA_W_W@Z 00000001800388d0 f i entry.obj
 0001:000378d0       ?enc@?$wstring@$0BD@$0BGI@@xorstr_impl@@AEBA_W_W@Z 00000001800388d0 f i entry.obj
 0001:000378d0       ?dec@?$wstring@$0L@$0BEK@@xorstr_impl@@AEBA_W_W@Z 00000001800388d0 f i entry.obj
 0001:000378d0       ?dec@?$wstring@$0BJ@$0BGM@@xorstr_impl@@AEBA_W_W@Z 00000001800388d0 f i entry.obj
 0001:000378d0       ?enc@?$wstring@$0BH@$0BGE@@xorstr_impl@@AEBA_W_W@Z 00000001800388d0 f i entry.obj
 0001:000378d0       ?enc@?$wstring@$0BF@$0BED@@xorstr_impl@@AEBA_W_W@Z 00000001800388d0 f i entry.obj
 0001:000378d0       ?dec@?$wstring@$0BH@$0BGE@@xorstr_impl@@AEBA_W_W@Z 00000001800388d0 f i entry.obj
 0001:000378d0       ?enc@?$wstring@$06$0BCP@@xorstr_impl@@AEBA_W_W@Z 00000001800388d0 f i entry.obj
 0001:000378d0       ?enc@?$wstring@$0BP@$0BFB@@xorstr_impl@@AEBA_W_W@Z 00000001800388d0 f i entry.obj
 0001:000378d0       ?dec@?$wstring@$0BD@$0BGI@@xorstr_impl@@AEBA_W_W@Z 00000001800388d0 f i entry.obj
 0001:000378d0       ?enc@?$wstring@$0BD@$0BEB@@xorstr_impl@@AEBA_W_W@Z 00000001800388d0 f i entry.obj
 0001:000378d0       ?dec@?$wstring@$0BB@$0BGK@@xorstr_impl@@AEBA_W_W@Z 00000001800388d0 f i entry.obj
 0001:000378d0       ?dec@?$wstring@$08$0BEP@@xorstr_impl@@AEBA_W_W@Z 00000001800388d0 f i entry.obj
 0001:000378d0       ?enc@?$wstring@$06$0BDA@@xorstr_impl@@AEBA_W_W@Z 00000001800388d0 f i entry.obj
 0001:000378d0       ?enc@?$wstring@$0BJ@$0BGM@@xorstr_impl@@AEBA_W_W@Z 00000001800388d0 f i entry.obj
 0001:000378d0       ?dec@?$wstring@$06$0BCP@@xorstr_impl@@AEBA_W_W@Z 00000001800388d0 f i entry.obj
 0001:000378d0       ?dec@?$wstring@$0BN@$0BEI@@xorstr_impl@@AEBA_W_W@Z 00000001800388d0 f i entry.obj
 0001:000378d0       ?dec@?$wstring@$0BP@$0BFB@@xorstr_impl@@AEBA_W_W@Z 00000001800388d0 f i entry.obj
 0001:000378d0       ?dec@?$wstring@$0BB@$0BDC@@xorstr_impl@@AEBA_W_W@Z 00000001800388d0 f i entry.obj
 0001:000378d0       ?dec@?$wstring@$0BD@$0BEF@@xorstr_impl@@AEBA_W_W@Z 00000001800388d0 f i entry.obj
 0001:000378d0       ?enc@?$wstring@$0BB@$0BGG@@xorstr_impl@@AEBA_W_W@Z 00000001800388d0 f i entry.obj
 0001:000378d0       ?dec@?$wstring@$0BD@$0BDN@@xorstr_impl@@AEBA_W_W@Z 00000001800388d0 f i entry.obj
 0001:000378d0       ?dec@?$wstring@$0BF@$0BFD@@xorstr_impl@@AEBA_W_W@Z 00000001800388d0 f i entry.obj
 0001:000378d0       ?dec@?$wstring@$0BD@$0BDI@@xorstr_impl@@AEBA_W_W@Z 00000001800388d0 f i entry.obj
 0001:000378d0       ?enc@?$wstring@$0CB@$0BFL@@xorstr_impl@@AEBA_W_W@Z 00000001800388d0 f i entry.obj
 0001:000378d0       ?enc@?$wstring@$0BN@$0BEI@@xorstr_impl@@AEBA_W_W@Z 00000001800388d0 f i entry.obj
 0001:000378e0       ?data@?$array@_W$0M@@std@@QEAAPEA_WXZ 00000001800388e0 f i entry.obj
 0001:000378e0       ?data@?$array@D$07@std@@QEAAPEADXZ 00000001800388e0 f i entry.obj
 0001:000378e0       ?data@?$array@D$0BG@@std@@QEAAPEADXZ 00000001800388e0 f i entry.obj
 0001:000378e0       ?data@?$array@_W$0BE@@std@@QEAAPEA_WXZ 00000001800388e0 f i entry.obj
 0001:000378e0       ?data@?$array@_W$09@std@@QEAAPEA_WXZ 00000001800388e0 f i entry.obj
 0001:000378e0       ??$forward@Vruntime_error@std@@@std@@YA$$QEAVruntime_error@0@AEAV10@@Z 00000001800388e0 f i keybinder.obj
 0001:000378e0       ?data@?$array@D$0BE@@std@@QEAAPEADXZ 00000001800388e0 f i entry.obj
 0001:000378e0       ?data@?$array@D$0BA@@std@@QEAAPEADXZ 00000001800388e0 f i entry.obj
 0001:000378e0       ?data@?$array@D$0BJ@@std@@QEAAPEADXZ 00000001800388e0 f i entry.obj
 0001:000378e0       ?data@?$array@_W$0CA@@std@@QEAAPEA_WXZ 00000001800388e0 f i entry.obj
 0001:000378e0       ?data@?$array@D$0L@@std@@QEAAPEADXZ 00000001800388e0 f i entry.obj
 0001:000378e0       ?data@?$array@_W$0BC@@std@@QEAAPEA_WXZ 00000001800388e0 f i entry.obj
 0001:000378e0       ?data@?$array@D$08@std@@QEAAPEADXZ 00000001800388e0 f i entry.obj
 0001:000378e0       ?_Getal@?$_Tree@V?$_Tmap_traits@I_KU?$less@I@std@@V?$allocator@U?$pair@$$CBI_K@std@@@2@$0A@@std@@@std@@IEAAAEAV?$allocator@U?$_Tree_node@U?$pair@$$CBI_K@std@@PEAX@std@@@2@XZ 00000001800388e0 f i entry.obj
 0001:000378e0       ?data@?$array@D$09@std@@QEAAPEADXZ 00000001800388e0 f i entry.obj
 0001:000378e0       ?data@?$array@D$04@std@@QEAAPEADXZ 00000001800388e0 f i entry.obj
 0001:000378e0       ?data@?$array@D$0BL@@std@@QEAAPEADXZ 00000001800388e0 f i entry.obj
 0001:000378e0       ?data@?$array@_W$0BI@@std@@QEAAPEA_WXZ 00000001800388e0 f i entry.obj
 0001:000378e0       ?data@?$array@_W$0O@@std@@QEAAPEA_WXZ 00000001800388e0 f i entry.obj
 0001:000378e0       ?data@?$array@D$0BB@@std@@QEAAPEADXZ 00000001800388e0 f i entry.obj
 0001:000378e0       ?data@?$array@D$0O@@std@@QEAAPEADXZ 00000001800388e0 f i entry.obj
 0001:000378e0       ??0?$allocator@V?$basic_string@DU?$char_traits@D@std@@V?$allocator@D@2@@std@@@std@@QEAA@XZ 00000001800388e0 f i entry.obj
 0001:000378e0       ?_Getal@?$_Tree@V?$_Tmap_traits@_KPEAVBoneCache@@U?$less@_K@std@@V?$allocator@U?$pair@$$CB_KPEAVBoneCache@@@std@@@3@$0A@@std@@@std@@IEAAAEAV?$allocator@U?$_Tree_node@U?$pair@$$CB_KPEAVBoneCache@@@std@@PEAX@std@@@2@XZ 00000001800388e0 f i entry.obj
 0001:000378e0       ?data@?$array@_W$0BK@@std@@QEAAPEA_WXZ 00000001800388e0 f i entry.obj
 0001:000378e0       ?data@?$array@D$06@std@@QEAAPEADXZ 00000001800388e0 f i entry.obj
 0001:000378e0       ?data@?$array@D$05@std@@QEAAPEADXZ 00000001800388e0 f i entry.obj
 0001:000378e0       ?data@?$array@D$0BI@@std@@QEAAPEADXZ 00000001800388e0 f i entry.obj
 0001:000378e0       ?data@?$array@D$0M@@std@@QEAAPEADXZ 00000001800388e0 f i entry.obj
 0001:000378e0       ?data@?$array@_W$0BG@@std@@QEAAPEA_WXZ 00000001800388e0 f i entry.obj
 0001:000378e0       ?data@?$array@D$0BC@@std@@QEAAPEADXZ 00000001800388e0 f i entry.obj
 0001:000378e0       ?data@?$array@D$0BD@@std@@QEAAPEADXZ 00000001800388e0 f i entry.obj
 0001:000378e0       ?setbuf@?$basic_streambuf@DU?$char_traits@D@std@@@std@@MEAAPEAV12@PEAD_J@Z 00000001800388e0 f i entry.obj
 0001:000378e0       ?data@?$array@_W$07@std@@QEAAPEA_WXZ 00000001800388e0 f i entry.obj
 0001:000378e0       ?data@?$array@D$0P@@std@@QEAAPEADXZ 00000001800388e0 f i entry.obj
 0001:000378e0       ?data@?$array@D$0BH@@std@@QEAAPEADXZ 00000001800388e0 f i entry.obj
 0001:000378e0       ?data@?$array@D$03@std@@QEAAPEADXZ 00000001800388e0 f i entry.obj
 0001:000378e0       ?_Getal@?$_Tree@V?$_Tmap_traits@V?$basic_string@DU?$char_traits@D@std@@V?$allocator@D@2@@std@@V?$basic_json@Vmap@std@@Vvector@2@V?$basic_string@DU?$char_traits@D@std@@V?$allocator@D@2@@2@_N_J_KNVallocator@2@Uadl_serializer@nlohmann@@V?$vector@EV?$allocator@E@std@@@2@@nlohmann@@U?$less@X@2@V?$allocator@U?$pair@$$CBV?$basic_string@DU?$char_traits@D@std@@V?$allocator@D@2@@std@@V?$basic_json@Vmap@std@@Vvector@2@V?$basic_string@DU?$char_traits@D@std@@V?$allocator@D@2@@2@_N_J_KNVallocator@2@Uadl_serializer@nlohmann@@V?$vector@EV?$allocator@E@std@@@2@@nlohmann@@@std@@@2@$0A@@std@@@std@@IEAAAEAV?$allocator@U?$_Tree_node@U?$pair@$$CBV?$basic_string@DU?$char_traits@D@std@@V?$allocator@D@2@@std@@V?$basic_json@Vmap@std@@Vvector@2@V?$basic_string@DU?$char_traits@D@std@@V?$allocator@D@2@@2@_N_J_KNVallocator@2@Uadl_serializer@nlohmann@@V?$vector@EV?$allocator@E@std@@@2@@nlohmann@@@std@@PEAX@std@@@2@XZ 00000001800388e0 f i checkbox.obj
 0001:000378e0       ?data@?$array@D$0N@@std@@QEAAPEADXZ 00000001800388e0 f i entry.obj
 0001:000378e0       ?data@?$array@_W$0CC@@std@@QEAAPEA_WXZ 00000001800388e0 f i entry.obj
 0001:000378e0       ?data@?$array@D$0BF@@std@@QEAAPEADXZ 00000001800388e0 f i entry.obj
 0001:000378e0       ?data@?$array@_W$0BO@@std@@QEAAPEA_WXZ 00000001800388e0 f i entry.obj
 0001:000378f0       ??A?$array@_W$0CA@@std@@QEAAAEA_W_K@Z 00000001800388f0 f i entry.obj
 0001:000378f0       ??A?$array@_W$0BK@@std@@QEAAAEA_W_K@Z 00000001800388f0 f i entry.obj
 0001:000378f0       ??A?$array@_W$0M@@std@@QEAAAEA_W_K@Z 00000001800388f0 f i entry.obj
 0001:000378f0       ??A?$array@_W$07@std@@QEAAAEA_W_K@Z 00000001800388f0 f i entry.obj
 0001:000378f0       ??A?$array@_W$0BO@@std@@QEAAAEA_W_K@Z 00000001800388f0 f i entry.obj
 0001:000378f0       ??A?$array@_W$0BC@@std@@QEAAAEA_W_K@Z 00000001800388f0 f i entry.obj
 0001:000378f0       ??A?$array@_W$0O@@std@@QEAAAEA_W_K@Z 00000001800388f0 f i entry.obj
 0001:000378f0       ??A?$array@_W$0BE@@std@@QEAAAEA_W_K@Z 00000001800388f0 f i entry.obj
 0001:000378f0       ??A?$array@_W$0BG@@std@@QEAAAEA_W_K@Z 00000001800388f0 f i entry.obj
 0001:000378f0       ??A?$array@_W$09@std@@QEAAAEA_W_K@Z 00000001800388f0 f i entry.obj
 0001:000378f0       ??A?$array@_W$0CC@@std@@QEAAAEA_W_K@Z 00000001800388f0 f i entry.obj
 0001:000378f0       ??A?$array@_W$0BI@@std@@QEAAAEA_W_K@Z 00000001800388f0 f i entry.obj
 0001:00037900       ?dec@?$string@$09$0GG@@xorstr_impl@@AEBADD@Z 0000000180038900 f i entry.obj
 0001:00037900       ?enc@?$string@$02$0BDG@@xorstr_impl@@AEBADD@Z 0000000180038900 f i entry.obj
 0001:00037900       ?dec@?$string@$02$0BDG@@xorstr_impl@@AEBADD@Z 0000000180038900 f i entry.obj
 0001:00037900       ?enc@?$string@$0BC@$0LJ@@xorstr_impl@@AEBADD@Z 0000000180038900 f i entry.obj
 0001:00037900       ?dec@?$string@$07$0BEL@@xorstr_impl@@AEBADD@Z 0000000180038900 f i entry.obj
 0001:00037900       ?dec@?$string@$0N@$0MJ@@xorstr_impl@@AEBADD@Z 0000000180038900 f i entry.obj
 0001:00037900       ?enc@?$string@$0O@$0MN@@xorstr_impl@@AEBADD@Z 0000000180038900 f i entry.obj
 0001:00037900       ?dec@?$string@$0BC@$0GI@@xorstr_impl@@AEBADD@Z 0000000180038900 f i entry.obj
 0001:00037900       ?enc@?$string@$0BC@$0GI@@xorstr_impl@@AEBADD@Z 0000000180038900 f i entry.obj
 0001:00037900       ?enc@?$string@$0BC@$0BDB@@xorstr_impl@@AEBADD@Z 0000000180038900 f i entry.obj
 0001:00037900       ?enc@?$string@$07$0GC@@xorstr_impl@@AEBADD@Z 0000000180038900 f i entry.obj
 0001:00037900       ?dec@?$string@$06$0KG@@xorstr_impl@@AEBADD@Z 0000000180038900 f i entry.obj
 0001:00037900       ?enc@?$string@$08$0IH@@xorstr_impl@@AEBADD@Z 0000000180038900 f i entry.obj
 0001:00037900       ?dec@?$string@$04$0JH@@xorstr_impl@@AEBADD@Z 0000000180038900 f i entry.obj
 0001:00037900       ?dec@?$string@$03$0FP@@xorstr_impl@@AEBADD@Z 0000000180038900 f i entry.obj
 0001:00037900       ?dec@?$string@$08$0IF@@xorstr_impl@@AEBADD@Z 0000000180038900 f i entry.obj
 0001:00037900       ?enc@?$string@$0O@$0BFI@@xorstr_impl@@AEBADD@Z 0000000180038900 f i entry.obj
 0001:00037900       ?dec@?$string@$0L@$0BGJ@@xorstr_impl@@AEBADD@Z 0000000180038900 f i entry.obj
 0001:00037900       ?enc@?$string@$0BA@$0HA@@xorstr_impl@@AEBADD@Z 0000000180038900 f i entry.obj
 0001:00037900       ?enc@?$string@$08$0HJ@@xorstr_impl@@AEBADD@Z 0000000180038900 f i entry.obj
 0001:00037900       ?enc@?$string@$09$0HF@@xorstr_impl@@AEBADD@Z 0000000180038900 f i entry.obj
 0001:00037900       ?enc@?$string@$0O@$0BEO@@xorstr_impl@@AEBADD@Z 0000000180038900 f i entry.obj
 0001:00037900       ?enc@?$string@$0BB@$0JM@@xorstr_impl@@AEBADD@Z 0000000180038900 f i entry.obj
 0001:00037900       ?enc@?$string@$0L@$0MC@@xorstr_impl@@AEBADD@Z 0000000180038900 f i entry.obj
 0001:00037900       ?dec@?$string@$08$0GH@@xorstr_impl@@AEBADD@Z 0000000180038900 f i entry.obj
 0001:00037900       ?dec@?$string@$0BF@$0IC@@xorstr_impl@@AEBADD@Z 0000000180038900 f i entry.obj
 0001:00037900       ?dec@?$string@$03$0MD@@xorstr_impl@@AEBADD@Z 0000000180038900 f i entry.obj
 0001:00037900       ?enc@?$string@$06$0IM@@xorstr_impl@@AEBADD@Z 0000000180038900 f i entry.obj
 0001:00037900       ?enc@?$string@$0BA@$0FJ@@xorstr_impl@@AEBADD@Z 0000000180038900 f i entry.obj
 0001:00037900       ?enc@?$string@$03$0GN@@xorstr_impl@@AEBADD@Z 0000000180038900 f i entry.obj
 0001:00037900       ?dec@?$string@$07$0BDF@@xorstr_impl@@AEBADD@Z 0000000180038900 f i entry.obj
 0001:00037900       ?dec@?$string@$0BA@$0KH@@xorstr_impl@@AEBADD@Z 0000000180038900 f i entry.obj
 0001:00037900       ?enc@?$string@$0L@$0BGL@@xorstr_impl@@AEBADD@Z 0000000180038900 f i entry.obj
 0001:00037900       ?dec@?$string@$0BI@$0KC@@xorstr_impl@@AEBADD@Z 0000000180038900 f i entry.obj
 0001:00037900       ?dec@?$string@$0L@$0JC@@xorstr_impl@@AEBADD@Z 0000000180038900 f i entry.obj
 0001:00037900       ?dec@?$string@$0O@$0HH@@xorstr_impl@@AEBADD@Z 0000000180038900 f i entry.obj
 0001:00037900       ?dec@?$string@$09$0BFN@@xorstr_impl@@AEBADD@Z 0000000180038900 f i entry.obj
 0001:00037900       ?enc@?$string@$06$0FN@@xorstr_impl@@AEBADD@Z 0000000180038900 f i entry.obj
 0001:00037900       ?enc@?$string@$0BK@$0KE@@xorstr_impl@@AEBADD@Z 0000000180038900 f i entry.obj
 0001:00037900       ?dec@?$string@$07$0FF@@xorstr_impl@@AEBADD@Z 0000000180038900 f i entry.obj
 0001:00037900       ?dec@?$string@$07$0GA@@xorstr_impl@@AEBADD@Z 0000000180038900 f i entry.obj
 0001:00037900       ?enc@?$string@$0BA@$0KK@@xorstr_impl@@AEBADD@Z 0000000180038900 f i entry.obj
 0001:00037900       ?dec@?$string@$0P@$0JK@@xorstr_impl@@AEBADD@Z 0000000180038900 f i entry.obj
 0001:00037900       ?enc@?$string@$0BA@$0LH@@xorstr_impl@@AEBADD@Z 0000000180038900 f i entry.obj
 0001:00037900       ?enc@?$string@$0BA@$0KB@@xorstr_impl@@AEBADD@Z 0000000180038900 f i entry.obj
 0001:00037900       ?enc@?$string@$0O@$0IE@@xorstr_impl@@AEBADD@Z 0000000180038900 f i entry.obj
 0001:00037900       ?dec@?$string@$08$0HC@@xorstr_impl@@AEBADD@Z 0000000180038900 f i entry.obj
 0001:00037900       ?enc@?$string@$0L@$0BGD@@xorstr_impl@@AEBADD@Z 0000000180038900 f i entry.obj
 0001:00037900       ?enc@?$string@$0O@$0LG@@xorstr_impl@@AEBADD@Z 0000000180038900 f i entry.obj
 0001:00037900       ?enc@?$string@$0BE@$0GK@@xorstr_impl@@AEBADD@Z 0000000180038900 f i entry.obj
 0001:00037900       ?dec@?$string@$06$0LP@@xorstr_impl@@AEBADD@Z 0000000180038900 f i entry.obj
 0001:00037900       ?dec@?$string@$06$0HO@@xorstr_impl@@AEBADD@Z 0000000180038900 f i entry.obj
 0001:00037900       ?enc@?$string@$02$0FE@@xorstr_impl@@AEBADD@Z 0000000180038900 f i entry.obj
 0001:00037900       ?dec@?$string@$04$0MB@@xorstr_impl@@AEBADD@Z 0000000180038900 f i entry.obj
 0001:00037900       ?dec@?$string@$03$0LL@@xorstr_impl@@AEBADD@Z 0000000180038900 f i entry.obj
 0001:00037900       ?dec@?$string@$08$0HJ@@xorstr_impl@@AEBADD@Z 0000000180038900 f i entry.obj
 0001:00037900       ?enc@?$string@$0L@$0JC@@xorstr_impl@@AEBADD@Z 0000000180038900 f i entry.obj
 0001:00037900       ?dec@?$string@$0BK@$0KE@@xorstr_impl@@AEBADD@Z 0000000180038900 f i entry.obj
 0001:00037900       ?enc@?$string@$0N@$0BDO@@xorstr_impl@@AEBADD@Z 0000000180038900 f i entry.obj
 0001:00037900       ?dec@?$string@$0BC@$0FK@@xorstr_impl@@AEBADD@Z 0000000180038900 f i entry.obj
 0001:00037900       ?dec@?$string@$07$0BDH@@xorstr_impl@@AEBADD@Z 0000000180038900 f i entry.obj
 0001:00037900       ?dec@?$string@$0BA@$0KB@@xorstr_impl@@AEBADD@Z 0000000180038900 f i entry.obj
 0001:00037900       ?enc@?$string@$09$0ME@@xorstr_impl@@AEBADD@Z 0000000180038900 f i entry.obj
 0001:00037900       ?enc@?$string@$07$0MF@@xorstr_impl@@AEBADD@Z 0000000180038900 f i entry.obj
 0001:00037900       ?dec@?$string@$0BC@$0BDB@@xorstr_impl@@AEBADD@Z 0000000180038900 f i entry.obj
 0001:00037900       ?dec@?$string@$0BA@$0HA@@xorstr_impl@@AEBADD@Z 0000000180038900 f i entry.obj
 0001:00037900       ?enc@?$string@$03$0GO@@xorstr_impl@@AEBADD@Z 0000000180038900 f i entry.obj
 0001:00037900       ?enc@?$string@$0N@$0LA@@xorstr_impl@@AEBADD@Z 0000000180038900 f i entry.obj
 0001:00037900       ?dec@?$string@$0BH@$0BDK@@xorstr_impl@@AEBADD@Z 0000000180038900 f i entry.obj
 0001:00037900       ?dec@?$string@$04$0BGC@@xorstr_impl@@AEBADD@Z 0000000180038900 f i entry.obj
 0001:00037900       ?enc@?$string@$07$0BDM@@xorstr_impl@@AEBADD@Z 0000000180038900 f i entry.obj
 0001:00037900       ?dec@?$string@$0BA@$0JN@@xorstr_impl@@AEBADD@Z 0000000180038900 f i entry.obj
 0001:00037900       ?enc@?$string@$0BE@$0LI@@xorstr_impl@@AEBADD@Z 0000000180038900 f i entry.obj
 0001:00037900       ?enc@?$string@$0BC@$0KD@@xorstr_impl@@AEBADD@Z 0000000180038900 f i entry.obj
 0001:00037900       ?enc@?$string@$04$0IA@@xorstr_impl@@AEBADD@Z 0000000180038900 f i entry.obj
 0001:00037900       ?enc@?$string@$03$0FL@@xorstr_impl@@AEBADD@Z 0000000180038900 f i entry.obj
 0001:00037900       ?dec@?$string@$06$0GD@@xorstr_impl@@AEBADD@Z 0000000180038900 f i entry.obj
 0001:00037900       ?dec@?$string@$0O@$0BFC@@xorstr_impl@@AEBADD@Z 0000000180038900 f i entry.obj
 0001:00037900       ?enc@?$string@$0P@$0GP@@xorstr_impl@@AEBADD@Z 0000000180038900 f i entry.obj
 0001:00037900       ?dec@?$string@$0O@$0BFA@@xorstr_impl@@AEBADD@Z 0000000180038900 f i entry.obj
 0001:00037900       ?dec@?$string@$0L@$0HK@@xorstr_impl@@AEBADD@Z 0000000180038900 f i entry.obj
 0001:00037900       ?enc@?$string@$06$0HO@@xorstr_impl@@AEBADD@Z 0000000180038900 f i entry.obj
 0001:00037900       ?dec@?$string@$08$0KI@@xorstr_impl@@AEBADD@Z 0000000180038900 f i entry.obj
 0001:00037900       ?dec@?$string@$0O@$0BEM@@xorstr_impl@@AEBADD@Z 0000000180038900 f i entry.obj
 0001:00037900       ?dec@?$string@$0L@$0IN@@xorstr_impl@@AEBADD@Z 0000000180038900 f i entry.obj
 0001:00037900       ?dec@?$string@$07$0MM@@xorstr_impl@@AEBADD@Z 0000000180038900 f i entry.obj
 0001:00037900       ?enc@?$string@$0L@$0BGJ@@xorstr_impl@@AEBADD@Z 0000000180038900 f i entry.obj
 0001:00037900       ?enc@?$string@$0BB@$0KO@@xorstr_impl@@AEBADD@Z 0000000180038900 f i entry.obj
 0001:00037900       ?dec@?$string@$0BA@$0JO@@xorstr_impl@@AEBADD@Z 0000000180038900 f i entry.obj
 0001:00037900       ?enc@?$string@$06$0BEG@@xorstr_impl@@AEBADD@Z 0000000180038900 f i entry.obj
 0001:00037900       ?enc@?$string@$06$0GD@@xorstr_impl@@AEBADD@Z 0000000180038900 f i entry.obj
 0001:00037900       ?enc@?$string@$0BC@$0KJ@@xorstr_impl@@AEBADD@Z 0000000180038900 f i entry.obj
 0001:00037900       ?dec@?$string@$06$0JI@@xorstr_impl@@AEBADD@Z 0000000180038900 f i entry.obj
 0001:00037900       ?enc@?$string@$04$0FO@@xorstr_impl@@AEBADD@Z 0000000180038900 f i entry.obj
 0001:00037900       ?dec@?$string@$03$0LC@@xorstr_impl@@AEBADD@Z 0000000180038900 f i entry.obj
 0001:00037900       ?enc@?$string@$08$0MK@@xorstr_impl@@AEBADD@Z 0000000180038900 f i entry.obj
 0001:00037900       ?enc@?$string@$06$0BDD@@xorstr_impl@@AEBADD@Z 0000000180038900 f i entry.obj
 0001:00037900       ?enc@?$string@$07$0FF@@xorstr_impl@@AEBADD@Z 0000000180038900 f i entry.obj
 0001:00037900       ?dec@?$string@$08$0HG@@xorstr_impl@@AEBADD@Z 0000000180038900 f i entry.obj
 0001:00037900       ?dec@?$string@$06$0GJ@@xorstr_impl@@AEBADD@Z 0000000180038900 f i entry.obj
 0001:00037900       ?enc@?$string@$07$0GB@@xorstr_impl@@AEBADD@Z 0000000180038900 f i entry.obj
 0001:00037900       ?enc@?$string@$0BA@$0KL@@xorstr_impl@@AEBADD@Z 0000000180038900 f i entry.obj
 0001:00037900       ?enc@?$string@$0BH@$0BDK@@xorstr_impl@@AEBADD@Z 0000000180038900 f i entry.obj
 0001:00037900       ?enc@?$string@$0N@$0BGA@@xorstr_impl@@AEBADD@Z 0000000180038900 f i entry.obj
 0001:00037900       ?dec@?$string@$04$0MH@@xorstr_impl@@AEBADD@Z 0000000180038900 f i entry.obj
 0001:00037900       ?enc@?$string@$0BA@$0KH@@xorstr_impl@@AEBADD@Z 0000000180038900 f i entry.obj
 0001:00037900       ?enc@?$string@$0O@$0BFG@@xorstr_impl@@AEBADD@Z 0000000180038900 f i entry.obj
 0001:00037900       ?enc@?$string@$07$0KF@@xorstr_impl@@AEBADD@Z 0000000180038900 f i entry.obj
 0001:00037900       ?enc@?$string@$06$0KG@@xorstr_impl@@AEBADD@Z 0000000180038900 f i entry.obj
 0001:00037900       ?enc@?$string@$03$0LC@@xorstr_impl@@AEBADD@Z 0000000180038900 f i entry.obj
 0001:00037900       ?dec@?$string@$0L@$0BGL@@xorstr_impl@@AEBADD@Z 0000000180038900 f i entry.obj
 0001:00037900       ?enc@?$string@$03$0FH@@xorstr_impl@@AEBADD@Z 0000000180038900 f i entry.obj
 0001:00037900       ?dec@?$string@$05$0HD@@xorstr_impl@@AEBADD@Z 0000000180038900 f i entry.obj
 0001:00037900       ?enc@?$string@$03$0LL@@xorstr_impl@@AEBADD@Z 0000000180038900 f i entry.obj
 0001:00037900       ?enc@?$string@$07$0BDF@@xorstr_impl@@AEBADD@Z 0000000180038900 f i entry.obj
 0001:00037900       ?enc@?$string@$0BH@$0KP@@xorstr_impl@@AEBADD@Z 0000000180038900 f i entry.obj
 0001:00037900       ?dec@?$string@$02$0BDL@@xorstr_impl@@AEBADD@Z 0000000180038900 f i entry.obj
 0001:00037900       ?enc@?$string@$0L@$0GE@@xorstr_impl@@AEBADD@Z 0000000180038900 f i entry.obj
 0001:00037900       ?dec@?$string@$0O@$0MG@@xorstr_impl@@AEBADD@Z 0000000180038900 f i entry.obj
 0001:00037900       ?dec@?$string@$0O@$0BFI@@xorstr_impl@@AEBADD@Z 0000000180038900 f i entry.obj
 0001:00037900       ?dec@?$string@$09$0LM@@xorstr_impl@@AEBADD@Z 0000000180038900 f i entry.obj
 0001:00037900       ?enc@?$string@$0BG@$0LK@@xorstr_impl@@AEBADD@Z 0000000180038900 f i entry.obj
 0001:00037900       ?enc@?$string@$06$0LD@@xorstr_impl@@AEBADD@Z 0000000180038900 f i entry.obj
 0001:00037900       ?enc@?$string@$03$0BFM@@xorstr_impl@@AEBADD@Z 0000000180038900 f i entry.obj
 0001:00037900       ?dec@?$string@$0N@$0BDO@@xorstr_impl@@AEBADD@Z 0000000180038900 f i entry.obj
 0001:00037900       ?enc@?$string@$0O@$0BFE@@xorstr_impl@@AEBADD@Z 0000000180038900 f i entry.obj
 0001:00037900       ?dec@?$string@$0BG@$0LK@@xorstr_impl@@AEBADD@Z 0000000180038900 f i entry.obj
 0001:00037900       ?enc@?$string@$0P@$0ML@@xorstr_impl@@AEBADD@Z 0000000180038900 f i entry.obj
 0001:00037900       ?enc@?$string@$09$0II@@xorstr_impl@@AEBADD@Z 0000000180038900 f i entry.obj
 0001:00037900       ?enc@?$string@$0L@$0HB@@xorstr_impl@@AEBADD@Z 0000000180038900 f i entry.obj
 0001:00037900       ?enc@?$string@$06$0FM@@xorstr_impl@@AEBADD@Z 0000000180038900 f i entry.obj
 0001:00037900       ?enc@?$string@$0BC@$0FK@@xorstr_impl@@AEBADD@Z 0000000180038900 f i entry.obj
 0001:00037900       ?dec@?$string@$09$0ME@@xorstr_impl@@AEBADD@Z 0000000180038900 f i entry.obj
 0001:00037900       ?enc@?$string@$0BB@$0BDJ@@xorstr_impl@@AEBADD@Z 0000000180038900 f i entry.obj
 0001:00037900       ?dec@?$string@$0N@$0BEH@@xorstr_impl@@AEBADD@Z 0000000180038900 f i entry.obj
 0001:00037900       ?dec@?$string@$09$0BEE@@xorstr_impl@@AEBADD@Z 0000000180038900 f i entry.obj
 0001:00037900       ?dec@?$string@$0O@$0BFG@@xorstr_impl@@AEBADD@Z 0000000180038900 f i entry.obj
 0001:00037900       ?dec@?$string@$09$0BEC@@xorstr_impl@@AEBADD@Z 0000000180038900 f i entry.obj
 0001:00037900       ?enc@?$string@$0O@$0BEM@@xorstr_impl@@AEBADD@Z 0000000180038900 f i entry.obj
 0001:00037900       ?enc@?$string@$0O@$0BFC@@xorstr_impl@@AEBADD@Z 0000000180038900 f i entry.obj
 0001:00037900       ?enc@?$string@$0O@$0BFK@@xorstr_impl@@AEBADD@Z 0000000180038900 f i entry.obj
 0001:00037900       ?dec@?$string@$04$0IA@@xorstr_impl@@AEBADD@Z 0000000180038900 f i entry.obj
 0001:00037900       ?dec@?$string@$0BC@$0LJ@@xorstr_impl@@AEBADD@Z 0000000180038900 f i entry.obj
 0001:00037900       ?dec@?$string@$0P@$0GL@@xorstr_impl@@AEBADD@Z 0000000180038900 f i entry.obj
 0001:00037900       ?enc@?$string@$0BC@$0KM@@xorstr_impl@@AEBADD@Z 0000000180038900 f i entry.obj
 0001:00037900       ?enc@?$string@$0P@$0GL@@xorstr_impl@@AEBADD@Z 0000000180038900 f i entry.obj
 0001:00037900       ?enc@?$string@$0N@$0HE@@xorstr_impl@@AEBADD@Z 0000000180038900 f i entry.obj
 0001:00037900       ?enc@?$string@$0BA@$0JN@@xorstr_impl@@AEBADD@Z 0000000180038900 f i entry.obj
 0001:00037900       ?dec@?$string@$0O@$0LG@@xorstr_impl@@AEBADD@Z 0000000180038900 f i entry.obj
 0001:00037900       ?dec@?$string@$06$0BEG@@xorstr_impl@@AEBADD@Z 0000000180038900 f i entry.obj
 0001:00037900       ?enc@?$string@$05$0HD@@xorstr_impl@@AEBADD@Z 0000000180038900 f i entry.obj
 0001:00037900       ?dec@?$string@$07$0GC@@xorstr_impl@@AEBADD@Z 0000000180038900 f i entry.obj
 0001:00037900       ?dec@?$string@$03$0IG@@xorstr_impl@@AEBADD@Z 0000000180038900 f i entry.obj
 0001:00037900       ?dec@?$string@$0BC@$0KN@@xorstr_impl@@AEBADD@Z 0000000180038900 f i entry.obj
 0001:00037900       ?enc@?$string@$04$0MB@@xorstr_impl@@AEBADD@Z 0000000180038900 f i entry.obj
 0001:00037900       ?enc@?$string@$09$0BEC@@xorstr_impl@@AEBADD@Z 0000000180038900 f i entry.obj
 0001:00037900       ?dec@?$string@$03$0GN@@xorstr_impl@@AEBADD@Z 0000000180038900 f i entry.obj
 0001:00037900       ?dec@?$string@$0BA@$0FJ@@xorstr_impl@@AEBADD@Z 0000000180038900 f i entry.obj
 0001:00037900       ?dec@?$string@$07$0BDM@@xorstr_impl@@AEBADD@Z 0000000180038900 f i entry.obj
 0001:00037900       ?enc@?$string@$03$0IG@@xorstr_impl@@AEBADD@Z 0000000180038900 f i entry.obj
 0001:00037900       ?dec@?$string@$06$0FN@@xorstr_impl@@AEBADD@Z 0000000180038900 f i entry.obj
 0001:00037900       ?enc@?$string@$0M@$0GF@@xorstr_impl@@AEBADD@Z 0000000180038900 f i entry.obj
 0001:00037900       ?dec@?$string@$07$0FG@@xorstr_impl@@AEBADD@Z 0000000180038900 f i entry.obj
 0001:00037900       ?dec@?$string@$09$0II@@xorstr_impl@@AEBADD@Z 0000000180038900 f i entry.obj
 0001:00037900       ?dec@?$string@$0BA@$0KL@@xorstr_impl@@AEBADD@Z 0000000180038900 f i entry.obj
 0001:00037900       ?dec@?$string@$08$0JL@@xorstr_impl@@AEBADD@Z 0000000180038900 f i entry.obj
 0001:00037900       ?dec@?$string@$07$0BDE@@xorstr_impl@@AEBADD@Z 0000000180038900 f i entry.obj
 0001:00037900       ?dec@?$string@$03$0GO@@xorstr_impl@@AEBADD@Z 0000000180038900 f i entry.obj
 0001:00037900       ?dec@?$string@$0N@$0BEJ@@xorstr_impl@@AEBADD@Z 0000000180038900 f i entry.obj
 0001:00037900       ?enc@?$string@$05$0IJ@@xorstr_impl@@AEBADD@Z 0000000180038900 f i entry.obj
 0001:00037900       ?enc@?$string@$0L@$0BGF@@xorstr_impl@@AEBADD@Z 0000000180038900 f i entry.obj
 0001:00037900       ?dec@?$string@$03$0FL@@xorstr_impl@@AEBADD@Z 0000000180038900 f i entry.obj
 0001:00037900       ?enc@?$string@$04$0MH@@xorstr_impl@@AEBADD@Z 0000000180038900 f i entry.obj
 0001:00037900       ?dec@?$string@$0BH@$0KP@@xorstr_impl@@AEBADD@Z 0000000180038900 f i entry.obj
 0001:00037900       ?enc@?$string@$03$0FP@@xorstr_impl@@AEBADD@Z 0000000180038900 f i entry.obj
 0001:00037900       ?enc@?$string@$08$0KI@@xorstr_impl@@AEBADD@Z 0000000180038900 f i entry.obj
 0001:00037900       ?enc@?$string@$0N@$0HL@@xorstr_impl@@AEBADD@Z 0000000180038900 f i entry.obj
 0001:00037900       ?dec@?$string@$0M@$0LE@@xorstr_impl@@AEBADD@Z 0000000180038900 f i entry.obj
 0001:00037900       ?enc@?$string@$0L@$0HK@@xorstr_impl@@AEBADD@Z 0000000180038900 f i entry.obj
 0001:00037900       ?enc@?$string@$03$0BDP@@xorstr_impl@@AEBADD@Z 0000000180038900 f i entry.obj
 0001:00037900       ?dec@?$string@$03$0FH@@xorstr_impl@@AEBADD@Z 0000000180038900 f i entry.obj
 0001:00037900       ?enc@?$string@$08$0JL@@xorstr_impl@@AEBADD@Z 0000000180038900 f i entry.obj
 0001:00037900       ?dec@?$string@$09$0HM@@xorstr_impl@@AEBADD@Z 0000000180038900 f i entry.obj
 0001:00037900       ?enc@?$string@$06$0LP@@xorstr_impl@@AEBADD@Z 0000000180038900 f i entry.obj
 0001:00037900       ?dec@?$string@$08$0LF@@xorstr_impl@@AEBADD@Z 0000000180038900 f i entry.obj
 0001:00037900       ?enc@?$string@$08$0GH@@xorstr_impl@@AEBADD@Z 0000000180038900 f i entry.obj
 0001:00037900       ?enc@?$string@$09$0HI@@xorstr_impl@@AEBADD@Z 0000000180038900 f i entry.obj
 0001:00037900       ?enc@?$string@$09$0BEA@@xorstr_impl@@AEBADD@Z 0000000180038900 f i entry.obj
 0001:00037900       ?enc@?$string@$06$0LN@@xorstr_impl@@AEBADD@Z 0000000180038900 f i entry.obj
 0001:00037900       ?dec@?$string@$0L@$0BGD@@xorstr_impl@@AEBADD@Z 0000000180038900 f i entry.obj
 0001:00037900       ?enc@?$string@$02$0BDL@@xorstr_impl@@AEBADD@Z 0000000180038900 f i entry.obj
 0001:00037900       ?enc@?$string@$09$0BEE@@xorstr_impl@@AEBADD@Z 0000000180038900 f i entry.obj
 0001:00037900       ?dec@?$string@$0BC@$0JP@@xorstr_impl@@AEBADD@Z 0000000180038900 f i entry.obj
 0001:00037900       ?dec@?$string@$06$0FM@@xorstr_impl@@AEBADD@Z 0000000180038900 f i entry.obj
 0001:00037900       ?enc@?$string@$0BI@$0ID@@xorstr_impl@@AEBADD@Z 0000000180038900 f i entry.obj
 0001:00037900       ?enc@?$string@$0N@$0BEH@@xorstr_impl@@AEBADD@Z 0000000180038900 f i entry.obj
 0001:00037900       ?dec@?$string@$03$0BFM@@xorstr_impl@@AEBADD@Z 0000000180038900 f i entry.obj
 0001:00037900       ?dec@?$string@$08$0MK@@xorstr_impl@@AEBADD@Z 0000000180038900 f i entry.obj
 0001:00037900       ?enc@?$string@$07$0BEL@@xorstr_impl@@AEBADD@Z 0000000180038900 f i entry.obj
 0001:00037900       ?enc@?$string@$04$0JH@@xorstr_impl@@AEBADD@Z 0000000180038900 f i entry.obj
 0001:00037900       ?dec@?$string@$0BB@$0JM@@xorstr_impl@@AEBADD@Z 0000000180038900 f i entry.obj
 0001:00037900       ?dec@?$string@$06$0MI@@xorstr_impl@@AEBADD@Z 0000000180038900 f i entry.obj
 0001:00037900       ?enc@?$string@$07$0BDH@@xorstr_impl@@AEBADD@Z 0000000180038900 f i entry.obj
 0001:00037900       ?enc@?$string@$0N@$0LO@@xorstr_impl@@AEBADD@Z 0000000180038900 f i entry.obj
 0001:00037900       ?dec@?$string@$0O@$0BEO@@xorstr_impl@@AEBADD@Z 0000000180038900 f i entry.obj
 0001:00037900       ?enc@?$string@$04$0BGC@@xorstr_impl@@AEBADD@Z 0000000180038900 f i entry.obj
 0001:00037900       ?dec@?$string@$09$0BEA@@xorstr_impl@@AEBADD@Z 0000000180038900 f i entry.obj
 0001:00037900       ?dec@?$string@$05$0IJ@@xorstr_impl@@AEBADD@Z 0000000180038900 f i entry.obj
 0001:00037900       ?dec@?$string@$08$0HN@@xorstr_impl@@AEBADD@Z 0000000180038900 f i entry.obj
 0001:00037900       ?dec@?$string@$06$0LD@@xorstr_impl@@AEBADD@Z 0000000180038900 f i entry.obj
 0001:00037900       ?dec@?$string@$07$0IK@@xorstr_impl@@AEBADD@Z 0000000180038900 f i entry.obj
 0001:00037900       ?enc@?$string@$07$0FD@@xorstr_impl@@AEBADD@Z 0000000180038900 f i entry.obj
 0001:00037900       ?dec@?$string@$0BA@$0LH@@xorstr_impl@@AEBADD@Z 0000000180038900 f i entry.obj
 0001:00037900       ?dec@?$string@$06$0LN@@xorstr_impl@@AEBADD@Z 0000000180038900 f i entry.obj
 0001:00037900       ?enc@?$string@$08$0HG@@xorstr_impl@@AEBADD@Z 0000000180038900 f i entry.obj
 0001:00037900       ?enc@?$string@$0L@$0IN@@xorstr_impl@@AEBADD@Z 0000000180038900 f i entry.obj
 0001:00037900       ?enc@?$string@$0BI@$0KC@@xorstr_impl@@AEBADD@Z 0000000180038900 f i entry.obj
 0001:00037900       ?enc@?$string@$0N@$0BEJ@@xorstr_impl@@AEBADD@Z 0000000180038900 f i entry.obj
 0001:00037900       ?dec@?$string@$0L@$0MC@@xorstr_impl@@AEBADD@Z 0000000180038900 f i entry.obj
 0001:00037900       ?dec@?$string@$0P@$0GP@@xorstr_impl@@AEBADD@Z 0000000180038900 f i entry.obj
 0001:00037900       ?enc@?$string@$0BD@$0LB@@xorstr_impl@@AEBADD@Z 0000000180038900 f i entry.obj
 0001:00037900       ?enc@?$string@$06$0JJ@@xorstr_impl@@AEBADD@Z 0000000180038900 f i entry.obj
 0001:00037900       ?dec@?$string@$04$0FO@@xorstr_impl@@AEBADD@Z 0000000180038900 f i entry.obj
 0001:00037900       ?dec@?$string@$07$0GB@@xorstr_impl@@AEBADD@Z 0000000180038900 f i entry.obj
 0001:00037900       ?dec@?$string@$03$0HP@@xorstr_impl@@AEBADD@Z 0000000180038900 f i entry.obj
 0001:00037900       ?enc@?$string@$0BA@$0JO@@xorstr_impl@@AEBADD@Z 0000000180038900 f i entry.obj
 0001:00037900       ?enc@?$string@$0L@$0BGH@@xorstr_impl@@AEBADD@Z 0000000180038900 f i entry.obj
 0001:00037900       ?dec@?$string@$0O@$0BFE@@xorstr_impl@@AEBADD@Z 0000000180038900 f i entry.obj
 0001:00037900       ?enc@?$string@$07$0FG@@xorstr_impl@@AEBADD@Z 0000000180038900 f i entry.obj
 0001:00037900       ?dec@?$string@$0O@$0MN@@xorstr_impl@@AEBADD@Z 0000000180038900 f i entry.obj
 0001:00037900       ?enc@?$string@$0BF@$0IC@@xorstr_impl@@AEBADD@Z 0000000180038900 f i entry.obj
 0001:00037900       ?dec@?$string@$09$0HF@@xorstr_impl@@AEBADD@Z 0000000180038900 f i entry.obj
 0001:00037900       ?enc@?$string@$0P@$0JK@@xorstr_impl@@AEBADD@Z 0000000180038900 f i entry.obj
 0001:00037900       ?dec@?$string@$0M@$0GF@@xorstr_impl@@AEBADD@Z 0000000180038900 f i entry.obj
 0001:00037900       ?dec@?$string@$0L@$0FI@@xorstr_impl@@AEBADD@Z 0000000180038900 f i entry.obj
 0001:00037900       ?enc@?$string@$0O@$0HH@@xorstr_impl@@AEBADD@Z 0000000180038900 f i entry.obj
 0001:00037900       ?enc@?$string@$09$0LM@@xorstr_impl@@AEBADD@Z 0000000180038900 f i entry.obj
 0001:00037900       ?dec@?$string@$03$0BDP@@xorstr_impl@@AEBADD@Z 0000000180038900 f i entry.obj
 0001:00037900       ?enc@?$string@$0BC@$0JP@@xorstr_impl@@AEBADD@Z 0000000180038900 f i entry.obj
 0001:00037900       ?dec@?$string@$0O@$0BFK@@xorstr_impl@@AEBADD@Z 0000000180038900 f i entry.obj
 0001:00037900       ?dec@?$string@$0BB@$0BDJ@@xorstr_impl@@AEBADD@Z 0000000180038900 f i entry.obj
 0001:00037900       ?dec@?$string@$0L@$0HB@@xorstr_impl@@AEBADD@Z 0000000180038900 f i entry.obj
 0001:00037900       ?dec@?$string@$06$0BDD@@xorstr_impl@@AEBADD@Z 0000000180038900 f i entry.obj
 0001:00037900       ?enc@?$string@$0N@$0MA@@xorstr_impl@@AEBADD@Z 0000000180038900 f i entry.obj
 0001:00037900       ?dec@?$string@$0N@$0LA@@xorstr_impl@@AEBADD@Z 0000000180038900 f i entry.obj
 0001:00037900       ?dec@?$string@$06$0JJ@@xorstr_impl@@AEBADD@Z 0000000180038900 f i entry.obj
 0001:00037900       ?dec@?$string@$0L@$0BGH@@xorstr_impl@@AEBADD@Z 0000000180038900 f i entry.obj
 0001:00037900       ?dec@?$string@$0BC@$0KA@@xorstr_impl@@AEBADD@Z 0000000180038900 f i entry.obj
 0001:00037900       ?enc@?$string@$06$0MI@@xorstr_impl@@AEBADD@Z 0000000180038900 f i entry.obj
 0001:00037900       ?dec@?$string@$08$0IH@@xorstr_impl@@AEBADD@Z 0000000180038900 f i entry.obj
 0001:00037900       ?enc@?$string@$07$0GA@@xorstr_impl@@AEBADD@Z 0000000180038900 f i entry.obj
 0001:00037900       ?enc@?$string@$09$0BFN@@xorstr_impl@@AEBADD@Z 0000000180038900 f i entry.obj
 0001:00037900       ?enc@?$string@$0N@$0MJ@@xorstr_impl@@AEBADD@Z 0000000180038900 f i entry.obj
 0001:00037900       ?dec@?$string@$0BC@$0KJ@@xorstr_impl@@AEBADD@Z 0000000180038900 f i entry.obj
 0001:00037900       ?dec@?$string@$07$0KF@@xorstr_impl@@AEBADD@Z 0000000180038900 f i entry.obj
 0001:00037900       ?enc@?$string@$0BC@$0KA@@xorstr_impl@@AEBADD@Z 0000000180038900 f i entry.obj
 0001:00037900       ?dec@?$string@$0O@$0IE@@xorstr_impl@@AEBADD@Z 0000000180038900 f i entry.obj
 0001:00037900       ?dec@?$string@$0N@$0HL@@xorstr_impl@@AEBADD@Z 0000000180038900 f i entry.obj
 0001:00037900       ?dec@?$string@$0N@$0HE@@xorstr_impl@@AEBADD@Z 0000000180038900 f i entry.obj
 0001:00037900       ?dec@?$string@$0BE@$0GK@@xorstr_impl@@AEBADD@Z 0000000180038900 f i entry.obj
 0001:00037900       ?enc@?$string@$08$0HN@@xorstr_impl@@AEBADD@Z 0000000180038900 f i entry.obj
 0001:00037900       ?dec@?$string@$09$0HI@@xorstr_impl@@AEBADD@Z 0000000180038900 f i entry.obj
 0001:00037900       ?dec@?$string@$07$0MF@@xorstr_impl@@AEBADD@Z 0000000180038900 f i entry.obj
 0001:00037900       ?enc@?$string@$03$0GM@@xorstr_impl@@AEBADD@Z 0000000180038900 f i entry.obj
 0001:00037900       ?dec@?$string@$0L@$0GE@@xorstr_impl@@AEBADD@Z 0000000180038900 f i entry.obj
 0001:00037900       ?dec@?$string@$03$0GM@@xorstr_impl@@AEBADD@Z 0000000180038900 f i entry.obj
 0001:00037900       ?enc@?$string@$0L@$0IL@@xorstr_impl@@AEBADD@Z 0000000180038900 f i entry.obj
 0001:00037900       ?enc@?$string@$07$0IK@@xorstr_impl@@AEBADD@Z 0000000180038900 f i entry.obj
 0001:00037900       ?dec@?$string@$0BC@$0KD@@xorstr_impl@@AEBADD@Z 0000000180038900 f i entry.obj
 0001:00037900       ?dec@?$string@$0BI@$0ID@@xorstr_impl@@AEBADD@Z 0000000180038900 f i entry.obj
 0001:00037900       ?enc@?$string@$0O@$0BFA@@xorstr_impl@@AEBADD@Z 0000000180038900 f i entry.obj
 0001:00037900       ?enc@?$string@$0O@$0MG@@xorstr_impl@@AEBADD@Z 0000000180038900 f i entry.obj
 0001:00037900       ?enc@?$string@$07$0BDE@@xorstr_impl@@AEBADD@Z 0000000180038900 f i entry.obj
 0001:00037900       ?enc@?$string@$0L@$0FI@@xorstr_impl@@AEBADD@Z 0000000180038900 f i entry.obj
 0001:00037900       ?enc@?$string@$06$0GJ@@xorstr_impl@@AEBADD@Z 0000000180038900 f i entry.obj
 0001:00037900       ?enc@?$string@$03$0HP@@xorstr_impl@@AEBADD@Z 0000000180038900 f i entry.obj
 0001:00037900       ?enc@?$string@$06$0BFP@@xorstr_impl@@AEBADD@Z 0000000180038900 f i entry.obj
 0001:00037900       ?enc@?$string@$09$0GG@@xorstr_impl@@AEBADD@Z 0000000180038900 f i entry.obj
 0001:00037900       ?dec@?$string@$0BC@$0KM@@xorstr_impl@@AEBADD@Z 0000000180038900 f i entry.obj
 0001:00037900       ?dec@?$string@$06$0BFP@@xorstr_impl@@AEBADD@Z 0000000180038900 f i entry.obj
 0001:00037900       ?dec@?$string@$0L@$0IL@@xorstr_impl@@AEBADD@Z 0000000180038900 f i entry.obj
 0001:00037900       ?enc@?$string@$06$0JI@@xorstr_impl@@AEBADD@Z 0000000180038900 f i entry.obj
 0001:00037900       ?enc@?$string@$0BC@$0KN@@xorstr_impl@@AEBADD@Z 0000000180038900 f i entry.obj
 0001:00037900       ?enc@?$string@$03$0MD@@xorstr_impl@@AEBADD@Z 0000000180038900 f i entry.obj
 0001:00037900       ?dec@?$string@$07$0FD@@xorstr_impl@@AEBADD@Z 0000000180038900 f i entry.obj
 0001:00037900       ?dec@?$string@$0BD@$0LB@@xorstr_impl@@AEBADD@Z 0000000180038900 f i entry.obj
 0001:00037900       ?enc@?$string@$07$0MM@@xorstr_impl@@AEBADD@Z 0000000180038900 f i entry.obj
 0001:00037900       ?dec@?$string@$06$0IM@@xorstr_impl@@AEBADD@Z 0000000180038900 f i entry.obj
 0001:00037900       ?dec@?$string@$0BB@$0KO@@xorstr_impl@@AEBADD@Z 0000000180038900 f i entry.obj
 0001:00037900       ?enc@?$string@$08$0IF@@xorstr_impl@@AEBADD@Z 0000000180038900 f i entry.obj
 0001:00037900       ?enc@?$string@$0M@$0LE@@xorstr_impl@@AEBADD@Z 0000000180038900 f i entry.obj
 0001:00037900       ?enc@?$string@$08$0LF@@xorstr_impl@@AEBADD@Z 0000000180038900 f i entry.obj
 0001:00037900       ?dec@?$string@$0BE@$0LI@@xorstr_impl@@AEBADD@Z 0000000180038900 f i entry.obj
 0001:00037900       ?dec@?$string@$0N@$0LO@@xorstr_impl@@AEBADD@Z 0000000180038900 f i entry.obj
 0001:00037900       ?dec@?$string@$0L@$0BGF@@xorstr_impl@@AEBADD@Z 0000000180038900 f i entry.obj
 0001:00037900       ?dec@?$string@$0N@$0BGA@@xorstr_impl@@AEBADD@Z 0000000180038900 f i entry.obj
 0001:00037900       ?dec@?$string@$0P@$0ML@@xorstr_impl@@AEBADD@Z 0000000180038900 f i entry.obj
 0001:00037900       ?enc@?$string@$08$0HC@@xorstr_impl@@AEBADD@Z 0000000180038900 f i entry.obj
 0001:00037900       ?enc@?$string@$0BG@$0IB@@xorstr_impl@@AEBADD@Z 0000000180038900 f i entry.obj
 0001:00037900       ?enc@?$string@$09$0HM@@xorstr_impl@@AEBADD@Z 0000000180038900 f i entry.obj
 0001:00037900       ?dec@?$string@$02$0FE@@xorstr_impl@@AEBADD@Z 0000000180038900 f i entry.obj
 0001:00037900       ?dec@?$string@$0N@$0MA@@xorstr_impl@@AEBADD@Z 0000000180038900 f i entry.obj
 0001:00037900       ?dec@?$string@$0BG@$0IB@@xorstr_impl@@AEBADD@Z 0000000180038900 f i entry.obj
 0001:00037900       ?dec@?$string@$0BA@$0KK@@xorstr_impl@@AEBADD@Z 0000000180038900 f i entry.obj
 0001:00037910       ??1?$vector@U?$pair@PEAVTransform@@M@std@@V?$allocator@U?$pair@PEAVTransform@@M@std@@@2@@std@@QEAA@XZ 0000000180038910 f i entry.obj
 0001:00037970       ?get@?$List@PEAVItem@@@System@@QEAAPEAPEAVItem@@I@Z 0000000180038970 f i entry.obj
 0001:000379a0       ??A?$map@_KPEAVBoneCache@@U?$less@_K@std@@V?$allocator@U?$pair@$$CB_KPEAVBoneCache@@@std@@@3@@std@@QEAAAEAPEAVBoneCache@@AEB_K@Z 00000001800389a0 f i entry.obj
 0001:00037aa0       ??0?$map@_KPEAVBoneCache@@U?$less@_K@std@@V?$allocator@U?$pair@$$CB_KPEAVBoneCache@@@std@@@3@@std@@QEAA@AEBV01@@Z 0000000180038aa0 f i entry.obj
 0001:00037b80       ??A?$map@I_KU?$less@I@std@@V?$allocator@U?$pair@$$CBI_K@std@@@2@@std@@QEAAAEA_KAEBI@Z 0000000180038b80 f i entry.obj
 0001:00037c80       ??0?$map@I_KU?$less@I@std@@V?$allocator@U?$pair@$$CBI_K@std@@@2@@std@@QEAA@AEBV01@@Z 0000000180038c80 f i entry.obj
 0001:00037d60       ??A?$array@D$0BJ@@std@@QEAAAEAD_K@Z 0000000180038d60 f i entry.obj
 0001:00037d60       ??A?$array@D$0BB@@std@@QEAAAEAD_K@Z 0000000180038d60 f i entry.obj
 0001:00037d60       ??A?$array@D$0L@@std@@QEAAAEAD_K@Z 0000000180038d60 f i entry.obj
 0001:00037d60       ??A?$array@D$09@std@@QEAAAEAD_K@Z 0000000180038d60 f i entry.obj
 0001:00037d60       ??A?$array@D$0BF@@std@@QEAAAEAD_K@Z 0000000180038d60 f i entry.obj
 0001:00037d60       ??A?$array@D$0BA@@std@@QEAAAEAD_K@Z 0000000180038d60 f i entry.obj
 0001:00037d60       ??A?$array@D$08@std@@QEAAAEAD_K@Z 0000000180038d60 f i entry.obj
 0001:00037d60       ??A?$array@D$0BH@@std@@QEAAAEAD_K@Z 0000000180038d60 f i entry.obj
 0001:00037d60       ??A?$array@D$0P@@std@@QEAAAEAD_K@Z 0000000180038d60 f i entry.obj
 0001:00037d60       ??A?$array@D$0N@@std@@QEAAAEAD_K@Z 0000000180038d60 f i entry.obj
 0001:00037d60       ??A?$array@D$03@std@@QEAAAEAD_K@Z 0000000180038d60 f i entry.obj
 0001:00037d60       ??A?$array@D$06@std@@QEAAAEAD_K@Z 0000000180038d60 f i entry.obj
 0001:00037d60       ??A?$array@D$0BG@@std@@QEAAAEAD_K@Z 0000000180038d60 f i entry.obj
 0001:00037d60       ??A?$array@D$04@std@@QEAAAEAD_K@Z 0000000180038d60 f i entry.obj
 0001:00037d60       ??A?$array@D$05@std@@QEAAAEAD_K@Z 0000000180038d60 f i entry.obj
 0001:00037d60       ??A?$array@D$0BC@@std@@QEAAAEAD_K@Z 0000000180038d60 f i entry.obj
 0001:00037d60       ??A?$array@D$0BD@@std@@QEAAAEAD_K@Z 0000000180038d60 f i entry.obj
 0001:00037d60       ??A?$array@D$07@std@@QEAAAEAD_K@Z 0000000180038d60 f i entry.obj
 0001:00037d60       ??A?$array@D$0M@@std@@QEAAAEAD_K@Z 0000000180038d60 f i entry.obj
 0001:00037d60       ??A?$array@D$0BE@@std@@QEAAAEAD_K@Z 0000000180038d60 f i entry.obj
 0001:00037d60       ??A?$array@D$0O@@std@@QEAAAEAD_K@Z 0000000180038d60 f i entry.obj
 0001:00037d60       ??A?$array@D$0BL@@std@@QEAAAEAD_K@Z 0000000180038d60 f i entry.obj
 0001:00037d60       ??A?$array@D$0BI@@std@@QEAAAEAD_K@Z 0000000180038d60 f i entry.obj
 0001:00037d70       ??1?$_Hash_vec@V?$allocator@V?$_List_unchecked_iterator@V?$_List_val@U?$_List_simple_types@U?$pair@$$CBV?$basic_string@DU?$char_traits@D@std@@V?$allocator@D@2@@std@@V?$shared_ptr@VCColorPicker@FGUI@@@2@@std@@@std@@@std@@@std@@@std@@@std@@QEAA@XZ 0000000180038d70 f i entry.obj
 0001:00037d70       ??1?$_Hash_vec@V?$allocator@V?$_List_unchecked_iterator@V?$_List_val@U?$_List_simple_types@U?$pair@$$CBV?$basic_string@DU?$char_traits@D@std@@V?$allocator@D@2@@std@@V?$shared_ptr@VCContainer@FGUI@@@2@@std@@@std@@@std@@@std@@@std@@@std@@QEAA@XZ 0000000180038d70 f i entry.obj
 0001:00037d70       ??1?$_Hash_vec@V?$allocator@V?$_List_unchecked_iterator@V?$_List_val@U?$_List_simple_types@U?$pair@$$CBV?$basic_string@DU?$char_traits@D@std@@V?$allocator@D@2@@std@@V?$shared_ptr@VCSlider@FGUI@@@2@@std@@@std@@@std@@@std@@@std@@@std@@QEAA@XZ 0000000180038d70 f i entry.obj
 0001:00037d70       ??1?$_Hash_vec@V?$allocator@V?$_List_unchecked_iterator@V?$_List_val@U?$_List_simple_types@U?$pair@$$CBV?$basic_string@DU?$char_traits@D@std@@V?$allocator@D@2@@std@@V?$shared_ptr@VCCheckBox@FGUI@@@2@@std@@@std@@@std@@@std@@@std@@@std@@QEAA@XZ 0000000180038d70 f i entry.obj
 0001:00037d70       ??1?$_Hash_vec@V?$allocator@V?$_List_unchecked_iterator@V?$_List_val@U?$_List_simple_types@U?$pair@$$CBV?$basic_string@DU?$char_traits@D@std@@V?$allocator@D@2@@std@@V?$shared_ptr@VCLabel@FGUI@@@2@@std@@@std@@@std@@@std@@@std@@@std@@QEAA@XZ 0000000180038d70 f i entry.obj
 0001:00037d70       ??1?$_Hash_vec@V?$allocator@V?$_List_unchecked_iterator@V?$_List_val@U?$_List_simple_types@U?$pair@$$CBV?$basic_string@DU?$char_traits@D@std@@V?$allocator@D@2@@std@@V?$shared_ptr@VCButton@FGUI@@@2@@std@@@std@@@std@@@std@@@std@@@std@@QEAA@XZ 0000000180038d70 f i entry.obj
 0001:00037d70       ??1?$_Hash_vec@V?$allocator@V?$_List_unchecked_iterator@V?$_List_val@U?$_List_simple_types@U?$pair@$$CBV?$basic_string@DU?$char_traits@D@std@@V?$allocator@D@2@@std@@V?$shared_ptr@VCTextBox@FGUI@@@2@@std@@@std@@@std@@@std@@@std@@@std@@QEAA@XZ 0000000180038d70 f i entry.obj
 0001:00037d70       ??1?$_Hash_vec@V?$allocator@V?$_List_unchecked_iterator@V?$_List_val@U?$_List_simple_types@U?$pair@$$CBV?$basic_string@DU?$char_traits@D@std@@V?$allocator@D@2@@std@@V?$shared_ptr@VCComboBox@FGUI@@@2@@std@@@std@@@std@@@std@@@std@@@std@@QEAA@XZ 0000000180038d70 f i entry.obj
 0001:00037d70       ??1?$_Hash_vec@V?$allocator@V?$_List_unchecked_iterator@V?$_List_val@U?$_List_simple_types@U?$pair@$$CBV?$basic_string@DU?$char_traits@D@std@@V?$allocator@D@2@@std@@V?$shared_ptr@VCKeyBinder@FGUI@@@2@@std@@@std@@@std@@@std@@@std@@@std@@QEAA@XZ 0000000180038d70 f i entry.obj
 0001:00037dd0       ??1?$list@U?$pair@$$CBV?$basic_string@DU?$char_traits@D@std@@V?$allocator@D@2@@std@@V?$shared_ptr@VCColorPicker@FGUI@@@2@@std@@V?$allocator@U?$pair@$$CBV?$basic_string@DU?$char_traits@D@std@@V?$allocator@D@2@@std@@V?$shared_ptr@VCColorPicker@FGUI@@@2@@std@@@2@@std@@QEAA@XZ 0000000180038dd0 f i entry.obj
 0001:00037dd0       ??1?$list@U?$pair@$$CBV?$basic_string@DU?$char_traits@D@std@@V?$allocator@D@2@@std@@V?$shared_ptr@VCTextBox@FGUI@@@2@@std@@V?$allocator@U?$pair@$$CBV?$basic_string@DU?$char_traits@D@std@@V?$allocator@D@2@@std@@V?$shared_ptr@VCTextBox@FGUI@@@2@@std@@@2@@std@@QEAA@XZ 0000000180038dd0 f i entry.obj
 0001:00037dd0       ??1?$list@U?$pair@$$CBV?$basic_string@DU?$char_traits@D@std@@V?$allocator@D@2@@std@@V?$shared_ptr@VCSlider@FGUI@@@2@@std@@V?$allocator@U?$pair@$$CBV?$basic_string@DU?$char_traits@D@std@@V?$allocator@D@2@@std@@V?$shared_ptr@VCSlider@FGUI@@@2@@std@@@2@@std@@QEAA@XZ 0000000180038dd0 f i entry.obj
 0001:00037dd0       ??1?$list@U?$pair@$$CBV?$basic_string@DU?$char_traits@D@std@@V?$allocator@D@2@@std@@V?$shared_ptr@VCComboBox@FGUI@@@2@@std@@V?$allocator@U?$pair@$$CBV?$basic_string@DU?$char_traits@D@std@@V?$allocator@D@2@@std@@V?$shared_ptr@VCComboBox@FGUI@@@2@@std@@@2@@std@@QEAA@XZ 0000000180038dd0 f i entry.obj
 0001:00037dd0       ??1?$list@U?$pair@$$CBV?$basic_string@DU?$char_traits@D@std@@V?$allocator@D@2@@std@@V?$shared_ptr@VCKeyBinder@FGUI@@@2@@std@@V?$allocator@U?$pair@$$CBV?$basic_string@DU?$char_traits@D@std@@V?$allocator@D@2@@std@@V?$shared_ptr@VCKeyBinder@FGUI@@@2@@std@@@2@@std@@QEAA@XZ 0000000180038dd0 f i entry.obj
 0001:00037dd0       ??1?$list@U?$pair@$$CBV?$basic_string@DU?$char_traits@D@std@@V?$allocator@D@2@@std@@V?$shared_ptr@VCCheckBox@FGUI@@@2@@std@@V?$allocator@U?$pair@$$CBV?$basic_string@DU?$char_traits@D@std@@V?$allocator@D@2@@std@@V?$shared_ptr@VCCheckBox@FGUI@@@2@@std@@@2@@std@@QEAA@XZ 0000000180038dd0 f i entry.obj
 0001:00037dd0       ??1?$list@U?$pair@$$CBV?$basic_string@DU?$char_traits@D@std@@V?$allocator@D@2@@std@@V?$shared_ptr@VCButton@FGUI@@@2@@std@@V?$allocator@U?$pair@$$CBV?$basic_string@DU?$char_traits@D@std@@V?$allocator@D@2@@std@@V?$shared_ptr@VCButton@FGUI@@@2@@std@@@2@@std@@QEAA@XZ 0000000180038dd0 f i entry.obj
 0001:00037dd0       ??1?$list@U?$pair@$$CBV?$basic_string@DU?$char_traits@D@std@@V?$allocator@D@2@@std@@V?$shared_ptr@VCLabel@FGUI@@@2@@std@@V?$allocator@U?$pair@$$CBV?$basic_string@DU?$char_traits@D@std@@V?$allocator@D@2@@std@@V?$shared_ptr@VCLabel@FGUI@@@2@@std@@@2@@std@@QEAA@XZ 0000000180038dd0 f i entry.obj
 0001:00037e40       ??1?$list@U?$pair@$$CBV?$basic_string@DU?$char_traits@D@std@@V?$allocator@D@2@@std@@V?$shared_ptr@VCContainer@FGUI@@@2@@std@@V?$allocator@U?$pair@$$CBV?$basic_string@DU?$char_traits@D@std@@V?$allocator@D@2@@std@@V?$shared_ptr@VCContainer@FGUI@@@2@@std@@@2@@std@@QEAA@XZ 0000000180038e40 f i entry.obj
 0001:00037eb0       ??4?$shared_ptr@VCTabPanel@FGUI@@@std@@QEAAAEAV01@$$QEAV01@@Z 0000000180038eb0 f i entry.obj
 0001:00037f40       ??4?$shared_ptr@VCKeyBinder@FGUI@@@std@@QEAAAEAV01@$$QEAV01@@Z 0000000180038f40 f i entry.obj
 0001:00037f40       ??4?$shared_ptr@VCColorPicker@FGUI@@@std@@QEAAAEAV01@$$QEAV01@@Z 0000000180038f40 f i entry.obj
 0001:00037fc0       ??4?$shared_ptr@VCContainer@FGUI@@@std@@QEAAAEAV01@$$QEAV01@@Z 0000000180038fc0 f i entry.obj
 0001:00038050       ??0?$initializer_list@V?$basic_string@DU?$char_traits@D@std@@V?$allocator@D@2@@std@@@std@@QEAA@PEBV?$basic_string@DU?$char_traits@D@std@@V?$allocator@D@2@@1@0@Z 0000000180039050 f i entry.obj
 0001:00038060       ??$emplace_back@H@?$vector@HV?$allocator@H@std@@@std@@QEAA?A_T$$QEAH@Z 0000000180039060 f i entry.obj
 0001:00038090       ?_Tidy@?$vector@HV?$allocator@H@std@@@std@@AEAAXXZ 0000000180039090 f i entry.obj
 0001:00038090       ??1?$vector@_NV?$allocator@_N@std@@@std@@QEAA@XZ 0000000180039090 f i container.obj
 0001:00038090       ??1?$vector@HV?$allocator@H@std@@@std@@QEAA@XZ 0000000180039090 f i entry.obj
 0001:000380f0       ??1?$basic_istream@DU?$char_traits@D@std@@@std@@UEAA@XZ 00000001800390f0 f i entry.obj
 0001:00038120       ?GetAutoSignalPropagation@?$AutoSignaling@V?$InputRejecting@VBufferedTransformation@CryptoPP@@@CryptoPP@@@CryptoPP@@UEBAHXZ 0000000180039120 f i entry.obj
 0001:00038130       ?SetAutoSignalPropagation@?$AutoSignaling@V?$InputRejecting@VBufferedTransformation@CryptoPP@@@CryptoPP@@@CryptoPP@@UEAAXH@Z 0000000180039130 f i entry.obj
 0001:00038140       ?IsolatedMessageSeriesEnd@?$InputRejecting@VBufferedTransformation@CryptoPP@@@CryptoPP@@UEAA_N_N@Z 0000000180039140 f i entry.obj
 0001:00038140       ?ChannelPut2@?$InputRejecting@VBufferedTransformation@CryptoPP@@@CryptoPP@@UEAA_KAEBV?$basic_string@DU?$char_traits@D@std@@V?$allocator@D@2@@std@@PEBE_KH_N@Z 0000000180039140 f i entry.obj
 0001:00038140       ?Put2@?$InputRejecting@VBufferedTransformation@CryptoPP@@@CryptoPP@@UEAA_KPEBE_KH_N@Z 0000000180039140 f i entry.obj
 0001:00038140       ?ChannelMessageSeriesEnd@?$InputRejecting@VBufferedTransformation@CryptoPP@@@CryptoPP@@UEAA_NAEBV?$basic_string@DU?$char_traits@D@std@@V?$allocator@D@2@@std@@H_N@Z 0000000180039140 f i entry.obj
 0001:00038160       ??1?$vector@V?$basic_string@DU?$char_traits@D@std@@V?$allocator@D@2@@std@@V?$allocator@V?$basic_string@DU?$char_traits@D@std@@V?$allocator@D@2@@std@@@2@@std@@QEAA@XZ 0000000180039160 f i entry.obj
 0001:00038170       ??0?$vector@V?$basic_string@DU?$char_traits@D@std@@V?$allocator@D@2@@std@@V?$allocator@V?$basic_string@DU?$char_traits@D@std@@V?$allocator@D@2@@std@@@2@@std@@QEAA@V?$initializer_list@V?$basic_string@DU?$char_traits@D@std@@V?$allocator@D@2@@std@@@1@AEBV?$allocator@V?$basic_string@DU?$char_traits@D@std@@V?$allocator@D@2@@std@@@1@@Z 0000000180039170 f i entry.obj
 0001:00038200       ?do_max_length@?$codecvt_utf8@_W$0BAPPPP@$0A@@std@@MEBAHXZ 0000000180039200 f i entry.obj
 0001:00038210       ?do_length@?$codecvt_utf8@_W$0BAPPPP@$0A@@std@@MEBAHAEAU_Mbstatet@@PEBD1_K@Z 0000000180039210 f i entry.obj
 0001:00038390       ?do_unshift@?$codecvt@DDU_Mbstatet@@@std@@MEBAHAEAU_Mbstatet@@PEAD1AEAPEAD@Z 0000000180039390 f i entry.obj
 0001:00038390       ?do_unshift@?$codecvt_utf8@_W$0BAPPPP@$0A@@std@@MEBAHAEAU_Mbstatet@@PEAD1AEAPEAD@Z 0000000180039390 f i entry.obj
 0001:000383a0       ?do_out@?$codecvt_utf8@_W$0BAPPPP@$0A@@std@@MEBAHAEAU_Mbstatet@@PEB_W1AEAPEB_WPEAD3AEAPEAD@Z 00000001800393a0 f i entry.obj
 0001:000384d0       ?do_in@?$codecvt_utf8@_W$0BAPPPP@$0A@@std@@MEBAHAEAU_Mbstatet@@PEBD1AEAPEBDPEA_W3AEAPEA_W@Z 00000001800394d0 f i entry.obj
 0001:00038630       ??1?$wstring_convert@V?$codecvt_utf8@_W$0BAPPPP@$0A@@std@@_WV?$allocator@_W@2@V?$allocator@D@2@@std@@UEAA@XZ 0000000180039630 f i entry.obj
 0001:00038720       ??0?$wstring_convert@V?$codecvt_utf8@_W$0BAPPPP@$0A@@std@@_WV?$allocator@_W@2@V?$allocator@D@2@@std@@QEAA@XZ 0000000180039720 f i entry.obj
 0001:00038a20       ??1?$unique_ptr@$$BY0A@_WU?$default_delete@$$BY0A@_W@std@@@std@@QEAA@XZ 0000000180039a20 f i entry.obj
 0001:00038a30       ?seekoff@?$basic_streambuf@DU?$char_traits@D@std@@@std@@MEAA?AV?$fpos@U_Mbstatet@@@2@_JHH@Z 0000000180039a30 f i entry.obj
 0001:00038a30       ?seekpos@?$basic_streambuf@DU?$char_traits@D@std@@@std@@MEAA?AV?$fpos@U_Mbstatet@@@2@V32@H@Z 0000000180039a30 f i entry.obj
 0001:00038a50       ?xsputn@?$basic_streambuf@DU?$char_traits@D@std@@@std@@MEAA_JPEBD_J@Z 0000000180039a50 f i entry.obj
 0001:00038b00       ?xsgetn@?$basic_streambuf@DU?$char_traits@D@std@@@std@@MEAA_JPEAD_J@Z 0000000180039b00 f i entry.obj
 0001:00038bb0       ?uflow@?$basic_streambuf@DU?$char_traits@D@std@@@std@@MEAAHXZ 0000000180039bb0 f i entry.obj
 0001:00038bf0       ?pbackfail@?$basic_streambuf@DU?$char_traits@D@std@@@std@@MEAAHH@Z 0000000180039bf0 f i entry.obj
 0001:00038bf0       ?underflow@?$basic_streambuf@DU?$char_traits@D@std@@@std@@MEAAHXZ 0000000180039bf0 f i entry.obj
 0001:00038bf0       ?overflow@?$basic_streambuf@DU?$char_traits@D@std@@@std@@MEAAHH@Z 0000000180039bf0 f i entry.obj
 0001:00038c00       ??1?$basic_ios@DU?$char_traits@D@std@@@std@@UEAA@XZ 0000000180039c00 f i entry.obj
 0001:00038c20       ??1?$_Yarn@D@std@@QEAA@XZ  0000000180039c20 f i entry.obj
 0001:00038c20       ??1?$_Yarn@_W@std@@QEAA@XZ 0000000180039c20 f i entry.obj
 0001:00038c50       ??4?$_Yarn@D@std@@QEAAAEAV01@PEBD@Z 0000000180039c50 f i entry.obj
 0001:00038ce0       ?find@?$basic_string@_WU?$char_traits@_W@std@@V?$allocator@_W@2@@std@@QEBA_KQEB_W_K@Z 0000000180039ce0 f i entry.obj
 0001:00038df0       ?append@?$basic_string@_WU?$char_traits@_W@std@@V?$allocator@_W@2@@std@@QEAAAEAV12@QEB_W_K@Z 0000000180039df0 f i entry.obj
 0001:00038e80       ??0?$basic_string@_WU?$char_traits@_W@std@@V?$allocator@_W@2@@std@@QEAA@AEBV01@@Z 0000000180039e80 f i entry.obj
 0001:00038f70       ?substr@?$basic_string@DU?$char_traits@D@std@@V?$allocator@D@2@@std@@QEBA?AV12@_K0@Z 0000000180039f70 f i entry.obj
 0001:00038fd0       ?find@?$basic_string@DU?$char_traits@D@std@@V?$allocator@D@2@@std@@QEBA_KQEBD_K@Z 0000000180039fd0 f i entry.obj
 0001:00039010       ?resize@?$basic_string@DU?$char_traits@D@std@@V?$allocator@D@2@@std@@QEAAX_KD@Z 000000018003a010 f i entry.obj
 0001:000390b0       ?size@?$basic_string@DU?$char_traits@D@std@@V?$allocator@D@2@@std@@QEBA_KXZ 000000018003a0b0 f i entry.obj
 0001:000390c0       ??A?$basic_string@DU?$char_traits@D@std@@V?$allocator@D@2@@std@@QEAAAEAD_K@Z 000000018003a0c0 f i entry.obj
 0001:000390e0       ??Y?$basic_string@DU?$char_traits@D@std@@V?$allocator@D@2@@std@@QEAAAEAV01@D@Z 000000018003a0e0 f i entry.obj
 0001:00039140       ??4?$basic_string@DU?$char_traits@D@std@@V?$allocator@D@2@@std@@QEAAAEAV01@$$QEAV01@@Z 000000018003a140 f i entry.obj
 0001:000391e0       ??0?$basic_string@DU?$char_traits@D@std@@V?$allocator@D@2@@std@@QEAA@QEBD@Z 000000018003a1e0 f i entry.obj
 0001:00039220       ??0?$basic_string_view@_WU?$char_traits@_W@std@@@std@@QEAA@QEB_W@Z 000000018003a220 f i entry.obj
 0001:00039250       ??_G?$basic_filebuf@DU?$char_traits@D@std@@@std@@UEAAPEAXI@Z 000000018003a250 f i entry.obj
 0001:00039250       ??_E?$basic_filebuf@DU?$char_traits@D@std@@@std@@UEAAPEAXI@Z 000000018003a250 f i * CIL library *:* CIL module *
 0001:00039290       ??_G?$basic_ifstream@DU?$char_traits@D@std@@@std@@UEAAPEAXI@Z 000000018003a290 f i entry.obj
 0001:00039290       ??_E?$basic_ifstream@DU?$char_traits@D@std@@@std@@UEAAPEAXI@Z 000000018003a290 f i * CIL library *:* CIL module *
 0001:000392d0       ??_G?$basic_istream@DU?$char_traits@D@std@@@std@@UEAAPEAXI@Z 000000018003a2d0 f i entry.obj
 0001:000392d0       ??_E?$basic_istream@DU?$char_traits@D@std@@@std@@UEAAPEAXI@Z 000000018003a2d0 f i * CIL library *:* CIL module *
 0001:00039340       ??0InputRejected@?$InputRejecting@VBufferedTransformation@CryptoPP@@@CryptoPP@@QEAA@AEBU012@@Z 000000018003a340 f i entry.obj
 0001:000393b0       ??_G?$wstring_convert@V?$codecvt_utf8@_W$0BAPPPP@$0A@@std@@_WV?$allocator@_W@2@V?$allocator@D@2@@std@@UEAAPEAXI@Z 000000018003a3b0 f i entry.obj
 0001:000393b0       ??_E?$wstring_convert@V?$codecvt_utf8@_W$0BAPPPP@$0A@@std@@_WV?$allocator@_W@2@V?$allocator@D@2@@std@@UEAAPEAXI@Z 000000018003a3b0 f i * CIL library *:* CIL module *
 0001:000393f0       ??_E?$basic_streambuf@DU?$char_traits@D@std@@@std@@UEAAPEAXI@Z 000000018003a3f0 f i * CIL library *:* CIL module *
 0001:000393f0       ??_G?$basic_streambuf@DU?$char_traits@D@std@@@std@@UEAAPEAXI@Z 000000018003a3f0 f i entry.obj
 0001:00039470       ??_G?$basic_ios@DU?$char_traits@D@std@@@std@@UEAAPEAXI@Z 000000018003a470 f i entry.obj
 0001:00039470       ??_E?$basic_ios@DU?$char_traits@D@std@@@std@@UEAAPEAXI@Z 000000018003a470 f i * CIL library *:* CIL module *
 0001:000394b0       ??0InputRejected@?$InputRejecting@VBufferedTransformation@CryptoPP@@@CryptoPP@@QEAA@XZ 000000018003a4b0 f i entry.obj
 0001:00039580       ?do_length@?$codecvt@DDU_Mbstatet@@@std@@MEBAHAEAU_Mbstatet@@PEBD1_K@Z 000000018003a580 f i entry.obj
 0001:000395a0       ?do_out@?$codecvt@DDU_Mbstatet@@@std@@MEBAHAEAU_Mbstatet@@PEBD1AEAPEBDPEAD3AEAPEAD@Z 000000018003a5a0 f i entry.obj
 0001:000395a0       ?do_in@?$codecvt@DDU_Mbstatet@@@std@@MEBAHAEAU_Mbstatet@@PEBD1AEAPEBDPEAD3AEAPEAD@Z 000000018003a5a0 f i entry.obj
 0001:000395c0       ?do_always_noconv@?$codecvt@DDU_Mbstatet@@@std@@MEBA_NXZ 000000018003a5c0 f i entry.obj
 0001:000395c0       __acrt_uninitialize_command_line 000000018003a5c0 f i libucrt:argv_data.obj
 0001:000395c0       ?CPU_ProbeSSE2@CryptoPP@@YA_NXZ 000000018003a5c0 f i cryptlib:sse_simd.obj
 0001:000395d0       ?_Initcvt@?$basic_filebuf@DU?$char_traits@D@std@@@std@@IEAAXAEBV?$codecvt@DDU_Mbstatet@@@2@@Z 000000018003a5d0 f i entry.obj
 0001:00039650       ?_Endwrite@?$basic_filebuf@DU?$char_traits@D@std@@@std@@IEAA_NXZ 000000018003a650 f i entry.obj
 0001:00039740       ?_Init@?$basic_filebuf@DU?$char_traits@D@std@@@std@@IEAAXPEAU_iobuf@@W4_Initfl@12@@Z 000000018003a740 f i entry.obj
 0001:00039840       ?clear@?$_Hash@V?$_Umap_traits@V?$basic_string@DU?$char_traits@D@std@@V?$allocator@D@2@@std@@V?$shared_ptr@VCSlider@FGUI@@@2@V?$_Uhash_compare@V?$basic_string@DU?$char_traits@D@std@@V?$allocator@D@2@@std@@U?$hash@V?$basic_string@DU?$char_traits@D@std@@V?$allocator@D@2@@std@@@2@U?$equal_to@V?$basic_string@DU?$char_traits@D@std@@V?$allocator@D@2@@std@@@2@@2@V?$allocator@U?$pair@$$CBV?$basic_string@DU?$char_traits@D@std@@V?$allocator@D@2@@std@@V?$shared_ptr@VCSlider@FGUI@@@2@@std@@@2@$0A@@std@@@std@@QEAAXXZ 000000018003a840 f i entry.obj
 0001:00039840       ?clear@?$_Hash@V?$_Umap_traits@V?$basic_string@DU?$char_traits@D@std@@V?$allocator@D@2@@std@@V?$shared_ptr@VCKeyBinder@FGUI@@@2@V?$_Uhash_compare@V?$basic_string@DU?$char_traits@D@std@@V?$allocator@D@2@@std@@U?$hash@V?$basic_string@DU?$char_traits@D@std@@V?$allocator@D@2@@std@@@2@U?$equal_to@V?$basic_string@DU?$char_traits@D@std@@V?$allocator@D@2@@std@@@2@@2@V?$allocator@U?$pair@$$CBV?$basic_string@DU?$char_traits@D@std@@V?$allocator@D@2@@std@@V?$shared_ptr@VCKeyBinder@FGUI@@@2@@std@@@2@$0A@@std@@@std@@QEAAXXZ 000000018003a840 f i entry.obj
 0001:00039840       ?clear@?$_Hash@V?$_Umap_traits@V?$basic_string@DU?$char_traits@D@std@@V?$allocator@D@2@@std@@V?$shared_ptr@VCComboBox@FGUI@@@2@V?$_Uhash_compare@V?$basic_string@DU?$char_traits@D@std@@V?$allocator@D@2@@std@@U?$hash@V?$basic_string@DU?$char_traits@D@std@@V?$allocator@D@2@@std@@@2@U?$equal_to@V?$basic_string@DU?$char_traits@D@std@@V?$allocator@D@2@@std@@@2@@2@V?$allocator@U?$pair@$$CBV?$basic_string@DU?$char_traits@D@std@@V?$allocator@D@2@@std@@V?$shared_ptr@VCComboBox@FGUI@@@2@@std@@@2@$0A@@std@@@std@@QEAAXXZ 000000018003a840 f i entry.obj
 0001:00039840       ?clear@?$_Hash@V?$_Umap_traits@V?$basic_string@DU?$char_traits@D@std@@V?$allocator@D@2@@std@@V?$shared_ptr@VCButton@FGUI@@@2@V?$_Uhash_compare@V?$basic_string@DU?$char_traits@D@std@@V?$allocator@D@2@@std@@U?$hash@V?$basic_string@DU?$char_traits@D@std@@V?$allocator@D@2@@std@@@2@U?$equal_to@V?$basic_string@DU?$char_traits@D@std@@V?$allocator@D@2@@std@@@2@@2@V?$allocator@U?$pair@$$CBV?$basic_string@DU?$char_traits@D@std@@V?$allocator@D@2@@std@@V?$shared_ptr@VCButton@FGUI@@@2@@std@@@2@$0A@@std@@@std@@QEAAXXZ 000000018003a840 f i entry.obj
 0001:00039840       ?clear@?$_Hash@V?$_Umap_traits@V?$basic_string@DU?$char_traits@D@std@@V?$allocator@D@2@@std@@V?$shared_ptr@VCColorPicker@FGUI@@@2@V?$_Uhash_compare@V?$basic_string@DU?$char_traits@D@std@@V?$allocator@D@2@@std@@U?$hash@V?$basic_string@DU?$char_traits@D@std@@V?$allocator@D@2@@std@@@2@U?$equal_to@V?$basic_string@DU?$char_traits@D@std@@V?$allocator@D@2@@std@@@2@@2@V?$allocator@U?$pair@$$CBV?$basic_string@DU?$char_traits@D@std@@V?$allocator@D@2@@std@@V?$shared_ptr@VCColorPicker@FGUI@@@2@@std@@@2@$0A@@std@@@std@@QEAAXXZ 000000018003a840 f i entry.obj
 0001:00039840       ?clear@?$_Hash@V?$_Umap_traits@V?$basic_string@DU?$char_traits@D@std@@V?$allocator@D@2@@std@@V?$shared_ptr@VCCheckBox@FGUI@@@2@V?$_Uhash_compare@V?$basic_string@DU?$char_traits@D@std@@V?$allocator@D@2@@std@@U?$hash@V?$basic_string@DU?$char_traits@D@std@@V?$allocator@D@2@@std@@@2@U?$equal_to@V?$basic_string@DU?$char_traits@D@std@@V?$allocator@D@2@@std@@@2@@2@V?$allocator@U?$pair@$$CBV?$basic_string@DU?$char_traits@D@std@@V?$allocator@D@2@@std@@V?$shared_ptr@VCCheckBox@FGUI@@@2@@std@@@2@$0A@@std@@@std@@QEAAXXZ 000000018003a840 f i entry.obj
 0001:00039910       ?clear@?$_Hash@V?$_Umap_traits@V?$basic_string@DU?$char_traits@D@std@@V?$allocator@D@2@@std@@V?$shared_ptr@VCContainer@FGUI@@@2@V?$_Uhash_compare@V?$basic_string@DU?$char_traits@D@std@@V?$allocator@D@2@@std@@U?$hash@V?$basic_string@DU?$char_traits@D@std@@V?$allocator@D@2@@std@@@2@U?$equal_to@V?$basic_string@DU?$char_traits@D@std@@V?$allocator@D@2@@std@@@2@@2@V?$allocator@U?$pair@$$CBV?$basic_string@DU?$char_traits@D@std@@V?$allocator@D@2@@std@@V?$shared_ptr@VCContainer@FGUI@@@2@@std@@@2@$0A@@std@@@std@@QEAAXXZ 000000018003a910 f i entry.obj
 0001:000399e0       ?_Xran@?$array@_N$0BAA@@std@@QEBAXXZ 000000018003a9e0 f i entry.obj
 0001:00039a00       ?_Tidy@?$vector@V?$basic_string@DU?$char_traits@D@std@@V?$allocator@D@2@@std@@V?$allocator@V?$basic_string@DU?$char_traits@D@std@@V?$allocator@D@2@@std@@@2@@std@@AEAAXXZ 000000018003aa00 f i entry.obj
 0001:00039a70       ?to_bytes@?$wstring_convert@V?$codecvt_utf8@_W$0BAPPPP@$0A@@std@@_WV?$allocator@_W@2@V?$allocator@D@2@@std@@QEAA?AV?$basic_string@DU?$char_traits@D@std@@V?$allocator@D@2@@2@PEB_W0@Z 000000018003aa70 f i entry.obj
 0001:00039e80       ?from_bytes@?$wstring_convert@V?$codecvt_utf8@_W$0BAPPPP@$0A@@std@@_WV?$allocator@_W@2@V?$allocator@D@2@@std@@QEAA?AV?$basic_string@_WU?$char_traits@_W@std@@V?$allocator@_W@2@@2@PEBD0@Z 000000018003ae80 f i entry.obj
 0001:0003a2c0       ?_Pnavail@?$basic_streambuf@DU?$char_traits@D@std@@@std@@IEBA_JXZ 000000018003b2c0 f i entry.obj
 0001:0003a2e0       ?_Gnavail@?$basic_streambuf@DU?$char_traits@D@std@@@std@@IEBA_JXZ 000000018003b2e0 f i entry.obj
 0001:0003a300       ?assign@?$basic_string@_WU?$char_traits@_W@std@@V?$allocator@_W@2@@std@@QEAAAEAV12@QEB_W@Z 000000018003b300 f i entry.obj
 0001:0003a320       ?assign@?$basic_string@_WU?$char_traits@_W@std@@V?$allocator@_W@2@@std@@QEAAAEAV12@QEB_W_K@Z 000000018003b320 f i entry.obj
 0001:0003a4a0       ?append@?$basic_string@_WU?$char_traits@_W@std@@V?$allocator@_W@2@@std@@QEAAAEAV12@_K_W@Z 000000018003b4a0 f i entry.obj
 0001:0003a520       ?_Construct_lv_contents@?$basic_string@_WU?$char_traits@_W@std@@V?$allocator@_W@2@@std@@AEAAXAEBV12@@Z 000000018003b520 f i entry.obj
 0001:0003a610       ?assign@?$basic_string@DU?$char_traits@D@std@@V?$allocator@D@2@@std@@QEAAAEAV12@QEBD@Z 000000018003b610 f i entry.obj
 0001:0003a630       ?append@?$basic_string@DU?$char_traits@D@std@@V?$allocator@D@2@@std@@QEAAAEAV12@_KD@Z 000000018003b630 f i entry.obj
 0001:0003a6b0       ??_G?$messages@_W@std@@MEAAPEAXI@Z 000000018003b6b0 f i libcpmt:wlocale.obj
 0001:0003a6b0       ??_E?$messages@D@std@@MEAAPEAXI@Z 000000018003b6b0 f i libcpmt:xlocale.obj
 0001:0003a6b0       ??_G?$num_get@DV?$istreambuf_iterator@DU?$char_traits@D@std@@@std@@@std@@MEAAPEAXI@Z 000000018003b6b0 f i libcpmt:locale.obj
 0001:0003a6b0       ??_E?$messages@G@std@@MEAAPEAXI@Z 000000018003b6b0 f i libcpmt:wlocale.obj
 0001:0003a6b0       ??_E?$num_put@_WV?$ostreambuf_iterator@_WU?$char_traits@_W@std@@@std@@@std@@MEAAPEAXI@Z 000000018003b6b0 f i libcpmt:wlocale.obj
 0001:0003a6b0       ??_E?$money_get@DV?$istreambuf_iterator@DU?$char_traits@D@std@@@std@@@std@@MEAAPEAXI@Z 000000018003b6b0 f i libcpmt:xlocale.obj
 0001:0003a6b0       ??_G?$num_get@_WV?$istreambuf_iterator@_WU?$char_traits@_W@std@@@std@@@std@@MEAAPEAXI@Z 000000018003b6b0 f i libcpmt:wlocale.obj
 0001:0003a6b0       ??_E?$money_get@GV?$istreambuf_iterator@GU?$char_traits@G@std@@@std@@@std@@MEAAPEAXI@Z 000000018003b6b0 f i libcpmt:wlocale.obj
 0001:0003a6b0       ??_E?$num_put@DV?$ostreambuf_iterator@DU?$char_traits@D@std@@@std@@@std@@MEAAPEAXI@Z 000000018003b6b0 f i cryptlib:asn.obj
 0001:0003a6b0       ??_G?$num_put@DV?$ostreambuf_iterator@DU?$char_traits@D@std@@@std@@@std@@MEAAPEAXI@Z 000000018003b6b0 f i cryptlib:asn.obj
 0001:0003a6b0       ??_G?$money_get@DV?$istreambuf_iterator@DU?$char_traits@D@std@@@std@@@std@@MEAAPEAXI@Z 000000018003b6b0 f i libcpmt:xlocale.obj
 0001:0003a6b0       ??_G?$money_put@GV?$ostreambuf_iterator@GU?$char_traits@G@std@@@std@@@std@@MEAAPEAXI@Z 000000018003b6b0 f i libcpmt:wlocale.obj
 0001:0003a6b0       ??_E?$money_put@GV?$ostreambuf_iterator@GU?$char_traits@G@std@@@std@@@std@@MEAAPEAXI@Z 000000018003b6b0 f i libcpmt:wlocale.obj
 0001:0003a6b0       ??_E?$messages@_W@std@@MEAAPEAXI@Z 000000018003b6b0 f i libcpmt:wlocale.obj
 0001:0003a6b0       ??_G?$messages@D@std@@MEAAPEAXI@Z 000000018003b6b0 f i libcpmt:xlocale.obj
 0001:0003a6b0       ??_G?$money_put@_WV?$ostreambuf_iterator@_WU?$char_traits@_W@std@@@std@@@std@@MEAAPEAXI@Z 000000018003b6b0 f i libcpmt:wlocale.obj
 0001:0003a6b0       ??_G?$num_get@GV?$istreambuf_iterator@GU?$char_traits@G@std@@@std@@@std@@MEAAPEAXI@Z 000000018003b6b0 f i libcpmt:wlocale.obj
 0001:0003a6b0       ??_G?$codecvt@DDU_Mbstatet@@@std@@MEAAPEAXI@Z 000000018003b6b0 f i entry.obj
 0001:0003a6b0       ??_E?$money_get@_WV?$istreambuf_iterator@_WU?$char_traits@_W@std@@@std@@@std@@MEAAPEAXI@Z 000000018003b6b0 f i libcpmt:wlocale.obj
 0001:0003a6b0       ??_E?$num_get@DV?$istreambuf_iterator@DU?$char_traits@D@std@@@std@@@std@@MEAAPEAXI@Z 000000018003b6b0 f i libcpmt:locale.obj
 0001:0003a6b0       ??_E?$num_get@_WV?$istreambuf_iterator@_WU?$char_traits@_W@std@@@std@@@std@@MEAAPEAXI@Z 000000018003b6b0 f i libcpmt:wlocale.obj
 0001:0003a6b0       ??_G?$money_get@_WV?$istreambuf_iterator@_WU?$char_traits@_W@std@@@std@@@std@@MEAAPEAXI@Z 000000018003b6b0 f i libcpmt:wlocale.obj
 0001:0003a6b0       ??_E?$num_get@GV?$istreambuf_iterator@GU?$char_traits@G@std@@@std@@@std@@MEAAPEAXI@Z 000000018003b6b0 f i libcpmt:wlocale.obj
 0001:0003a6b0       ??_E?$codecvt@DDU_Mbstatet@@@std@@MEAAPEAXI@Z 000000018003b6b0 f i * CIL library *:* CIL module *
 0001:0003a6b0       ??_G?$num_put@_WV?$ostreambuf_iterator@_WU?$char_traits@_W@std@@@std@@@std@@MEAAPEAXI@Z 000000018003b6b0 f i libcpmt:wlocale.obj
 0001:0003a6b0       ??_E?$num_put@GV?$ostreambuf_iterator@GU?$char_traits@G@std@@@std@@@std@@MEAAPEAXI@Z 000000018003b6b0 f i libcpmt:wlocale.obj
 0001:0003a6b0       ??_E?$money_put@_WV?$ostreambuf_iterator@_WU?$char_traits@_W@std@@@std@@@std@@MEAAPEAXI@Z 000000018003b6b0 f i libcpmt:wlocale.obj
 0001:0003a6b0       ??_G?$money_put@DV?$ostreambuf_iterator@DU?$char_traits@D@std@@@std@@@std@@MEAAPEAXI@Z 000000018003b6b0 f i libcpmt:xlocale.obj
 0001:0003a6b0       ??_G?$money_get@GV?$istreambuf_iterator@GU?$char_traits@G@std@@@std@@@std@@MEAAPEAXI@Z 000000018003b6b0 f i libcpmt:wlocale.obj
 0001:0003a6b0       ??_G?$num_put@GV?$ostreambuf_iterator@GU?$char_traits@G@std@@@std@@@std@@MEAAPEAXI@Z 000000018003b6b0 f i libcpmt:wlocale.obj
 0001:0003a6b0       ??_G?$messages@G@std@@MEAAPEAXI@Z 000000018003b6b0 f i libcpmt:wlocale.obj
 0001:0003a6b0       ??_E?$money_put@DV?$ostreambuf_iterator@DU?$char_traits@D@std@@@std@@@std@@MEAAPEAXI@Z 000000018003b6b0 f i libcpmt:xlocale.obj
 0001:0003a6e0       ?open@?$basic_filebuf@DU?$char_traits@D@std@@@std@@QEAAPEAV12@PEBDHH@Z 000000018003b6e0 f i entry.obj
 0001:0003a780       ??0?$basic_filebuf@DU?$char_traits@D@std@@@std@@QEAA@XZ 000000018003b780 f i entry.obj
 0001:0003a840       ?seed@?$mersenne_twister@I$0CA@$0CHA@$0BIN@$0BP@$0JJAILANP@$0L@$06$0JNCMFGIA@$0P@$0OPMGAAAA@$0BC@@std@@QEAAXII@Z 000000018003b840 f i entry.obj
 0001:0003a880       ?_Assign_grow@?$_Hash_vec@V?$allocator@V?$_List_unchecked_iterator@V?$_List_val@U?$_List_simple_types@U?$pair@$$CBV?$basic_string@DU?$char_traits@D@std@@V?$allocator@D@2@@std@@V?$shared_ptr@VCKeyBinder@FGUI@@@2@@std@@@std@@@std@@@std@@@std@@@std@@QEAAX_KV?$_List_unchecked_iterator@V?$_List_val@U?$_List_simple_types@U?$pair@$$CBV?$basic_string@DU?$char_traits@D@std@@V?$allocator@D@2@@std@@V?$shared_ptr@VCKeyBinder@FGUI@@@2@@std@@@std@@@std@@@2@@Z 000000018003b880 f i entry.obj
 0001:0003a880       ?_Assign_grow@?$_Hash_vec@V?$allocator@V?$_List_unchecked_iterator@V?$_List_val@U?$_List_simple_types@U?$pair@$$CBV?$basic_string@DU?$char_traits@D@std@@V?$allocator@D@2@@std@@V?$shared_ptr@VCTextBox@FGUI@@@2@@std@@@std@@@std@@@std@@@std@@@std@@QEAAX_KV?$_List_unchecked_iterator@V?$_List_val@U?$_List_simple_types@U?$pair@$$CBV?$basic_string@DU?$char_traits@D@std@@V?$allocator@D@2@@std@@V?$shared_ptr@VCTextBox@FGUI@@@2@@std@@@std@@@std@@@2@@Z 000000018003b880 f i entry.obj
 0001:0003a880       ?_Assign_grow@?$_Hash_vec@V?$allocator@V?$_List_unchecked_iterator@V?$_List_val@U?$_List_simple_types@U?$pair@$$CBV?$basic_string@DU?$char_traits@D@std@@V?$allocator@D@2@@std@@V?$shared_ptr@VCCheckBox@FGUI@@@2@@std@@@std@@@std@@@std@@@std@@@std@@QEAAX_KV?$_List_unchecked_iterator@V?$_List_val@U?$_List_simple_types@U?$pair@$$CBV?$basic_string@DU?$char_traits@D@std@@V?$allocator@D@2@@std@@V?$shared_ptr@VCCheckBox@FGUI@@@2@@std@@@std@@@std@@@2@@Z 000000018003b880 f i entry.obj
 0001:0003a880       ?_Assign_grow@?$_Hash_vec@V?$allocator@V?$_List_unchecked_iterator@V?$_List_val@U?$_List_simple_types@U?$pair@$$CBV?$basic_string@DU?$char_traits@D@std@@V?$allocator@D@2@@std@@V?$shared_ptr@VCButton@FGUI@@@2@@std@@@std@@@std@@@std@@@std@@@std@@QEAAX_KV?$_List_unchecked_iterator@V?$_List_val@U?$_List_simple_types@U?$pair@$$CBV?$basic_string@DU?$char_traits@D@std@@V?$allocator@D@2@@std@@V?$shared_ptr@VCButton@FGUI@@@2@@std@@@std@@@std@@@2@@Z 000000018003b880 f i entry.obj
 0001:0003a880       ?_Assign_grow@?$_Hash_vec@V?$allocator@V?$_List_unchecked_iterator@V?$_List_val@U?$_List_simple_types@U?$pair@$$CBV?$basic_string@DU?$char_traits@D@std@@V?$allocator@D@2@@std@@V?$shared_ptr@VCComboBox@FGUI@@@2@@std@@@std@@@std@@@std@@@std@@@std@@QEAAX_KV?$_List_unchecked_iterator@V?$_List_val@U?$_List_simple_types@U?$pair@$$CBV?$basic_string@DU?$char_traits@D@std@@V?$allocator@D@2@@std@@V?$shared_ptr@VCComboBox@FGUI@@@2@@std@@@std@@@std@@@2@@Z 000000018003b880 f i entry.obj
 0001:0003a880       ?_Assign_grow@?$_Hash_vec@V?$allocator@V?$_List_unchecked_iterator@V?$_List_val@U?$_List_simple_types@U?$pair@$$CBV?$basic_string@DU?$char_traits@D@std@@V?$allocator@D@2@@std@@V?$shared_ptr@VCSlider@FGUI@@@2@@std@@@std@@@std@@@std@@@std@@@std@@QEAAX_KV?$_List_unchecked_iterator@V?$_List_val@U?$_List_simple_types@U?$pair@$$CBV?$basic_string@DU?$char_traits@D@std@@V?$allocator@D@2@@std@@V?$shared_ptr@VCSlider@FGUI@@@2@@std@@@std@@@std@@@2@@Z 000000018003b880 f i entry.obj
 0001:0003a880       ?_Assign_grow@?$_Hash_vec@V?$allocator@V?$_List_unchecked_iterator@V?$_List_val@U?$_List_simple_types@U?$pair@$$CBV?$basic_string@DU?$char_traits@D@std@@V?$allocator@D@2@@std@@V?$shared_ptr@VCLabel@FGUI@@@2@@std@@@std@@@std@@@std@@@std@@@std@@QEAAX_KV?$_List_unchecked_iterator@V?$_List_val@U?$_List_simple_types@U?$pair@$$CBV?$basic_string@DU?$char_traits@D@std@@V?$allocator@D@2@@std@@V?$shared_ptr@VCLabel@FGUI@@@2@@std@@@std@@@std@@@2@@Z 000000018003b880 f i entry.obj
 0001:0003a880       ?_Assign_grow@?$_Hash_vec@V?$allocator@V?$_List_unchecked_iterator@V?$_List_val@U?$_List_simple_types@U?$pair@$$CBV?$basic_string@DU?$char_traits@D@std@@V?$allocator@D@2@@std@@V?$shared_ptr@VCColorPicker@FGUI@@@2@@std@@@std@@@std@@@std@@@std@@@std@@QEAAX_KV?$_List_unchecked_iterator@V?$_List_val@U?$_List_simple_types@U?$pair@$$CBV?$basic_string@DU?$char_traits@D@std@@V?$allocator@D@2@@std@@V?$shared_ptr@VCColorPicker@FGUI@@@2@@std@@@std@@@std@@@2@@Z 000000018003b880 f i entry.obj
 0001:0003a880       ?_Assign_grow@?$_Hash_vec@V?$allocator@V?$_List_unchecked_iterator@V?$_List_val@U?$_List_simple_types@U?$pair@$$CBV?$basic_string@DU?$char_traits@D@std@@V?$allocator@D@2@@std@@V?$shared_ptr@VCContainer@FGUI@@@2@@std@@@std@@@std@@@std@@@std@@@std@@QEAAX_KV?$_List_unchecked_iterator@V?$_List_val@U?$_List_simple_types@U?$pair@$$CBV?$basic_string@DU?$char_traits@D@std@@V?$allocator@D@2@@std@@V?$shared_ptr@VCContainer@FGUI@@@2@@std@@@std@@@std@@@2@@Z 000000018003b880 f i entry.obj
 0001:0003a9c0       ?_Unchecked_erase@?$_Hash@V?$_Umap_traits@V?$basic_string@DU?$char_traits@D@std@@V?$allocator@D@2@@std@@V?$shared_ptr@VCColorPicker@FGUI@@@2@V?$_Uhash_compare@V?$basic_string@DU?$char_traits@D@std@@V?$allocator@D@2@@std@@U?$hash@V?$basic_string@DU?$char_traits@D@std@@V?$allocator@D@2@@std@@@2@U?$equal_to@V?$basic_string@DU?$char_traits@D@std@@V?$allocator@D@2@@std@@@2@@2@V?$allocator@U?$pair@$$CBV?$basic_string@DU?$char_traits@D@std@@V?$allocator@D@2@@std@@V?$shared_ptr@VCColorPicker@FGUI@@@2@@std@@@2@$0A@@std@@@std@@AEAAPEAU?$_List_node@U?$pair@$$CBV?$basic_string@DU?$char_traits@D@std@@V?$allocator@D@2@@std@@V?$shared_ptr@VCColorPicker@FGUI@@@2@@std@@PEAX@2@PEAU32@QEAU32@@Z 000000018003b9c0 f i entry.obj
 0001:0003a9c0       ?_Unchecked_erase@?$_Hash@V?$_Umap_traits@V?$basic_string@DU?$char_traits@D@std@@V?$allocator@D@2@@std@@V?$shared_ptr@VCComboBox@FGUI@@@2@V?$_Uhash_compare@V?$basic_string@DU?$char_traits@D@std@@V?$allocator@D@2@@std@@U?$hash@V?$basic_string@DU?$char_traits@D@std@@V?$allocator@D@2@@std@@@2@U?$equal_to@V?$basic_string@DU?$char_traits@D@std@@V?$allocator@D@2@@std@@@2@@2@V?$allocator@U?$pair@$$CBV?$basic_string@DU?$char_traits@D@std@@V?$allocator@D@2@@std@@V?$shared_ptr@VCComboBox@FGUI@@@2@@std@@@2@$0A@@std@@@std@@AEAAPEAU?$_List_node@U?$pair@$$CBV?$basic_string@DU?$char_traits@D@std@@V?$allocator@D@2@@std@@V?$shared_ptr@VCComboBox@FGUI@@@2@@std@@PEAX@2@PEAU32@QEAU32@@Z 000000018003b9c0 f i entry.obj
 0001:0003a9c0       ?_Unchecked_erase@?$_Hash@V?$_Umap_traits@V?$basic_string@DU?$char_traits@D@std@@V?$allocator@D@2@@std@@V?$shared_ptr@VCCheckBox@FGUI@@@2@V?$_Uhash_compare@V?$basic_string@DU?$char_traits@D@std@@V?$allocator@D@2@@std@@U?$hash@V?$basic_string@DU?$char_traits@D@std@@V?$allocator@D@2@@std@@@2@U?$equal_to@V?$basic_string@DU?$char_traits@D@std@@V?$allocator@D@2@@std@@@2@@2@V?$allocator@U?$pair@$$CBV?$basic_string@DU?$char_traits@D@std@@V?$allocator@D@2@@std@@V?$shared_ptr@VCCheckBox@FGUI@@@2@@std@@@2@$0A@@std@@@std@@AEAAPEAU?$_List_node@U?$pair@$$CBV?$basic_string@DU?$char_traits@D@std@@V?$allocator@D@2@@std@@V?$shared_ptr@VCCheckBox@FGUI@@@2@@std@@PEAX@2@PEAU32@QEAU32@@Z 000000018003b9c0 f i entry.obj
 0001:0003a9c0       ?_Unchecked_erase@?$_Hash@V?$_Umap_traits@V?$basic_string@DU?$char_traits@D@std@@V?$allocator@D@2@@std@@V?$shared_ptr@VCKeyBinder@FGUI@@@2@V?$_Uhash_compare@V?$basic_string@DU?$char_traits@D@std@@V?$allocator@D@2@@std@@U?$hash@V?$basic_string@DU?$char_traits@D@std@@V?$allocator@D@2@@std@@@2@U?$equal_to@V?$basic_string@DU?$char_traits@D@std@@V?$allocator@D@2@@std@@@2@@2@V?$allocator@U?$pair@$$CBV?$basic_string@DU?$char_traits@D@std@@V?$allocator@D@2@@std@@V?$shared_ptr@VCKeyBinder@FGUI@@@2@@std@@@2@$0A@@std@@@std@@AEAAPEAU?$_List_node@U?$pair@$$CBV?$basic_string@DU?$char_traits@D@std@@V?$allocator@D@2@@std@@V?$shared_ptr@VCKeyBinder@FGUI@@@2@@std@@PEAX@2@PEAU32@QEAU32@@Z 000000018003b9c0 f i entry.obj
 0001:0003a9c0       ?_Unchecked_erase@?$_Hash@V?$_Umap_traits@V?$basic_string@DU?$char_traits@D@std@@V?$allocator@D@2@@std@@V?$shared_ptr@VCSlider@FGUI@@@2@V?$_Uhash_compare@V?$basic_string@DU?$char_traits@D@std@@V?$allocator@D@2@@std@@U?$hash@V?$basic_string@DU?$char_traits@D@std@@V?$allocator@D@2@@std@@@2@U?$equal_to@V?$basic_string@DU?$char_traits@D@std@@V?$allocator@D@2@@std@@@2@@2@V?$allocator@U?$pair@$$CBV?$basic_string@DU?$char_traits@D@std@@V?$allocator@D@2@@std@@V?$shared_ptr@VCSlider@FGUI@@@2@@std@@@2@$0A@@std@@@std@@AEAAPEAU?$_List_node@U?$pair@$$CBV?$basic_string@DU?$char_traits@D@std@@V?$allocator@D@2@@std@@V?$shared_ptr@VCSlider@FGUI@@@2@@std@@PEAX@2@PEAU32@QEAU32@@Z 000000018003b9c0 f i entry.obj
 0001:0003a9c0       ?_Unchecked_erase@?$_Hash@V?$_Umap_traits@V?$basic_string@DU?$char_traits@D@std@@V?$allocator@D@2@@std@@V?$shared_ptr@VCButton@FGUI@@@2@V?$_Uhash_compare@V?$basic_string@DU?$char_traits@D@std@@V?$allocator@D@2@@std@@U?$hash@V?$basic_string@DU?$char_traits@D@std@@V?$allocator@D@2@@std@@@2@U?$equal_to@V?$basic_string@DU?$char_traits@D@std@@V?$allocator@D@2@@std@@@2@@2@V?$allocator@U?$pair@$$CBV?$basic_string@DU?$char_traits@D@std@@V?$allocator@D@2@@std@@V?$shared_ptr@VCButton@FGUI@@@2@@std@@@2@$0A@@std@@@std@@AEAAPEAU?$_List_node@U?$pair@$$CBV?$basic_string@DU?$char_traits@D@std@@V?$allocator@D@2@@std@@V?$shared_ptr@VCButton@FGUI@@@2@@std@@PEAX@2@PEAU32@QEAU32@@Z 000000018003b9c0 f i entry.obj
 0001:0003abc0       ?_Unchecked_erase@?$_Hash@V?$_Umap_traits@V?$basic_string@DU?$char_traits@D@std@@V?$allocator@D@2@@std@@V?$shared_ptr@VCContainer@FGUI@@@2@V?$_Uhash_compare@V?$basic_string@DU?$char_traits@D@std@@V?$allocator@D@2@@std@@U?$hash@V?$basic_string@DU?$char_traits@D@std@@V?$allocator@D@2@@std@@@2@U?$equal_to@V?$basic_string@DU?$char_traits@D@std@@V?$allocator@D@2@@std@@@2@@2@V?$allocator@U?$pair@$$CBV?$basic_string@DU?$char_traits@D@std@@V?$allocator@D@2@@std@@V?$shared_ptr@VCContainer@FGUI@@@2@@std@@@2@$0A@@std@@@std@@AEAAPEAU?$_List_node@U?$pair@$$CBV?$basic_string@DU?$char_traits@D@std@@V?$allocator@D@2@@std@@V?$shared_ptr@VCContainer@FGUI@@@2@@std@@PEAX@2@PEAU32@QEAU32@@Z 000000018003bbc0 f i entry.obj
 0001:0003adc0       ?_Destroy@?$vector@V?$basic_string@DU?$char_traits@D@std@@V?$allocator@D@2@@std@@V?$allocator@V?$basic_string@DU?$char_traits@D@std@@V?$allocator@D@2@@std@@@2@@std@@AEAAXPEAV?$basic_string@DU?$char_traits@D@std@@V?$allocator@D@2@@2@0@Z 000000018003bdc0 f i entry.obj
 0001:0003add0       ?deallocate@?$allocator@V?$basic_string@DU?$char_traits@D@std@@V?$allocator@D@2@@std@@@std@@QEAAXQEAV?$basic_string@DU?$char_traits@D@std@@V?$allocator@D@2@@2@_K@Z 000000018003bdd0 f i entry.obj
 0001:0003ae20       ??0?$basic_streambuf@DU?$char_traits@D@std@@@std@@IEAA@XZ 000000018003be20 f i entry.obj
 0001:0003aeb0       ?init@?$basic_ios@DU?$char_traits@D@std@@@std@@IEAAXPEAV?$basic_streambuf@DU?$char_traits@D@std@@@2@_N@Z 000000018003beb0 f i entry.obj
 0001:0003af80       ?widen@?$basic_ios@DU?$char_traits@D@std@@@std@@QEBADD@Z 000000018003bf80 f i entry.obj
 0001:0003b100       ??$use_facet@V?$ctype@D@std@@@std@@YAAEBV?$ctype@D@0@AEBVlocale@0@@Z 000000018003c100 f i entry.obj
 0001:0003b240       ??$?HDU?$char_traits@D@std@@V?$allocator@D@1@@std@@YA?AV?$basic_string@DU?$char_traits@D@std@@V?$allocator@D@2@@0@AEBV10@QEBD@Z 000000018003c240 f i entry.obj
 0001:0003b2b0       ??$?HDU?$char_traits@D@std@@V?$allocator@D@1@@std@@YA?AV?$basic_string@DU?$char_traits@D@std@@V?$allocator@D@2@@0@$$QEAV10@0@Z 000000018003c2b0 f i entry.obj
 0001:0003b2e0       ??$_Convert_wide_to_narrow_replace_chars@U?$char_traits@D@std@@V?$allocator@D@2@@filesystem@std@@YA?AV?$basic_string@DU?$char_traits@D@std@@V?$allocator@D@2@@1@W4__std_code_page@@V?$basic_string_view@_WU?$char_traits@_W@std@@@1@AEBV?$allocator@D@1@@Z 000000018003c2e0 f i entry.obj
 0001:0003b3a0       ??$_Hash_array_representation@D@std@@YA_KQEBD_K@Z 000000018003c3a0 f i entry.obj
 0001:0003b3e0       ??$?HDU?$char_traits@D@std@@V?$allocator@D@1@@std@@YA?AV?$basic_string@DU?$char_traits@D@std@@V?$allocator@D@2@@0@QEBDAEBV10@@Z 000000018003c3e0 f i entry.obj
 0001:0003b450       ??$text@$$V@Renderer@@YAXVVector2@@VColor3@@M_N2V?$basic_string_view@_WU?$char_traits@_W@std@@@std@@@Z 000000018003c450 f i entry.obj
 0001:0003b7c0       ??$make_shared@VCColorPicker@FGUI@@$$V@std@@YA?AV?$shared_ptr@VCColorPicker@FGUI@@@0@XZ 000000018003c7c0 f i entry.obj
 0001:0003b8d0       ??$make_shared@VCKeyBinder@FGUI@@$$V@std@@YA?AV?$shared_ptr@VCKeyBinder@FGUI@@@0@XZ 000000018003c8d0 f i entry.obj
 0001:0003b9e0       ??$make_shared@VCContainer@FGUI@@$$V@std@@YA?AV?$shared_ptr@VCContainer@FGUI@@@0@XZ 000000018003c9e0 f i entry.obj
 0001:0003baf0       ??$make_shared@VCTabPanel@FGUI@@$$V@std@@YA?AV?$shared_ptr@VCTabPanel@FGUI@@@0@XZ 000000018003caf0 f i entry.obj
 0001:0003bc00       ??$?0V<lambda_1>@?1??OnSetupDevice@ui@plusminus@@YAXXZ@$0A@@?$function@$$A6AXXZ@std@@QEAA@V<lambda_1>@?1??OnSetupDevice@ui@plusminus@@YAXXZ@@Z 000000018003cc00 f i entry.obj
 0001:0003bc20       ??$?0V<lambda_2>@?1??OnSetupDevice@ui@plusminus@@YAXXZ@$0A@@?$function@$$A6AXXZ@std@@QEAA@V<lambda_2>@?1??OnSetupDevice@ui@plusminus@@YAXXZ@@Z 000000018003cc20 f i entry.obj
 0001:0003bc40       ??$?0V<lambda_3>@?1??OnSetupDevice@ui@plusminus@@YAXXZ@$0A@@?$function@$$A6AXXZ@std@@QEAA@V<lambda_3>@?1??OnSetupDevice@ui@plusminus@@YAXXZ@@Z 000000018003cc40 f i entry.obj
 0001:0003bc60       ??$insert@U?$pair@I_K@std@@$0A@@?$map@I_KU?$less@I@std@@V?$allocator@U?$pair@$$CBI_K@std@@@2@@std@@QEAA?AU?$pair@V?$_Tree_iterator@V?$_Tree_val@U?$_Tree_simple_types@U?$pair@$$CBI_K@std@@@std@@@std@@@std@@_N@1@$$QEAU?$pair@I_K@1@@Z 000000018003cc60 f i entry.obj
 0001:0003bd90       ??$insert@U?$pair@II@std@@$0A@@?$map@I_KU?$less@I@std@@V?$allocator@U?$pair@$$CBI_K@std@@@2@@std@@QEAA?AU?$pair@V?$_Tree_iterator@V?$_Tree_val@U?$_Tree_simple_types@U?$pair@$$CBI_K@std@@@std@@@std@@@std@@_N@1@$$QEAU?$pair@II@1@@Z 000000018003cd90 f i entry.obj
 0001:0003bec0       ??$Execute@PEAVTransform@@$$TPEAVComponent@@@SafeExecution@@SAPEAVTransform@@_K$$TPEAVComponent@@@Z 000000018003cec0 f i entry.obj
 0001:0003bee0       ??$Execute@VVector3@@V1@PEAVTransform@@@SafeExecution@@SA?AVVector3@@_KV1@PEAVTransform@@@Z 000000018003cee0 f i entry.obj
 0001:0003bf20       ??$GetHeldEntity@VBaseProjectile@@@BasePlayer@@QEAAPEAVBaseProjectile@@XZ 000000018003cf20 f i entry.obj
 0001:0003c030       ??$text@H@Renderer@@YAXVVector2@@VColor3@@M_N2V?$basic_string_view@_WU?$char_traits@_W@std@@@std@@$$QEAH@Z 000000018003d030 f i entry.obj
 0001:0003c380       ??$boldtext@$$V@Renderer@@YAXVVector2@@VColor3@@M_N2V?$basic_string_view@_WU?$char_traits@_W@std@@@std@@@Z 000000018003d380 f i entry.obj
 0001:0003c6e0       ??$text@PEB_WAEAH@Renderer@@YAXVVector2@@VColor3@@M_N2V?$basic_string_view@_WU?$char_traits@_W@std@@@std@@$$QEAPEB_WAEAH@Z 000000018003d6e0 f i entry.obj
 0001:0003c930       ??$text@PEB_WH@Renderer@@YAXVVector2@@VColor3@@M_N2V?$basic_string_view@_WU?$char_traits@_W@std@@@std@@$$QEAPEB_W$$QEAH@Z 000000018003d930 f i entry.obj
 0001:0003ccb0       ??$text@PEB_WPEB_W@Renderer@@YAXVVector2@@VColor3@@M_N2V?$basic_string_view@_WU?$char_traits@_W@std@@@std@@$$QEAPEB_W4@Z 000000018003dcb0 f i entry.obj
 0001:0003cfe0       ??$FindClosest@PEAVBaseNetworkable@@@EntityRealm@BaseNetworkable@@QEAAPEAV1@IPEAV1@M@Z 000000018003dfe0 f i entry.obj
 0001:0003d330       ??$?H_WU?$char_traits@_W@std@@V?$allocator@_W@1@@std@@YA?AV?$basic_string@_WU?$char_traits@_W@std@@V?$allocator@_W@2@@0@$$QEAV10@QEB_W@Z 000000018003e330 f i entry.obj
 0001:0003d3f0       ??$use_facet@V?$codecvt@DDU_Mbstatet@@@std@@@std@@YAAEBV?$codecvt@DDU_Mbstatet@@@0@AEBVlocale@0@@Z 000000018003e3f0 f i entry.obj
 0001:0003d530       ??$_Emplace_reallocate@U?$pair@PEAVTransform@@M@std@@@?$vector@U?$pair@PEAVTransform@@M@std@@V?$allocator@U?$pair@PEAVTransform@@M@std@@@2@@std@@QEAAPEAU?$pair@PEAVTransform@@M@1@QEAU21@$$QEAU21@@Z 000000018003e530 f i entry.obj
 0001:0003d710       ??$_Erase_head@V?$allocator@U?$_Tree_node@U?$pair@$$CBI_K@std@@PEAX@std@@@std@@@?$_Tree_val@U?$_Tree_simple_types@U?$pair@$$CBI_K@std@@@std@@@std@@QEAAXAEAV?$allocator@U?$_Tree_node@U?$pair@$$CBI_K@std@@PEAX@std@@@1@@Z 000000018003e710 f i entry.obj
 0001:0003d710       ??$_Erase_head@V?$allocator@U?$_Tree_node@U?$pair@$$CB_KPEAVBoneCache@@@std@@PEAX@std@@@std@@@?$_Tree_val@U?$_Tree_simple_types@U?$pair@$$CB_KPEAVBoneCache@@@std@@@std@@@std@@QEAAXAEAV?$allocator@U?$_Tree_node@U?$pair@$$CB_KPEAVBoneCache@@@std@@PEAX@std@@@1@@Z 000000018003e710 f i entry.obj
 0001:0003d790       ??$_Try_emplace@AEBV?$basic_string@DU?$char_traits@D@std@@V?$allocator@D@2@@std@@$$V@?$_Hash@V?$_Umap_traits@V?$basic_string@DU?$char_traits@D@std@@V?$allocator@D@2@@std@@V?$shared_ptr@VCLabel@FGUI@@@2@V?$_Uhash_compare@V?$basic_string@DU?$char_traits@D@std@@V?$allocator@D@2@@std@@U?$hash@V?$basic_string@DU?$char_traits@D@std@@V?$allocator@D@2@@std@@@2@U?$equal_to@V?$basic_string@DU?$char_traits@D@std@@V?$allocator@D@2@@std@@@2@@2@V?$allocator@U?$pair@$$CBV?$basic_string@DU?$char_traits@D@std@@V?$allocator@D@2@@std@@V?$shared_ptr@VCLabel@FGUI@@@2@@std@@@2@$0A@@std@@@std@@IEAA?AU?$pair@PEAU?$_List_node@U?$pair@$$CBV?$basic_string@DU?$char_traits@D@std@@V?$allocator@D@2@@std@@V?$shared_ptr@VCLabel@FGUI@@@2@@std@@PEAX@std@@_N@1@AEBV?$basic_string@DU?$char_traits@D@std@@V?$allocator@D@2@@1@@Z 000000018003e790 f i entry.obj
 0001:0003da90       ??$_Try_emplace@AEBV?$basic_string@DU?$char_traits@D@std@@V?$allocator@D@2@@std@@$$V@?$_Hash@V?$_Umap_traits@V?$basic_string@DU?$char_traits@D@std@@V?$allocator@D@2@@std@@V?$shared_ptr@VCTextBox@FGUI@@@2@V?$_Uhash_compare@V?$basic_string@DU?$char_traits@D@std@@V?$allocator@D@2@@std@@U?$hash@V?$basic_string@DU?$char_traits@D@std@@V?$allocator@D@2@@std@@@2@U?$equal_to@V?$basic_string@DU?$char_traits@D@std@@V?$allocator@D@2@@std@@@2@@2@V?$allocator@U?$pair@$$CBV?$basic_string@DU?$char_traits@D@std@@V?$allocator@D@2@@std@@V?$shared_ptr@VCTextBox@FGUI@@@2@@std@@@2@$0A@@std@@@std@@IEAA?AU?$pair@PEAU?$_List_node@U?$pair@$$CBV?$basic_string@DU?$char_traits@D@std@@V?$allocator@D@2@@std@@V?$shared_ptr@VCTextBox@FGUI@@@2@@std@@PEAX@std@@_N@1@AEBV?$basic_string@DU?$char_traits@D@std@@V?$allocator@D@2@@1@@Z 000000018003ea90 f i entry.obj
 0001:0003dd90       ??$_Try_emplace@AEBV?$basic_string@DU?$char_traits@D@std@@V?$allocator@D@2@@std@@$$V@?$_Hash@V?$_Umap_traits@V?$basic_string@DU?$char_traits@D@std@@V?$allocator@D@2@@std@@V?$shared_ptr@VCKeyBinder@FGUI@@@2@V?$_Uhash_compare@V?$basic_string@DU?$char_traits@D@std@@V?$allocator@D@2@@std@@U?$hash@V?$basic_string@DU?$char_traits@D@std@@V?$allocator@D@2@@std@@@2@U?$equal_to@V?$basic_string@DU?$char_traits@D@std@@V?$allocator@D@2@@std@@@2@@2@V?$allocator@U?$pair@$$CBV?$basic_string@DU?$char_traits@D@std@@V?$allocator@D@2@@std@@V?$shared_ptr@VCKeyBinder@FGUI@@@2@@std@@@2@$0A@@std@@@std@@IEAA?AU?$pair@PEAU?$_List_node@U?$pair@$$CBV?$basic_string@DU?$char_traits@D@std@@V?$allocator@D@2@@std@@V?$shared_ptr@VCKeyBinder@FGUI@@@2@@std@@PEAX@std@@_N@1@AEBV?$basic_string@DU?$char_traits@D@std@@V?$allocator@D@2@@1@@Z 000000018003ed90 f i entry.obj
 0001:0003e020       ??$_Try_emplace@V?$basic_string@DU?$char_traits@D@std@@V?$allocator@D@2@@std@@$$V@?$_Hash@V?$_Umap_traits@V?$basic_string@DU?$char_traits@D@std@@V?$allocator@D@2@@std@@V?$shared_ptr@VCKeyBinder@FGUI@@@2@V?$_Uhash_compare@V?$basic_string@DU?$char_traits@D@std@@V?$allocator@D@2@@std@@U?$hash@V?$basic_string@DU?$char_traits@D@std@@V?$allocator@D@2@@std@@@2@U?$equal_to@V?$basic_string@DU?$char_traits@D@std@@V?$allocator@D@2@@std@@@2@@2@V?$allocator@U?$pair@$$CBV?$basic_string@DU?$char_traits@D@std@@V?$allocator@D@2@@std@@V?$shared_ptr@VCKeyBinder@FGUI@@@2@@std@@@2@$0A@@std@@@std@@IEAA?AU?$pair@PEAU?$_List_node@U?$pair@$$CBV?$basic_string@DU?$char_traits@D@std@@V?$allocator@D@2@@std@@V?$shared_ptr@VCKeyBinder@FGUI@@@2@@std@@PEAX@std@@_N@1@$$QEAV?$basic_string@DU?$char_traits@D@std@@V?$allocator@D@2@@1@@Z 000000018003f020 f i entry.obj
 0001:0003e2d0       ??$_Try_emplace@AEBV?$basic_string@DU?$char_traits@D@std@@V?$allocator@D@2@@std@@$$V@?$_Hash@V?$_Umap_traits@V?$basic_string@DU?$char_traits@D@std@@V?$allocator@D@2@@std@@V?$shared_ptr@VCColorPicker@FGUI@@@2@V?$_Uhash_compare@V?$basic_string@DU?$char_traits@D@std@@V?$allocator@D@2@@std@@U?$hash@V?$basic_string@DU?$char_traits@D@std@@V?$allocator@D@2@@std@@@2@U?$equal_to@V?$basic_string@DU?$char_traits@D@std@@V?$allocator@D@2@@std@@@2@@2@V?$allocator@U?$pair@$$CBV?$basic_string@DU?$char_traits@D@std@@V?$allocator@D@2@@std@@V?$shared_ptr@VCColorPicker@FGUI@@@2@@std@@@2@$0A@@std@@@std@@IEAA?AU?$pair@PEAU?$_List_node@U?$pair@$$CBV?$basic_string@DU?$char_traits@D@std@@V?$allocator@D@2@@std@@V?$shared_ptr@VCColorPicker@FGUI@@@2@@std@@PEAX@std@@_N@1@AEBV?$basic_string@DU?$char_traits@D@std@@V?$allocator@D@2@@1@@Z 000000018003f2d0 f i entry.obj
 0001:0003e560       ??$_Try_emplace@AEBV?$basic_string@DU?$char_traits@D@std@@V?$allocator@D@2@@std@@$$V@?$_Hash@V?$_Umap_traits@V?$basic_string@DU?$char_traits@D@std@@V?$allocator@D@2@@std@@V?$shared_ptr@VCComboBox@FGUI@@@2@V?$_Uhash_compare@V?$basic_string@DU?$char_traits@D@std@@V?$allocator@D@2@@std@@U?$hash@V?$basic_string@DU?$char_traits@D@std@@V?$allocator@D@2@@std@@@2@U?$equal_to@V?$basic_string@DU?$char_traits@D@std@@V?$allocator@D@2@@std@@@2@@2@V?$allocator@U?$pair@$$CBV?$basic_string@DU?$char_traits@D@std@@V?$allocator@D@2@@std@@V?$shared_ptr@VCComboBox@FGUI@@@2@@std@@@2@$0A@@std@@@std@@IEAA?AU?$pair@PEAU?$_List_node@U?$pair@$$CBV?$basic_string@DU?$char_traits@D@std@@V?$allocator@D@2@@std@@V?$shared_ptr@VCComboBox@FGUI@@@2@@std@@PEAX@std@@_N@1@AEBV?$basic_string@DU?$char_traits@D@std@@V?$allocator@D@2@@1@@Z 000000018003f560 f i entry.obj
 0001:0003e7f0       ??$_Try_emplace@AEBV?$basic_string@DU?$char_traits@D@std@@V?$allocator@D@2@@std@@$$V@?$_Hash@V?$_Umap_traits@V?$basic_string@DU?$char_traits@D@std@@V?$allocator@D@2@@std@@V?$shared_ptr@VCSlider@FGUI@@@2@V?$_Uhash_compare@V?$basic_string@DU?$char_traits@D@std@@V?$allocator@D@2@@std@@U?$hash@V?$basic_string@DU?$char_traits@D@std@@V?$allocator@D@2@@std@@@2@U?$equal_to@V?$basic_string@DU?$char_traits@D@std@@V?$allocator@D@2@@std@@@2@@2@V?$allocator@U?$pair@$$CBV?$basic_string@DU?$char_traits@D@std@@V?$allocator@D@2@@std@@V?$shared_ptr@VCSlider@FGUI@@@2@@std@@@2@$0A@@std@@@std@@IEAA?AU?$pair@PEAU?$_List_node@U?$pair@$$CBV?$basic_string@DU?$char_traits@D@std@@V?$allocator@D@2@@std@@V?$shared_ptr@VCSlider@FGUI@@@2@@std@@PEAX@std@@_N@1@AEBV?$basic_string@DU?$char_traits@D@std@@V?$allocator@D@2@@1@@Z 000000018003f7f0 f i entry.obj
 0001:0003ea80       ??$_Try_emplace@AEBV?$basic_string@DU?$char_traits@D@std@@V?$allocator@D@2@@std@@$$V@?$_Hash@V?$_Umap_traits@V?$basic_string@DU?$char_traits@D@std@@V?$allocator@D@2@@std@@V?$shared_ptr@VCButton@FGUI@@@2@V?$_Uhash_compare@V?$basic_string@DU?$char_traits@D@std@@V?$allocator@D@2@@std@@U?$hash@V?$basic_string@DU?$char_traits@D@std@@V?$allocator@D@2@@std@@@2@U?$equal_to@V?$basic_string@DU?$char_traits@D@std@@V?$allocator@D@2@@std@@@2@@2@V?$allocator@U?$pair@$$CBV?$basic_string@DU?$char_traits@D@std@@V?$allocator@D@2@@std@@V?$shared_ptr@VCButton@FGUI@@@2@@std@@@2@$0A@@std@@@std@@IEAA?AU?$pair@PEAU?$_List_node@U?$pair@$$CBV?$basic_string@DU?$char_traits@D@std@@V?$allocator@D@2@@std@@V?$shared_ptr@VCButton@FGUI@@@2@@std@@PEAX@std@@_N@1@AEBV?$basic_string@DU?$char_traits@D@std@@V?$allocator@D@2@@1@@Z 000000018003fa80 f i entry.obj
 0001:0003ed10       ??$_Try_emplace@AEBV?$basic_string@DU?$char_traits@D@std@@V?$allocator@D@2@@std@@$$V@?$_Hash@V?$_Umap_traits@V?$basic_string@DU?$char_traits@D@std@@V?$allocator@D@2@@std@@V?$shared_ptr@VCCheckBox@FGUI@@@2@V?$_Uhash_compare@V?$basic_string@DU?$char_traits@D@std@@V?$allocator@D@2@@std@@U?$hash@V?$basic_string@DU?$char_traits@D@std@@V?$allocator@D@2@@std@@@2@U?$equal_to@V?$basic_string@DU?$char_traits@D@std@@V?$allocator@D@2@@std@@@2@@2@V?$allocator@U?$pair@$$CBV?$basic_string@DU?$char_traits@D@std@@V?$allocator@D@2@@std@@V?$shared_ptr@VCCheckBox@FGUI@@@2@@std@@@2@$0A@@std@@@std@@IEAA?AU?$pair@PEAU?$_List_node@U?$pair@$$CBV?$basic_string@DU?$char_traits@D@std@@V?$allocator@D@2@@std@@V?$shared_ptr@VCCheckBox@FGUI@@@2@@std@@PEAX@std@@_N@1@AEBV?$basic_string@DU?$char_traits@D@std@@V?$allocator@D@2@@1@@Z 000000018003fd10 f i entry.obj
 0001:0003efa0       ??$_Emplace_reallocate@AEAI@?$vector@HV?$allocator@H@std@@@std@@QEAAPEAHQEAHAEAI@Z 000000018003ffa0 f i combobox.obj
 0001:0003efa0       ??$_Emplace_reallocate@H@?$vector@HV?$allocator@H@std@@@std@@QEAAPEAHQEAH$$QEAH@Z 000000018003ffa0 f i entry.obj
 0001:0003f140       ??$_Reallocate_grow_by@V<lambda_1>@?1??reserve@?$basic_string@_WU?$char_traits@_W@std@@V?$allocator@_W@2@@std@@QEAAX_K@Z@$$V@?$basic_string@_WU?$char_traits@_W@std@@V?$allocator@_W@2@@std@@AEAAAEAV01@_KV<lambda_1>@?1??reserve@01@QEAAX0@Z@@Z 0000000180040140 f i entry.obj
 0001:0003f2b0       ??$_Reallocate_grow_by@V<lambda_1>@?1??push_back@?$basic_string@_WU?$char_traits@_W@std@@V?$allocator@_W@2@@std@@QEAAX_W@Z@_W@?$basic_string@_WU?$char_traits@_W@std@@V?$allocator@_W@2@@std@@AEAAAEAV01@_KV<lambda_1>@?1??push_back@01@QEAAX_W@Z@_W@Z 00000001800402b0 f i entry.obj
 0001:0003f450       ??$_Reallocate_grow_by@V<lambda_1>@?1??append@?$basic_string@_WU?$char_traits@_W@std@@V?$allocator@_W@2@@std@@QEAAAEAV34@QEB_W_K@Z@PEB_W_K@?$basic_string@_WU?$char_traits@_W@std@@V?$allocator@_W@2@@std@@AEAAAEAV01@_KV<lambda_1>@?1??append@01@QEAAAEAV01@QEB_W0@Z@PEB_W_K@Z 0000000180040450 f i entry.obj
 0001:0003f620       ??$_Traits_find@U?$char_traits@D@std@@@std@@YA_KQEBD_K101@Z 0000000180040620 f i entry.obj
 0001:0003f6e0       ??$_Reallocate_grow_by@V<lambda_1>@?1??reserve@?$basic_string@DU?$char_traits@D@std@@V?$allocator@D@2@@std@@QEAAX_K@Z@$$V@?$basic_string@DU?$char_traits@D@std@@V?$allocator@D@2@@std@@AEAAAEAV01@_KV<lambda_1>@?1??reserve@01@QEAAX0@Z@@Z 00000001800406e0 f i entry.obj
 0001:0003f830       ??$fill@PEAV?$_List_unchecked_iterator@V?$_List_val@U?$_List_simple_types@U?$pair@$$CBV?$basic_string@DU?$char_traits@D@std@@V?$allocator@D@2@@std@@V?$shared_ptr@VCContainer@FGUI@@@2@@std@@@std@@@std@@@std@@V12@@std@@YAXQEAV?$_List_unchecked_iterator@V?$_List_val@U?$_List_simple_types@U?$pair@$$CBV?$basic_string@DU?$char_traits@D@std@@V?$allocator@D@2@@std@@V?$shared_ptr@VCContainer@FGUI@@@2@@std@@@std@@@std@@@0@0AEBV10@@Z 0000000180040830 f i entry.obj
 0001:0003f830       ??$fill@PEAV?$_List_unchecked_iterator@V?$_List_val@U?$_List_simple_types@U?$pair@$$CBV?$basic_string@DU?$char_traits@D@std@@V?$allocator@D@2@@std@@V?$shared_ptr@VCButton@FGUI@@@2@@std@@@std@@@std@@@std@@V12@@std@@YAXQEAV?$_List_unchecked_iterator@V?$_List_val@U?$_List_simple_types@U?$pair@$$CBV?$basic_string@DU?$char_traits@D@std@@V?$allocator@D@2@@std@@V?$shared_ptr@VCButton@FGUI@@@2@@std@@@std@@@std@@@0@0AEBV10@@Z 0000000180040830 f i entry.obj
 0001:0003f830       ??$fill@PEAV?$_List_unchecked_iterator@V?$_List_val@U?$_List_simple_types@U?$pair@$$CBV?$basic_string@DU?$char_traits@D@std@@V?$allocator@D@2@@std@@V?$shared_ptr@VCCheckBox@FGUI@@@2@@std@@@std@@@std@@@std@@V12@@std@@YAXQEAV?$_List_unchecked_iterator@V?$_List_val@U?$_List_simple_types@U?$pair@$$CBV?$basic_string@DU?$char_traits@D@std@@V?$allocator@D@2@@std@@V?$shared_ptr@VCCheckBox@FGUI@@@2@@std@@@std@@@std@@@0@0AEBV10@@Z 0000000180040830 f i entry.obj
 0001:0003f830       ??$fill@PEAV?$_List_unchecked_iterator@V?$_List_val@U?$_List_simple_types@U?$pair@$$CBV?$basic_string@DU?$char_traits@D@std@@V?$allocator@D@2@@std@@V?$shared_ptr@VCColorPicker@FGUI@@@2@@std@@@std@@@std@@@std@@V12@@std@@YAXQEAV?$_List_unchecked_iterator@V?$_List_val@U?$_List_simple_types@U?$pair@$$CBV?$basic_string@DU?$char_traits@D@std@@V?$allocator@D@2@@std@@V?$shared_ptr@VCColorPicker@FGUI@@@2@@std@@@std@@@std@@@0@0AEBV10@@Z 0000000180040830 f i entry.obj
 0001:0003f830       ??$fill@PEAV?$_List_unchecked_iterator@V?$_List_val@U?$_List_simple_types@U?$pair@$$CBV?$basic_string@DU?$char_traits@D@std@@V?$allocator@D@2@@std@@V?$shared_ptr@VCComboBox@FGUI@@@2@@std@@@std@@@std@@@std@@V12@@std@@YAXQEAV?$_List_unchecked_iterator@V?$_List_val@U?$_List_simple_types@U?$pair@$$CBV?$basic_string@DU?$char_traits@D@std@@V?$allocator@D@2@@std@@V?$shared_ptr@VCComboBox@FGUI@@@2@@std@@@std@@@std@@@0@0AEBV10@@Z 0000000180040830 f i entry.obj
 0001:0003f830       ??$fill@PEAV?$_List_unchecked_iterator@V?$_List_val@U?$_List_simple_types@U?$pair@$$CBV?$basic_string@DU?$char_traits@D@std@@V?$allocator@D@2@@std@@V?$shared_ptr@VCSlider@FGUI@@@2@@std@@@std@@@std@@@std@@V12@@std@@YAXQEAV?$_List_unchecked_iterator@V?$_List_val@U?$_List_simple_types@U?$pair@$$CBV?$basic_string@DU?$char_traits@D@std@@V?$allocator@D@2@@std@@V?$shared_ptr@VCSlider@FGUI@@@2@@std@@@std@@@std@@@0@0AEBV10@@Z 0000000180040830 f i entry.obj
 0001:0003f830       ??$fill@PEAV?$_List_unchecked_iterator@V?$_List_val@U?$_List_simple_types@U?$pair@$$CBV?$basic_string@DU?$char_traits@D@std@@V?$allocator@D@2@@std@@V?$shared_ptr@VCKeyBinder@FGUI@@@2@@std@@@std@@@std@@@std@@V12@@std@@YAXQEAV?$_List_unchecked_iterator@V?$_List_val@U?$_List_simple_types@U?$pair@$$CBV?$basic_string@DU?$char_traits@D@std@@V?$allocator@D@2@@std@@V?$shared_ptr@VCKeyBinder@FGUI@@@2@@std@@@std@@@std@@@0@0AEBV10@@Z 0000000180040830 f i entry.obj
 0001:0003f8c0       ??$insert@PEBU?$pair@$$CBV?$basic_string@DU?$char_traits@D@std@@V?$allocator@D@2@@std@@V?$shared_ptr@VCKeyBinder@FGUI@@@2@@std@@@?$_Hash@V?$_Umap_traits@V?$basic_string@DU?$char_traits@D@std@@V?$allocator@D@2@@std@@V?$shared_ptr@VCKeyBinder@FGUI@@@2@V?$_Uhash_compare@V?$basic_string@DU?$char_traits@D@std@@V?$allocator@D@2@@std@@U?$hash@V?$basic_string@DU?$char_traits@D@std@@V?$allocator@D@2@@std@@@2@U?$equal_to@V?$basic_string@DU?$char_traits@D@std@@V?$allocator@D@2@@std@@@2@@2@V?$allocator@U?$pair@$$CBV?$basic_string@DU?$char_traits@D@std@@V?$allocator@D@2@@std@@V?$shared_ptr@VCKeyBinder@FGUI@@@2@@std@@@2@$0A@@std@@@std@@QEAAXPEBU?$pair@$$CBV?$basic_string@DU?$char_traits@D@std@@V?$allocator@D@2@@std@@V?$shared_ptr@VCKeyBinder@FGUI@@@2@@1@0@Z 00000001800408c0 f i entry.obj
 0001:0003f910       ??$insert@PEBU?$pair@$$CBV?$basic_string@DU?$char_traits@D@std@@V?$allocator@D@2@@std@@V?$shared_ptr@VCContainer@FGUI@@@2@@std@@@?$_Hash@V?$_Umap_traits@V?$basic_string@DU?$char_traits@D@std@@V?$allocator@D@2@@std@@V?$shared_ptr@VCContainer@FGUI@@@2@V?$_Uhash_compare@V?$basic_string@DU?$char_traits@D@std@@V?$allocator@D@2@@std@@U?$hash@V?$basic_string@DU?$char_traits@D@std@@V?$allocator@D@2@@std@@@2@U?$equal_to@V?$basic_string@DU?$char_traits@D@std@@V?$allocator@D@2@@std@@@2@@2@V?$allocator@U?$pair@$$CBV?$basic_string@DU?$char_traits@D@std@@V?$allocator@D@2@@std@@V?$shared_ptr@VCContainer@FGUI@@@2@@std@@@2@$0A@@std@@@std@@QEAAXPEBU?$pair@$$CBV?$basic_string@DU?$char_traits@D@std@@V?$allocator@D@2@@std@@V?$shared_ptr@VCContainer@FGUI@@@2@@1@0@Z 0000000180040910 f i entry.obj
 0001:0003f960       ??$insert@PEBU?$pair@$$CBV?$basic_string@DU?$char_traits@D@std@@V?$allocator@D@2@@std@@V?$shared_ptr@VCColorPicker@FGUI@@@2@@std@@@?$_Hash@V?$_Umap_traits@V?$basic_string@DU?$char_traits@D@std@@V?$allocator@D@2@@std@@V?$shared_ptr@VCColorPicker@FGUI@@@2@V?$_Uhash_compare@V?$basic_string@DU?$char_traits@D@std@@V?$allocator@D@2@@std@@U?$hash@V?$basic_string@DU?$char_traits@D@std@@V?$allocator@D@2@@std@@@2@U?$equal_to@V?$basic_string@DU?$char_traits@D@std@@V?$allocator@D@2@@std@@@2@@2@V?$allocator@U?$pair@$$CBV?$basic_string@DU?$char_traits@D@std@@V?$allocator@D@2@@std@@V?$shared_ptr@VCColorPicker@FGUI@@@2@@std@@@2@$0A@@std@@@std@@QEAAXPEBU?$pair@$$CBV?$basic_string@DU?$char_traits@D@std@@V?$allocator@D@2@@std@@V?$shared_ptr@VCColorPicker@FGUI@@@2@@1@0@Z 0000000180040960 f i entry.obj
 0001:0003f9b0       ??$insert@PEBU?$pair@$$CBV?$basic_string@DU?$char_traits@D@std@@V?$allocator@D@2@@std@@V?$shared_ptr@VCComboBox@FGUI@@@2@@std@@@?$_Hash@V?$_Umap_traits@V?$basic_string@DU?$char_traits@D@std@@V?$allocator@D@2@@std@@V?$shared_ptr@VCComboBox@FGUI@@@2@V?$_Uhash_compare@V?$basic_string@DU?$char_traits@D@std@@V?$allocator@D@2@@std@@U?$hash@V?$basic_string@DU?$char_traits@D@std@@V?$allocator@D@2@@std@@@2@U?$equal_to@V?$basic_string@DU?$char_traits@D@std@@V?$allocator@D@2@@std@@@2@@2@V?$allocator@U?$pair@$$CBV?$basic_string@DU?$char_traits@D@std@@V?$allocator@D@2@@std@@V?$shared_ptr@VCComboBox@FGUI@@@2@@std@@@2@$0A@@std@@@std@@QEAAXPEBU?$pair@$$CBV?$basic_string@DU?$char_traits@D@std@@V?$allocator@D@2@@std@@V?$shared_ptr@VCComboBox@FGUI@@@2@@1@0@Z 00000001800409b0 f i entry.obj
 0001:0003fa00       ??$insert@PEBU?$pair@$$CBV?$basic_string@DU?$char_traits@D@std@@V?$allocator@D@2@@std@@V?$shared_ptr@VCSlider@FGUI@@@2@@std@@@?$_Hash@V?$_Umap_traits@V?$basic_string@DU?$char_traits@D@std@@V?$allocator@D@2@@std@@V?$shared_ptr@VCSlider@FGUI@@@2@V?$_Uhash_compare@V?$basic_string@DU?$char_traits@D@std@@V?$allocator@D@2@@std@@U?$hash@V?$basic_string@DU?$char_traits@D@std@@V?$allocator@D@2@@std@@@2@U?$equal_to@V?$basic_string@DU?$char_traits@D@std@@V?$allocator@D@2@@std@@@2@@2@V?$allocator@U?$pair@$$CBV?$basic_string@DU?$char_traits@D@std@@V?$allocator@D@2@@std@@V?$shared_ptr@VCSlider@FGUI@@@2@@std@@@2@$0A@@std@@@std@@QEAAXPEBU?$pair@$$CBV?$basic_string@DU?$char_traits@D@std@@V?$allocator@D@2@@std@@V?$shared_ptr@VCSlider@FGUI@@@2@@1@0@Z 0000000180040a00 f i entry.obj
 0001:0003fa50       ??$insert@PEBU?$pair@$$CBV?$basic_string@DU?$char_traits@D@std@@V?$allocator@D@2@@std@@V?$shared_ptr@VCButton@FGUI@@@2@@std@@@?$_Hash@V?$_Umap_traits@V?$basic_string@DU?$char_traits@D@std@@V?$allocator@D@2@@std@@V?$shared_ptr@VCButton@FGUI@@@2@V?$_Uhash_compare@V?$basic_string@DU?$char_traits@D@std@@V?$allocator@D@2@@std@@U?$hash@V?$basic_string@DU?$char_traits@D@std@@V?$allocator@D@2@@std@@@2@U?$equal_to@V?$basic_string@DU?$char_traits@D@std@@V?$allocator@D@2@@std@@@2@@2@V?$allocator@U?$pair@$$CBV?$basic_string@DU?$char_traits@D@std@@V?$allocator@D@2@@std@@V?$shared_ptr@VCButton@FGUI@@@2@@std@@@2@$0A@@std@@@std@@QEAAXPEBU?$pair@$$CBV?$basic_string@DU?$char_traits@D@std@@V?$allocator@D@2@@std@@V?$shared_ptr@VCButton@FGUI@@@2@@1@0@Z 0000000180040a50 f i entry.obj
 0001:0003faa0       ??$insert@PEBU?$pair@$$CBV?$basic_string@DU?$char_traits@D@std@@V?$allocator@D@2@@std@@V?$shared_ptr@VCCheckBox@FGUI@@@2@@std@@@?$_Hash@V?$_Umap_traits@V?$basic_string@DU?$char_traits@D@std@@V?$allocator@D@2@@std@@V?$shared_ptr@VCCheckBox@FGUI@@@2@V?$_Uhash_compare@V?$basic_string@DU?$char_traits@D@std@@V?$allocator@D@2@@std@@U?$hash@V?$basic_string@DU?$char_traits@D@std@@V?$allocator@D@2@@std@@@2@U?$equal_to@V?$basic_string@DU?$char_traits@D@std@@V?$allocator@D@2@@std@@@2@@2@V?$allocator@U?$pair@$$CBV?$basic_string@DU?$char_traits@D@std@@V?$allocator@D@2@@std@@V?$shared_ptr@VCCheckBox@FGUI@@@2@@std@@@2@$0A@@std@@@std@@QEAAXPEBU?$pair@$$CBV?$basic_string@DU?$char_traits@D@std@@V?$allocator@D@2@@std@@V?$shared_ptr@VCCheckBox@FGUI@@@2@@1@0@Z 0000000180040aa0 f i entry.obj
 0001:0003faf0       ??$_Reallocate_for@V<lambda_1>@?1??assign@?$basic_string@_WU?$char_traits@_W@std@@V?$allocator@_W@2@@std@@QEAAAEAV34@QEB_W_K@Z@PEB_W@?$basic_string@_WU?$char_traits@_W@std@@V?$allocator@_W@2@@std@@AEAAAEAV01@_KV<lambda_1>@?1??assign@01@QEAAAEAV01@QEB_W0@Z@PEB_W@Z 0000000180040af0 f i entry.obj
 0001:0003fc50       ??$_Reallocate_grow_by@V<lambda_1>@?1??append@?$basic_string@_WU?$char_traits@_W@std@@V?$allocator@_W@2@@std@@QEAAAEAV34@_K_W@Z@_K_W@?$basic_string@_WU?$char_traits@_W@std@@V?$allocator@_W@2@@std@@AEAAAEAV01@_KV<lambda_1>@?1??append@01@QEAAAEAV01@0_W@Z@_K_W@Z 0000000180040c50 f i entry.obj
 0001:0003fe10       ??$_Reallocate_grow_by@V<lambda_1>@?1??push_back@?$basic_string@DU?$char_traits@D@std@@V?$allocator@D@2@@std@@QEAAXD@Z@D@?$basic_string@DU?$char_traits@D@std@@V?$allocator@D@2@@std@@AEAAAEAV01@_KV<lambda_1>@?1??push_back@01@QEAAXD@Z@D@Z 0000000180040e10 f i entry.obj
 0001:0003ff80       ??$_Reallocate_grow_by@V<lambda_1>@?1??append@?$basic_string@DU?$char_traits@D@std@@V?$allocator@D@2@@std@@QEAAAEAV34@_KD@Z@_KD@?$basic_string@DU?$char_traits@D@std@@V?$allocator@D@2@@std@@AEAAAEAV01@_KV<lambda_1>@?1??append@01@QEAAAEAV01@0D@Z@_KD@Z 0000000180040f80 f i entry.obj
 0001:00040120       ??$_Destroy_range@V?$allocator@V?$basic_string@DU?$char_traits@D@std@@V?$allocator@D@2@@std@@@std@@@std@@YAXPEAV?$basic_string@DU?$char_traits@D@std@@V?$allocator@D@2@@0@QEAV10@AEAV?$allocator@V?$basic_string@DU?$char_traits@D@std@@V?$allocator@D@2@@std@@@0@@Z 0000000180041120 f i entry.obj
 0001:000401b0       ??1?$_Tidy_guard@V?$vector@V?$basic_string@DU?$char_traits@D@std@@V?$allocator@D@2@@std@@V?$allocator@V?$basic_string@DU?$char_traits@D@std@@V?$allocator@D@2@@std@@@2@@std@@@std@@QEAA@XZ 00000001800411b0 f i entry.obj
 0001:000401c0       ??1?$_List_node_emplace_op2@V?$allocator@U?$_List_node@U?$pair@$$CBV?$basic_string@DU?$char_traits@D@std@@V?$allocator@D@2@@std@@V?$shared_ptr@VCLabel@FGUI@@@2@@std@@PEAX@std@@@std@@@std@@QEAA@XZ 00000001800411c0 f i entry.obj
 0001:000401c0       ??1?$_List_node_emplace_op2@V?$allocator@U?$_List_node@U?$pair@$$CBV?$basic_string@DU?$char_traits@D@std@@V?$allocator@D@2@@std@@V?$shared_ptr@VCComboBox@FGUI@@@2@@std@@PEAX@std@@@std@@@std@@QEAA@XZ 00000001800411c0 f i entry.obj
 0001:000401c0       ??1?$_List_node_emplace_op2@V?$allocator@U?$_List_node@U?$pair@$$CBV?$basic_string@DU?$char_traits@D@std@@V?$allocator@D@2@@std@@V?$shared_ptr@VCButton@FGUI@@@2@@std@@PEAX@std@@@std@@@std@@QEAA@XZ 00000001800411c0 f i entry.obj
 0001:000401c0       ??1?$_List_node_emplace_op2@V?$allocator@U?$_List_node@U?$pair@$$CBV?$basic_string@DU?$char_traits@D@std@@V?$allocator@D@2@@std@@V?$shared_ptr@VCColorPicker@FGUI@@@2@@std@@PEAX@std@@@std@@@std@@QEAA@XZ 00000001800411c0 f i entry.obj
 0001:000401c0       ??1?$_List_node_emplace_op2@V?$allocator@U?$_List_node@U?$pair@$$CBV?$basic_string@DU?$char_traits@D@std@@V?$allocator@D@2@@std@@V?$shared_ptr@VCCheckBox@FGUI@@@2@@std@@PEAX@std@@@std@@@std@@QEAA@XZ 00000001800411c0 f i entry.obj
 0001:000401c0       ??1?$_List_node_emplace_op2@V?$allocator@U?$_List_node@U?$pair@$$CBV?$basic_string@DU?$char_traits@D@std@@V?$allocator@D@2@@std@@V?$shared_ptr@VCSlider@FGUI@@@2@@std@@PEAX@std@@@std@@@std@@QEAA@XZ 00000001800411c0 f i entry.obj
 0001:000401c0       ??1?$_List_node_emplace_op2@V?$allocator@U?$_List_node@U?$pair@$$CBV?$basic_string@DU?$char_traits@D@std@@V?$allocator@D@2@@std@@V?$shared_ptr@VCKeyBinder@FGUI@@@2@@std@@PEAX@std@@@std@@@std@@QEAA@XZ 00000001800411c0 f i entry.obj
 0001:000401c0       ??1?$_List_node_emplace_op2@V?$allocator@U?$_List_node@U?$pair@$$CBV?$basic_string@DU?$char_traits@D@std@@V?$allocator@D@2@@std@@V?$shared_ptr@VCTextBox@FGUI@@@2@@std@@PEAX@std@@@std@@@std@@QEAA@XZ 00000001800411c0 f i entry.obj
 0001:00040200       ??1?$_Tree_head_scoped_ptr@V?$allocator@U?$_Tree_node@U?$pair@$$CBI_K@std@@PEAX@std@@@std@@V?$_Tree_val@U?$_Tree_simple_types@U?$pair@$$CBI_K@std@@@std@@@2@@std@@QEAA@XZ 0000000180041200 f i entry.obj
 0001:00040200       ??1?$_Tree_head_scoped_ptr@V?$allocator@U?$_Tree_node@U?$pair@$$CB_KPEAVBoneCache@@@std@@PEAX@std@@@std@@V?$_Tree_val@U?$_Tree_simple_types@U?$pair@$$CB_KPEAVBoneCache@@@std@@@std@@@2@@std@@QEAA@XZ 0000000180041200 f i entry.obj
 0001:00040220       ??1sentry@?$basic_ostream@DU?$char_traits@D@std@@@std@@QEAA@XZ 0000000180041220 f i entry.obj
 0001:00040260       ??0sentry@?$basic_ostream@DU?$char_traits@D@std@@@std@@QEAA@AEAV12@@Z 0000000180041260 f i entry.obj
 0001:000402e0       ?_Delete_this@?$_Ref_count_obj2@VCLabel@FGUI@@@std@@EEAAXXZ 00000001800412e0 f i entry.obj
 0001:000402e0       ?_Delete_this@?$_Ref_count_obj2@VCButton@FGUI@@@std@@EEAAXXZ 00000001800412e0 f i entry.obj
 0001:000402e0       ?_Delete_this@?$_Ref_count_obj2@VCColorPicker@FGUI@@@std@@EEAAXXZ 00000001800412e0 f i entry.obj
 0001:000402e0       ?_Delete_this@?$_Ref_count_obj2@VCComboBox@FGUI@@@std@@EEAAXXZ 00000001800412e0 f i entry.obj
 0001:000402e0       ?_Delete_this@?$_Ref_count_obj2@VCKeyBinder@FGUI@@@std@@EEAAXXZ 00000001800412e0 f i entry.obj
 0001:000402e0       ?_Delete_this@?$_Ref_count_obj2@VCContainer@FGUI@@@std@@EEAAXXZ 00000001800412e0 f i entry.obj
 0001:000402e0       ?_Delete_this@?$_Ref_count_obj2@VCTabPanel@FGUI@@@std@@EEAAXXZ 00000001800412e0 f i entry.obj
 0001:000402e0       ?_Delete_this@?$_Ref_count_obj2@V?$output_stream_adapter@D@detail@nlohmann@@@std@@EEAAXXZ 00000001800412e0 f i container.obj
 0001:000402e0       ?_Delete_this@?$_Ref_count_obj2@VCTextBox@FGUI@@@std@@EEAAXXZ 00000001800412e0 f i entry.obj
 0001:000402e0       ?_Delete_this@?$_Ref_count_obj2@VCCheckBox@FGUI@@@std@@EEAAXXZ 00000001800412e0 f i entry.obj
 0001:000402e0       ?_Delete_this@?$_Ref_count_obj2@VCSlider@FGUI@@@std@@EEAAXXZ 00000001800412e0 f i entry.obj
 0001:00040300       ?_Destroy@?$_Ref_count_obj2@VCTabPanel@FGUI@@@std@@EEAAXXZ 0000000180041300 f i entry.obj
 0001:00040330       ?_Destroy@?$_Ref_count_obj2@VCContainer@FGUI@@@std@@EEAAXXZ 0000000180041330 f i entry.obj
 0001:00040430       ?_Destroy@?$_Ref_count_obj2@VCSlider@FGUI@@@std@@EEAAXXZ 0000000180041430 f i entry.obj
 0001:00040430       ?_Destroy@?$_Ref_count_obj2@VCKeyBinder@FGUI@@@std@@EEAAXXZ 0000000180041430 f i entry.obj
 0001:00040430       ?_Destroy@?$_Ref_count_obj2@VCTextBox@FGUI@@@std@@EEAAXXZ 0000000180041430 f i entry.obj
 0001:000404b0       ?_Destroy@?$_Ref_count_obj2@VCComboBox@FGUI@@@std@@EEAAXXZ 00000001800414b0 f i entry.obj
 0001:00040560       ?_Destroy@?$_Ref_count_obj2@VCLabel@FGUI@@@std@@EEAAXXZ 0000000180041560 f i entry.obj
 0001:00040560       ?_Destroy@?$_Ref_count_obj2@VCCheckBox@FGUI@@@std@@EEAAXXZ 0000000180041560 f i entry.obj
 0001:000405b0       ?_Destroy@?$_Ref_count_obj2@VCColorPicker@FGUI@@@std@@EEAAXXZ 00000001800415b0 f i entry.obj
 0001:000405c0       ?_Destroy@?$_Ref_count_obj2@VCButton@FGUI@@@std@@EEAAXXZ 00000001800415c0 f i entry.obj
 0001:00040610       ??1?$unique_ptr@V_Facet_base@std@@U?$default_delete@V_Facet_base@std@@@2@@std@@QEAA@XZ 0000000180041610 f i entry.obj
 0001:00040630       ?_Getcat@?$codecvt@DDU_Mbstatet@@@std@@SA_KPEAPEBVfacet@locale@2@PEBV42@@Z 0000000180041630 f i entry.obj
 0001:000407b0       ?_Xlength@?$vector@DV?$allocator@D@std@@@std@@CAXXZ 00000001800417b0 f i container.obj
 0001:000407b0       ?_Xlength@?$vector@HV?$allocator@H@std@@@std@@CAXXZ 00000001800417b0 f i entry.obj
 0001:000407b0       ?_Xlength@?$vector@V?$shared_ptr@VCWidgets@FGUI@@@std@@V?$allocator@V?$shared_ptr@VCWidgets@FGUI@@@std@@@2@@std@@CAXXZ 00000001800417b0 f i container.obj
 0001:000407b0       ?_Xlength@?$vector@V?$basic_string@DU?$char_traits@D@std@@V?$allocator@D@2@@std@@V?$allocator@V?$basic_string@DU?$char_traits@D@std@@V?$allocator@D@2@@std@@@2@@std@@CAXXZ 00000001800417b0 f i entry.obj
 0001:000407b0       ?_Xlength@?$vector@U?$pair@PEAVTransform@@M@std@@V?$allocator@U?$pair@PEAVTransform@@M@std@@@2@@std@@CAXXZ 00000001800417b0 f i entry.obj
 0001:000407b0       ?_Xlength@?$vector@V?$basic_json@Vmap@std@@Vvector@2@V?$basic_string@DU?$char_traits@D@std@@V?$allocator@D@2@@2@_N_J_KNVallocator@2@Uadl_serializer@nlohmann@@V?$vector@EV?$allocator@E@std@@@2@@nlohmann@@V?$allocator@V?$basic_json@Vmap@std@@Vvector@2@V?$basic_string@DU?$char_traits@D@std@@V?$allocator@D@2@@2@_N_J_KNVallocator@2@Uadl_serializer@nlohmann@@V?$vector@EV?$allocator@E@std@@@2@@nlohmann@@@std@@@std@@CAXXZ 00000001800417b0 f i checkbox.obj
 0001:000407b0       ?_Xlength@?$vector@IV?$allocator@I@std@@@std@@CAXXZ 00000001800417b0 f i container.obj
 0001:000407b0       ?_Xlength@?$vector@PEAV?$basic_json@Vmap@std@@Vvector@2@V?$basic_string@DU?$char_traits@D@std@@V?$allocator@D@2@@2@_N_J_KNVallocator@2@Uadl_serializer@nlohmann@@V?$vector@EV?$allocator@E@std@@@2@@nlohmann@@V?$allocator@PEAV?$basic_json@Vmap@std@@Vvector@2@V?$basic_string@DU?$char_traits@D@std@@V?$allocator@D@2@@2@_N_J_KNVallocator@2@Uadl_serializer@nlohmann@@V?$vector@EV?$allocator@E@std@@@2@@nlohmann@@@std@@@std@@CAXXZ 00000001800417b0 f i container.obj
 0001:000407d0       ?_Insert_node@?$_Tree_val@U?$_Tree_simple_types@U?$pair@$$CBI_K@std@@@std@@@std@@QEAAPEAU?$_Tree_node@U?$pair@$$CBI_K@std@@PEAX@2@U?$_Tree_id@PEAU?$_Tree_node@U?$pair@$$CBI_K@std@@PEAX@std@@@2@QEAU32@@Z 00000001800417d0 f i entry.obj
 0001:000407d0       ?_Insert_node@?$_Tree_val@U?$_Tree_simple_types@U?$pair@$$CB_KPEAVBoneCache@@@std@@@std@@@std@@QEAAPEAU?$_Tree_node@U?$pair@$$CB_KPEAVBoneCache@@@std@@PEAX@2@U?$_Tree_id@PEAU?$_Tree_node@U?$pair@$$CB_KPEAVBoneCache@@@std@@PEAX@std@@@2@QEAU32@@Z 00000001800417d0 f i entry.obj
 0001:000407d0       ?_Insert_node@?$_Tree_val@U?$_Tree_simple_types@U?$pair@$$CBV?$basic_string@DU?$char_traits@D@std@@V?$allocator@D@2@@std@@V?$basic_json@Vmap@std@@Vvector@2@V?$basic_string@DU?$char_traits@D@std@@V?$allocator@D@2@@2@_N_J_KNVallocator@2@Uadl_serializer@nlohmann@@V?$vector@EV?$allocator@E@std@@@2@@nlohmann@@@std@@@std@@@std@@QEAAPEAU?$_Tree_node@U?$pair@$$CBV?$basic_string@DU?$char_traits@D@std@@V?$allocator@D@2@@std@@V?$basic_json@Vmap@std@@Vvector@2@V?$basic_string@DU?$char_traits@D@std@@V?$allocator@D@2@@2@_N_J_KNVallocator@2@Uadl_serializer@nlohmann@@V?$vector@EV?$allocator@E@std@@@2@@nlohmann@@@std@@PEAX@2@U?$_Tree_id@PEAU?$_Tree_node@U?$pair@$$CBV?$basic_string@DU?$char_traits@D@std@@V?$allocator@D@2@@std@@V?$basic_json@Vmap@std@@Vvector@2@V?$basic_string@DU?$char_traits@D@std@@V?$allocator@D@2@@2@_N_J_KNVallocator@2@Uadl_serializer@nlohmann@@V?$vector@EV?$allocator@E@std@@@2@@nlohmann@@@std@@PEAX@std@@@2@QEAU32@@Z 00000001800417d0 f i checkbox.obj
 0001:00040a50       ?_Rehash_for_1@?$_Hash@V?$_Umap_traits@V?$basic_string@DU?$char_traits@D@std@@V?$allocator@D@2@@std@@V?$shared_ptr@VCKeyBinder@FGUI@@@2@V?$_Uhash_compare@V?$basic_string@DU?$char_traits@D@std@@V?$allocator@D@2@@std@@U?$hash@V?$basic_string@DU?$char_traits@D@std@@V?$allocator@D@2@@std@@@2@U?$equal_to@V?$basic_string@DU?$char_traits@D@std@@V?$allocator@D@2@@std@@@2@@2@V?$allocator@U?$pair@$$CBV?$basic_string@DU?$char_traits@D@std@@V?$allocator@D@2@@std@@V?$shared_ptr@VCKeyBinder@FGUI@@@2@@std@@@2@$0A@@std@@@std@@IEAAXXZ 0000000180041a50 f i entry.obj
 0001:00040b00       ?_Rehash_for_1@?$_Hash@V?$_Umap_traits@V?$basic_string@DU?$char_traits@D@std@@V?$allocator@D@2@@std@@V?$shared_ptr@VCColorPicker@FGUI@@@2@V?$_Uhash_compare@V?$basic_string@DU?$char_traits@D@std@@V?$allocator@D@2@@std@@U?$hash@V?$basic_string@DU?$char_traits@D@std@@V?$allocator@D@2@@std@@@2@U?$equal_to@V?$basic_string@DU?$char_traits@D@std@@V?$allocator@D@2@@std@@@2@@2@V?$allocator@U?$pair@$$CBV?$basic_string@DU?$char_traits@D@std@@V?$allocator@D@2@@std@@V?$shared_ptr@VCColorPicker@FGUI@@@2@@std@@@2@$0A@@std@@@std@@IEAAXXZ 0000000180041b00 f i entry.obj
 0001:00040bb0       ?_Rehash_for_1@?$_Hash@V?$_Umap_traits@V?$basic_string@DU?$char_traits@D@std@@V?$allocator@D@2@@std@@V?$shared_ptr@VCComboBox@FGUI@@@2@V?$_Uhash_compare@V?$basic_string@DU?$char_traits@D@std@@V?$allocator@D@2@@std@@U?$hash@V?$basic_string@DU?$char_traits@D@std@@V?$allocator@D@2@@std@@@2@U?$equal_to@V?$basic_string@DU?$char_traits@D@std@@V?$allocator@D@2@@std@@@2@@2@V?$allocator@U?$pair@$$CBV?$basic_string@DU?$char_traits@D@std@@V?$allocator@D@2@@std@@V?$shared_ptr@VCComboBox@FGUI@@@2@@std@@@2@$0A@@std@@@std@@IEAAXXZ 0000000180041bb0 f i entry.obj
 0001:00040c60       ?_Rehash_for_1@?$_Hash@V?$_Umap_traits@V?$basic_string@DU?$char_traits@D@std@@V?$allocator@D@2@@std@@V?$shared_ptr@VCSlider@FGUI@@@2@V?$_Uhash_compare@V?$basic_string@DU?$char_traits@D@std@@V?$allocator@D@2@@std@@U?$hash@V?$basic_string@DU?$char_traits@D@std@@V?$allocator@D@2@@std@@@2@U?$equal_to@V?$basic_string@DU?$char_traits@D@std@@V?$allocator@D@2@@std@@@2@@2@V?$allocator@U?$pair@$$CBV?$basic_string@DU?$char_traits@D@std@@V?$allocator@D@2@@std@@V?$shared_ptr@VCSlider@FGUI@@@2@@std@@@2@$0A@@std@@@std@@IEAAXXZ 0000000180041c60 f i entry.obj
 0001:00040d10       ?_Rehash_for_1@?$_Hash@V?$_Umap_traits@V?$basic_string@DU?$char_traits@D@std@@V?$allocator@D@2@@std@@V?$shared_ptr@VCButton@FGUI@@@2@V?$_Uhash_compare@V?$basic_string@DU?$char_traits@D@std@@V?$allocator@D@2@@std@@U?$hash@V?$basic_string@DU?$char_traits@D@std@@V?$allocator@D@2@@std@@@2@U?$equal_to@V?$basic_string@DU?$char_traits@D@std@@V?$allocator@D@2@@std@@@2@@2@V?$allocator@U?$pair@$$CBV?$basic_string@DU?$char_traits@D@std@@V?$allocator@D@2@@std@@V?$shared_ptr@VCButton@FGUI@@@2@@std@@@2@$0A@@std@@@std@@IEAAXXZ 0000000180041d10 f i entry.obj
 0001:00040dc0       ?_Rehash_for_1@?$_Hash@V?$_Umap_traits@V?$basic_string@DU?$char_traits@D@std@@V?$allocator@D@2@@std@@V?$shared_ptr@VCCheckBox@FGUI@@@2@V?$_Uhash_compare@V?$basic_string@DU?$char_traits@D@std@@V?$allocator@D@2@@std@@U?$hash@V?$basic_string@DU?$char_traits@D@std@@V?$allocator@D@2@@std@@@2@U?$equal_to@V?$basic_string@DU?$char_traits@D@std@@V?$allocator@D@2@@std@@@2@@2@V?$allocator@U?$pair@$$CBV?$basic_string@DU?$char_traits@D@std@@V?$allocator@D@2@@std@@V?$shared_ptr@VCCheckBox@FGUI@@@2@@std@@@2@$0A@@std@@@std@@IEAAXXZ 0000000180041dc0 f i entry.obj
 0001:00040e70       ??0?$_Vector_val@U?$_Simple_types@H@std@@@std@@QEAA@XZ 0000000180041e70 f i entry.obj
 0001:00040e90       ??0?$basic_string@DU?$char_traits@D@std@@V?$allocator@D@2@@std@@QEAA@U_String_constructor_concat_tag@1@AEAV01@1@Z 0000000180041e90 f i entry.obj
 0001:00041080       ??0?$basic_string@DU?$char_traits@D@std@@V?$allocator@D@2@@std@@QEAA@U_String_constructor_concat_tag@1@AEBV01@QEBD_K23@Z 0000000180042080 f i entry.obj
 0001:000411a0       ??_E?$_Ref_count_obj2@VCTabPanel@FGUI@@@std@@UEAAPEAXI@Z 00000001800421a0 f i * CIL library *:* CIL module *
 0001:000411a0       ??_G?$_Ref_count_obj2@VCTabPanel@FGUI@@@std@@UEAAPEAXI@Z 00000001800421a0 f i entry.obj
 0001:000411d0       ??_G?$_Ref_count_obj2@VCContainer@FGUI@@@std@@UEAAPEAXI@Z 00000001800421d0 f i entry.obj
 0001:000411d0       ??_E?$_Ref_count_obj2@VCContainer@FGUI@@@std@@UEAAPEAXI@Z 00000001800421d0 f i * CIL library *:* CIL module *
 0001:00041200       ??_E?$_Ref_count_obj2@VCSlider@FGUI@@@std@@UEAAPEAXI@Z 0000000180042200 f i * CIL library *:* CIL module *
 0001:00041200       ??_G?$_Ref_count_obj2@VCSlider@FGUI@@@std@@UEAAPEAXI@Z 0000000180042200 f i entry.obj
 0001:00041230       ??_G?$_Ref_count_obj2@VCComboBox@FGUI@@@std@@UEAAPEAXI@Z 0000000180042230 f i entry.obj
 0001:00041230       ??_E?$_Ref_count_obj2@VCComboBox@FGUI@@@std@@UEAAPEAXI@Z 0000000180042230 f i * CIL library *:* CIL module *
 0001:00041260       ??_G?$_Ref_count_obj2@VCTextBox@FGUI@@@std@@UEAAPEAXI@Z 0000000180042260 f i entry.obj
 0001:00041260       ??_E?$_Ref_count_obj2@VCTextBox@FGUI@@@std@@UEAAPEAXI@Z 0000000180042260 f i * CIL library *:* CIL module *
 0001:00041290       ??_E?$_Ref_count_obj2@VCLabel@FGUI@@@std@@UEAAPEAXI@Z 0000000180042290 f i * CIL library *:* CIL module *
 0001:00041290       ??_G?$_Ref_count_obj2@VCLabel@FGUI@@@std@@UEAAPEAXI@Z 0000000180042290 f i entry.obj
 0001:000412c0       ??_G?$_Ref_count_obj2@VCKeyBinder@FGUI@@@std@@UEAAPEAXI@Z 00000001800422c0 f i entry.obj
 0001:000412c0       ??_E?$_Ref_count_obj2@VCKeyBinder@FGUI@@@std@@UEAAPEAXI@Z 00000001800422c0 f i * CIL library *:* CIL module *
 0001:000412f0       ??_E?$_Ref_count_obj2@VCColorPicker@FGUI@@@std@@UEAAPEAXI@Z 00000001800422f0 f i * CIL library *:* CIL module *
 0001:000412f0       ??_G?$_Ref_count_obj2@VCColorPicker@FGUI@@@std@@UEAAPEAXI@Z 00000001800422f0 f i entry.obj
 0001:00041320       ??_E?$_Ref_count_obj2@VCCheckBox@FGUI@@@std@@UEAAPEAXI@Z 0000000180042320 f i * CIL library *:* CIL module *
 0001:00041320       ??_G?$_Ref_count_obj2@VCCheckBox@FGUI@@@std@@UEAAPEAXI@Z 0000000180042320 f i entry.obj
 0001:00041350       ??_E?$_Ref_count_obj2@VCButton@FGUI@@@std@@UEAAPEAXI@Z 0000000180042350 f i * CIL library *:* CIL module *
 0001:00041350       ??_G?$_Ref_count_obj2@VCButton@FGUI@@@std@@UEAAPEAXI@Z 0000000180042350 f i entry.obj
 0001:00041380       ??1?$_Alloc_construct_ptr@V?$allocator@U?$_List_node@U?$pair@$$CBV?$basic_string@DU?$char_traits@D@std@@V?$allocator@D@2@@std@@V?$shared_ptr@VCButton@FGUI@@@2@@std@@PEAX@std@@@std@@@std@@QEAA@XZ 0000000180042380 f i entry.obj
 0001:00041380       ??1?$_Alloc_construct_ptr@V?$allocator@U?$_List_node@U?$pair@$$CBV?$basic_string@DU?$char_traits@D@std@@V?$allocator@D@2@@std@@V?$shared_ptr@VCLabel@FGUI@@@2@@std@@PEAX@std@@@std@@@std@@QEAA@XZ 0000000180042380 f i entry.obj
 0001:00041380       ??1?$_Alloc_construct_ptr@V?$allocator@U?$_List_node@U?$pair@$$CBV?$basic_string@DU?$char_traits@D@std@@V?$allocator@D@2@@std@@V?$shared_ptr@VCTextBox@FGUI@@@2@@std@@PEAX@std@@@std@@@std@@QEAA@XZ 0000000180042380 f i entry.obj
 0001:00041380       ??1?$_Alloc_construct_ptr@V?$allocator@U?$_List_node@U?$pair@$$CBV?$basic_string@DU?$char_traits@D@std@@V?$allocator@D@2@@std@@V?$shared_ptr@VCComboBox@FGUI@@@2@@std@@PEAX@std@@@std@@@std@@QEAA@XZ 0000000180042380 f i entry.obj
 0001:00041380       ??1?$_Alloc_construct_ptr@V?$allocator@U?$_List_node@U?$pair@$$CBV?$basic_string@DU?$char_traits@D@std@@V?$allocator@D@2@@std@@V?$shared_ptr@VCCheckBox@FGUI@@@2@@std@@PEAX@std@@@std@@@std@@QEAA@XZ 0000000180042380 f i entry.obj
 0001:00041380       ??1?$_Alloc_construct_ptr@V?$allocator@U?$_List_node@U?$pair@$$CBV?$basic_string@DU?$char_traits@D@std@@V?$allocator@D@2@@std@@V?$shared_ptr@VCContainer@FGUI@@@2@@std@@PEAX@std@@@std@@@std@@QEAA@XZ 0000000180042380 f i entry.obj
 0001:00041380       ??1?$_Alloc_construct_ptr@V?$allocator@U?$_List_node@U?$pair@$$CBV?$basic_string@DU?$char_traits@D@std@@V?$allocator@D@2@@std@@V?$shared_ptr@VCColorPicker@FGUI@@@2@@std@@PEAX@std@@@std@@@std@@QEAA@XZ 0000000180042380 f i entry.obj
 0001:00041380       ??1?$_Alloc_construct_ptr@V?$allocator@U?$_List_node@U?$pair@$$CBV?$basic_string@DU?$char_traits@D@std@@V?$allocator@D@2@@std@@V?$shared_ptr@VCSlider@FGUI@@@2@@std@@PEAX@std@@@std@@@std@@QEAA@XZ 0000000180042380 f i entry.obj
 0001:00041380       ??1?$_Alloc_construct_ptr@V?$allocator@U?$_List_node@U?$pair@$$CBV?$basic_string@DU?$char_traits@D@std@@V?$allocator@D@2@@std@@V?$shared_ptr@VCKeyBinder@FGUI@@@2@@std@@PEAX@std@@@std@@@std@@QEAA@XZ 0000000180042380 f i entry.obj
 0001:000413a0       ??1?$_Alloc_construct_ptr@V?$allocator@U?$_Tree_node@U?$pair@$$CBI_K@std@@PEAX@std@@@std@@@std@@QEAA@XZ 00000001800423a0 f i entry.obj
 0001:000413a0       ??1?$_Alloc_construct_ptr@V?$allocator@U?$_Tree_node@U?$pair@$$CB_KPEAVBoneCache@@@std@@PEAX@std@@@std@@@std@@QEAA@XZ 00000001800423a0 f i entry.obj
 0001:000413c0       ??1_Sentry_base@?$basic_ostream@DU?$char_traits@D@std@@@std@@QEAA@XZ 00000001800423c0 f i entry.obj
 0001:000413f0       ?_Forced_rehash@?$_Hash@V?$_Umap_traits@V?$basic_string@DU?$char_traits@D@std@@V?$allocator@D@2@@std@@V?$shared_ptr@VCLabel@FGUI@@@2@V?$_Uhash_compare@V?$basic_string@DU?$char_traits@D@std@@V?$allocator@D@2@@std@@U?$hash@V?$basic_string@DU?$char_traits@D@std@@V?$allocator@D@2@@std@@@2@U?$equal_to@V?$basic_string@DU?$char_traits@D@std@@V?$allocator@D@2@@std@@@2@@2@V?$allocator@U?$pair@$$CBV?$basic_string@DU?$char_traits@D@std@@V?$allocator@D@2@@std@@V?$shared_ptr@VCLabel@FGUI@@@2@@std@@@2@$0A@@std@@@std@@IEAAX_K@Z 00000001800423f0 f i entry.obj
 0001:00041660       ?_Forced_rehash@?$_Hash@V?$_Umap_traits@V?$basic_string@DU?$char_traits@D@std@@V?$allocator@D@2@@std@@V?$shared_ptr@VCTextBox@FGUI@@@2@V?$_Uhash_compare@V?$basic_string@DU?$char_traits@D@std@@V?$allocator@D@2@@std@@U?$hash@V?$basic_string@DU?$char_traits@D@std@@V?$allocator@D@2@@std@@@2@U?$equal_to@V?$basic_string@DU?$char_traits@D@std@@V?$allocator@D@2@@std@@@2@@2@V?$allocator@U?$pair@$$CBV?$basic_string@DU?$char_traits@D@std@@V?$allocator@D@2@@std@@V?$shared_ptr@VCTextBox@FGUI@@@2@@std@@@2@$0A@@std@@@std@@IEAAX_K@Z 0000000180042660 f i entry.obj
 0001:000418d0       ?_Forced_rehash@?$_Hash@V?$_Umap_traits@V?$basic_string@DU?$char_traits@D@std@@V?$allocator@D@2@@std@@V?$shared_ptr@VCKeyBinder@FGUI@@@2@V?$_Uhash_compare@V?$basic_string@DU?$char_traits@D@std@@V?$allocator@D@2@@std@@U?$hash@V?$basic_string@DU?$char_traits@D@std@@V?$allocator@D@2@@std@@@2@U?$equal_to@V?$basic_string@DU?$char_traits@D@std@@V?$allocator@D@2@@std@@@2@@2@V?$allocator@U?$pair@$$CBV?$basic_string@DU?$char_traits@D@std@@V?$allocator@D@2@@std@@V?$shared_ptr@VCKeyBinder@FGUI@@@2@@std@@@2@$0A@@std@@@std@@IEAAX_K@Z 00000001800428d0 f i entry.obj
 0001:00041b40       ?_Forced_rehash@?$_Hash@V?$_Umap_traits@V?$basic_string@DU?$char_traits@D@std@@V?$allocator@D@2@@std@@V?$shared_ptr@VCColorPicker@FGUI@@@2@V?$_Uhash_compare@V?$basic_string@DU?$char_traits@D@std@@V?$allocator@D@2@@std@@U?$hash@V?$basic_string@DU?$char_traits@D@std@@V?$allocator@D@2@@std@@@2@U?$equal_to@V?$basic_string@DU?$char_traits@D@std@@V?$allocator@D@2@@std@@@2@@2@V?$allocator@U?$pair@$$CBV?$basic_string@DU?$char_traits@D@std@@V?$allocator@D@2@@std@@V?$shared_ptr@VCColorPicker@FGUI@@@2@@std@@@2@$0A@@std@@@std@@IEAAX_K@Z 0000000180042b40 f i entry.obj
 0001:00041db0       ?_Forced_rehash@?$_Hash@V?$_Umap_traits@V?$basic_string@DU?$char_traits@D@std@@V?$allocator@D@2@@std@@V?$shared_ptr@VCComboBox@FGUI@@@2@V?$_Uhash_compare@V?$basic_string@DU?$char_traits@D@std@@V?$allocator@D@2@@std@@U?$hash@V?$basic_string@DU?$char_traits@D@std@@V?$allocator@D@2@@std@@@2@U?$equal_to@V?$basic_string@DU?$char_traits@D@std@@V?$allocator@D@2@@std@@@2@@2@V?$allocator@U?$pair@$$CBV?$basic_string@DU?$char_traits@D@std@@V?$allocator@D@2@@std@@V?$shared_ptr@VCComboBox@FGUI@@@2@@std@@@2@$0A@@std@@@std@@IEAAX_K@Z 0000000180042db0 f i entry.obj
 0001:00042020       ?_Forced_rehash@?$_Hash@V?$_Umap_traits@V?$basic_string@DU?$char_traits@D@std@@V?$allocator@D@2@@std@@V?$shared_ptr@VCSlider@FGUI@@@2@V?$_Uhash_compare@V?$basic_string@DU?$char_traits@D@std@@V?$allocator@D@2@@std@@U?$hash@V?$basic_string@DU?$char_traits@D@std@@V?$allocator@D@2@@std@@@2@U?$equal_to@V?$basic_string@DU?$char_traits@D@std@@V?$allocator@D@2@@std@@@2@@2@V?$allocator@U?$pair@$$CBV?$basic_string@DU?$char_traits@D@std@@V?$allocator@D@2@@std@@V?$shared_ptr@VCSlider@FGUI@@@2@@std@@@2@$0A@@std@@@std@@IEAAX_K@Z 0000000180043020 f i entry.obj
 0001:00042290       ?_Forced_rehash@?$_Hash@V?$_Umap_traits@V?$basic_string@DU?$char_traits@D@std@@V?$allocator@D@2@@std@@V?$shared_ptr@VCButton@FGUI@@@2@V?$_Uhash_compare@V?$basic_string@DU?$char_traits@D@std@@V?$allocator@D@2@@std@@U?$hash@V?$basic_string@DU?$char_traits@D@std@@V?$allocator@D@2@@std@@@2@U?$equal_to@V?$basic_string@DU?$char_traits@D@std@@V?$allocator@D@2@@std@@@2@@2@V?$allocator@U?$pair@$$CBV?$basic_string@DU?$char_traits@D@std@@V?$allocator@D@2@@std@@V?$shared_ptr@VCButton@FGUI@@@2@@std@@@2@$0A@@std@@@std@@IEAAX_K@Z 0000000180043290 f i entry.obj
 0001:00042500       ?_Forced_rehash@?$_Hash@V?$_Umap_traits@V?$basic_string@DU?$char_traits@D@std@@V?$allocator@D@2@@std@@V?$shared_ptr@VCCheckBox@FGUI@@@2@V?$_Uhash_compare@V?$basic_string@DU?$char_traits@D@std@@V?$allocator@D@2@@std@@U?$hash@V?$basic_string@DU?$char_traits@D@std@@V?$allocator@D@2@@std@@@2@U?$equal_to@V?$basic_string@DU?$char_traits@D@std@@V?$allocator@D@2@@std@@@2@@2@V?$allocator@U?$pair@$$CBV?$basic_string@DU?$char_traits@D@std@@V?$allocator@D@2@@std@@V?$shared_ptr@VCCheckBox@FGUI@@@2@@std@@@2@$0A@@std@@@std@@IEAAX_K@Z 0000000180043500 f i entry.obj
 0001:00042770       ?_Buy_raw@?$vector@V?$basic_string@DU?$char_traits@D@std@@V?$allocator@D@2@@std@@V?$allocator@V?$basic_string@DU?$char_traits@D@std@@V?$allocator@D@2@@std@@@2@@std@@AEAAX_K@Z 0000000180043770 f i entry.obj
 0001:00042800       ?flush@?$basic_ostream@DU?$char_traits@D@std@@@std@@QEAAAEAV12@XZ 0000000180043800 f i entry.obj
 0001:000428c0       ?_Osfx@?$basic_ostream@DU?$char_traits@D@std@@@std@@QEAAXXZ 00000001800438c0 f i entry.obj
 0001:00042910       ??$_Find_last@V?$basic_string@DU?$char_traits@D@std@@V?$allocator@D@2@@std@@@?$_Hash@V?$_Umap_traits@V?$basic_string@DU?$char_traits@D@std@@V?$allocator@D@2@@std@@V?$shared_ptr@VCCheckBox@FGUI@@@2@V?$_Uhash_compare@V?$basic_string@DU?$char_traits@D@std@@V?$allocator@D@2@@std@@U?$hash@V?$basic_string@DU?$char_traits@D@std@@V?$allocator@D@2@@std@@@2@U?$equal_to@V?$basic_string@DU?$char_traits@D@std@@V?$allocator@D@2@@std@@@2@@2@V?$allocator@U?$pair@$$CBV?$basic_string@DU?$char_traits@D@std@@V?$allocator@D@2@@std@@V?$shared_ptr@VCCheckBox@FGUI@@@2@@std@@@2@$0A@@std@@@std@@IEBA?AU?$_Hash_find_last_result@PEAU?$_List_node@U?$pair@$$CBV?$basic_string@DU?$char_traits@D@std@@V?$allocator@D@2@@std@@V?$shared_ptr@VCCheckBox@FGUI@@@2@@std@@PEAX@std@@@1@AEBV?$basic_string@DU?$char_traits@D@std@@V?$allocator@D@2@@1@_K@Z 0000000180043910 f i entry.obj
 0001:000429f0       ??$_Find_last@V?$basic_string@DU?$char_traits@D@std@@V?$allocator@D@2@@std@@@?$_Hash@V?$_Umap_traits@V?$basic_string@DU?$char_traits@D@std@@V?$allocator@D@2@@std@@V?$shared_ptr@VCComboBox@FGUI@@@2@V?$_Uhash_compare@V?$basic_string@DU?$char_traits@D@std@@V?$allocator@D@2@@std@@U?$hash@V?$basic_string@DU?$char_traits@D@std@@V?$allocator@D@2@@std@@@2@U?$equal_to@V?$basic_string@DU?$char_traits@D@std@@V?$allocator@D@2@@std@@@2@@2@V?$allocator@U?$pair@$$CBV?$basic_string@DU?$char_traits@D@std@@V?$allocator@D@2@@std@@V?$shared_ptr@VCComboBox@FGUI@@@2@@std@@@2@$0A@@std@@@std@@IEBA?AU?$_Hash_find_last_result@PEAU?$_List_node@U?$pair@$$CBV?$basic_string@DU?$char_traits@D@std@@V?$allocator@D@2@@std@@V?$shared_ptr@VCComboBox@FGUI@@@2@@std@@PEAX@std@@@1@AEBV?$basic_string@DU?$char_traits@D@std@@V?$allocator@D@2@@1@_K@Z 00000001800439f0 f i entry.obj
 0001:00042ad0       ??$_Find_last@V?$basic_string@DU?$char_traits@D@std@@V?$allocator@D@2@@std@@@?$_Hash@V?$_Umap_traits@V?$basic_string@DU?$char_traits@D@std@@V?$allocator@D@2@@std@@V?$shared_ptr@VCSlider@FGUI@@@2@V?$_Uhash_compare@V?$basic_string@DU?$char_traits@D@std@@V?$allocator@D@2@@std@@U?$hash@V?$basic_string@DU?$char_traits@D@std@@V?$allocator@D@2@@std@@@2@U?$equal_to@V?$basic_string@DU?$char_traits@D@std@@V?$allocator@D@2@@std@@@2@@2@V?$allocator@U?$pair@$$CBV?$basic_string@DU?$char_traits@D@std@@V?$allocator@D@2@@std@@V?$shared_ptr@VCSlider@FGUI@@@2@@std@@@2@$0A@@std@@@std@@IEBA?AU?$_Hash_find_last_result@PEAU?$_List_node@U?$pair@$$CBV?$basic_string@DU?$char_traits@D@std@@V?$allocator@D@2@@std@@V?$shared_ptr@VCSlider@FGUI@@@2@@std@@PEAX@std@@@1@AEBV?$basic_string@DU?$char_traits@D@std@@V?$allocator@D@2@@1@_K@Z 0000000180043ad0 f i entry.obj
 0001:00042bb0       ??$_Find_last@V?$basic_string@DU?$char_traits@D@std@@V?$allocator@D@2@@std@@@?$_Hash@V?$_Umap_traits@V?$basic_string@DU?$char_traits@D@std@@V?$allocator@D@2@@std@@V?$shared_ptr@VCTextBox@FGUI@@@2@V?$_Uhash_compare@V?$basic_string@DU?$char_traits@D@std@@V?$allocator@D@2@@std@@U?$hash@V?$basic_string@DU?$char_traits@D@std@@V?$allocator@D@2@@std@@@2@U?$equal_to@V?$basic_string@DU?$char_traits@D@std@@V?$allocator@D@2@@std@@@2@@2@V?$allocator@U?$pair@$$CBV?$basic_string@DU?$char_traits@D@std@@V?$allocator@D@2@@std@@V?$shared_ptr@VCTextBox@FGUI@@@2@@std@@@2@$0A@@std@@@std@@IEBA?AU?$_Hash_find_last_result@PEAU?$_List_node@U?$pair@$$CBV?$basic_string@DU?$char_traits@D@std@@V?$allocator@D@2@@std@@V?$shared_ptr@VCTextBox@FGUI@@@2@@std@@PEAX@std@@@1@AEBV?$basic_string@DU?$char_traits@D@std@@V?$allocator@D@2@@1@_K@Z 0000000180043bb0 f i entry.obj
 0001:00042c90       ??$_Find_last@V?$basic_string@DU?$char_traits@D@std@@V?$allocator@D@2@@std@@@?$_Hash@V?$_Umap_traits@V?$basic_string@DU?$char_traits@D@std@@V?$allocator@D@2@@std@@V?$shared_ptr@VCColorPicker@FGUI@@@2@V?$_Uhash_compare@V?$basic_string@DU?$char_traits@D@std@@V?$allocator@D@2@@std@@U?$hash@V?$basic_string@DU?$char_traits@D@std@@V?$allocator@D@2@@std@@@2@U?$equal_to@V?$basic_string@DU?$char_traits@D@std@@V?$allocator@D@2@@std@@@2@@2@V?$allocator@U?$pair@$$CBV?$basic_string@DU?$char_traits@D@std@@V?$allocator@D@2@@std@@V?$shared_ptr@VCColorPicker@FGUI@@@2@@std@@@2@$0A@@std@@@std@@IEBA?AU?$_Hash_find_last_result@PEAU?$_List_node@U?$pair@$$CBV?$basic_string@DU?$char_traits@D@std@@V?$allocator@D@2@@std@@V?$shared_ptr@VCColorPicker@FGUI@@@2@@std@@PEAX@std@@@1@AEBV?$basic_string@DU?$char_traits@D@std@@V?$allocator@D@2@@1@_K@Z 0000000180043c90 f i entry.obj
 0001:00042d70       ??$_Find_last@V?$basic_string@DU?$char_traits@D@std@@V?$allocator@D@2@@std@@@?$_Hash@V?$_Umap_traits@V?$basic_string@DU?$char_traits@D@std@@V?$allocator@D@2@@std@@V?$shared_ptr@VCKeyBinder@FGUI@@@2@V?$_Uhash_compare@V?$basic_string@DU?$char_traits@D@std@@V?$allocator@D@2@@std@@U?$hash@V?$basic_string@DU?$char_traits@D@std@@V?$allocator@D@2@@std@@@2@U?$equal_to@V?$basic_string@DU?$char_traits@D@std@@V?$allocator@D@2@@std@@@2@@2@V?$allocator@U?$pair@$$CBV?$basic_string@DU?$char_traits@D@std@@V?$allocator@D@2@@std@@V?$shared_ptr@VCKeyBinder@FGUI@@@2@@std@@@2@$0A@@std@@@std@@IEBA?AU?$_Hash_find_last_result@PEAU?$_List_node@U?$pair@$$CBV?$basic_string@DU?$char_traits@D@std@@V?$allocator@D@2@@std@@V?$shared_ptr@VCKeyBinder@FGUI@@@2@@std@@PEAX@std@@@1@AEBV?$basic_string@DU?$char_traits@D@std@@V?$allocator@D@2@@1@_K@Z 0000000180043d70 f i entry.obj
 0001:00042e50       ??$_Eval@V?$mersenne_twister_engine@I$0CA@$0CHA@$0BIN@$0BP@$0JJAILANP@$0L@$0PPPPPPPP@$06$0JNCMFGIA@$0P@$0OPMGAAAA@$0BC@$0GMAHIJGF@@std@@@?$uniform_int@I@std@@AEBAIAEAV?$mersenne_twister_engine@I$0CA@$0CHA@$0BIN@$0BP@$0JJAILANP@$0L@$0PPPPPPPP@$06$0JNCMFGIA@$0P@$0OPMGAAAA@$0BC@$0GMAHIJGF@@1@II@Z 0000000180043e50 f i entry.obj
 0001:00042ef0       ??$Execute@PEAVItemModProjectile@@$$TPEAVComponent@@PEAVType@@@SafeExecution@@SAPEAVItemModProjectile@@_K$$TPEAVComponent@@PEAVType@@@Z 0000000180043ef0 f i entry.obj
 0001:00042f10       ??$Execute@PEAVProjectile@@$$TPEAVGameObject@@PEAVType@@@SafeExecution@@SAPEAVProjectile@@_K$$TPEAVGameObject@@PEAVType@@@Z 0000000180043f10 f i entry.obj
 0001:00042f30       ??$_Erase_tree_and_orphan@V?$allocator@U?$_Tree_node@U?$pair@$$CBI_K@std@@PEAX@std@@@std@@@?$_Tree_val@U?$_Tree_simple_types@U?$pair@$$CBI_K@std@@@std@@@std@@QEAAXAEAV?$allocator@U?$_Tree_node@U?$pair@$$CBI_K@std@@PEAX@std@@@1@PEAU?$_Tree_node@U?$pair@$$CBI_K@std@@PEAX@1@@Z 0000000180043f30 f i entry.obj
 0001:00042f30       ??$_Erase_tree@V?$allocator@U?$_Tree_node@U?$pair@$$CBI_K@std@@PEAX@std@@@std@@@?$_Tree_val@U?$_Tree_simple_types@U?$pair@$$CBI_K@std@@@std@@@std@@QEAAXAEAV?$allocator@U?$_Tree_node@U?$pair@$$CBI_K@std@@PEAX@std@@@1@PEAU?$_Tree_node@U?$pair@$$CBI_K@std@@PEAX@1@@Z 0000000180043f30 f i entry.obj
 0001:00042f30       ??$_Erase_tree_and_orphan@V?$allocator@U?$_Tree_node@U?$pair@$$CB_KPEAVBoneCache@@@std@@PEAX@std@@@std@@@?$_Tree_val@U?$_Tree_simple_types@U?$pair@$$CB_KPEAVBoneCache@@@std@@@std@@@std@@QEAAXAEAV?$allocator@U?$_Tree_node@U?$pair@$$CB_KPEAVBoneCache@@@std@@PEAX@std@@@1@PEAU?$_Tree_node@U?$pair@$$CB_KPEAVBoneCache@@@std@@PEAX@1@@Z 0000000180043f30 f i entry.obj
 0001:00042f30       ??$_Erase_tree@V?$allocator@U?$_Tree_node@U?$pair@$$CB_KPEAVBoneCache@@@std@@PEAX@std@@@std@@@?$_Tree_val@U?$_Tree_simple_types@U?$pair@$$CB_KPEAVBoneCache@@@std@@@std@@@std@@QEAAXAEAV?$allocator@U?$_Tree_node@U?$pair@$$CB_KPEAVBoneCache@@@std@@PEAX@std@@@1@PEAU?$_Tree_node@U?$pair@$$CB_KPEAVBoneCache@@@std@@PEAX@1@@Z 0000000180043f30 f i entry.obj
 0001:00042f80       ??$_Find_last@V?$basic_string@DU?$char_traits@D@std@@V?$allocator@D@2@@std@@@?$_Hash@V?$_Umap_traits@V?$basic_string@DU?$char_traits@D@std@@V?$allocator@D@2@@std@@V?$shared_ptr@VCLabel@FGUI@@@2@V?$_Uhash_compare@V?$basic_string@DU?$char_traits@D@std@@V?$allocator@D@2@@std@@U?$hash@V?$basic_string@DU?$char_traits@D@std@@V?$allocator@D@2@@std@@@2@U?$equal_to@V?$basic_string@DU?$char_traits@D@std@@V?$allocator@D@2@@std@@@2@@2@V?$allocator@U?$pair@$$CBV?$basic_string@DU?$char_traits@D@std@@V?$allocator@D@2@@std@@V?$shared_ptr@VCLabel@FGUI@@@2@@std@@@2@$0A@@std@@@std@@IEBA?AU?$_Hash_find_last_result@PEAU?$_List_node@U?$pair@$$CBV?$basic_string@DU?$char_traits@D@std@@V?$allocator@D@2@@std@@V?$shared_ptr@VCLabel@FGUI@@@2@@std@@PEAX@std@@@1@AEBV?$basic_string@DU?$char_traits@D@std@@V?$allocator@D@2@@1@_K@Z 0000000180043f80 f i entry.obj
 0001:00043060       ??$_Find_last@V?$basic_string@DU?$char_traits@D@std@@V?$allocator@D@2@@std@@@?$_Hash@V?$_Umap_traits@V?$basic_string@DU?$char_traits@D@std@@V?$allocator@D@2@@std@@V?$shared_ptr@VCButton@FGUI@@@2@V?$_Uhash_compare@V?$basic_string@DU?$char_traits@D@std@@V?$allocator@D@2@@std@@U?$hash@V?$basic_string@DU?$char_traits@D@std@@V?$allocator@D@2@@std@@@2@U?$equal_to@V?$basic_string@DU?$char_traits@D@std@@V?$allocator@D@2@@std@@@2@@2@V?$allocator@U?$pair@$$CBV?$basic_string@DU?$char_traits@D@std@@V?$allocator@D@2@@std@@V?$shared_ptr@VCButton@FGUI@@@2@@std@@@2@$0A@@std@@@std@@IEBA?AU?$_Hash_find_last_result@PEAU?$_List_node@U?$pair@$$CBV?$basic_string@DU?$char_traits@D@std@@V?$allocator@D@2@@std@@V?$shared_ptr@VCButton@FGUI@@@2@@std@@PEAX@std@@@1@AEBV?$basic_string@DU?$char_traits@D@std@@V?$allocator@D@2@@1@_K@Z 0000000180044060 f i entry.obj
 0001:00043140       ??$_Ucopy@PEBV?$basic_string@DU?$char_traits@D@std@@V?$allocator@D@2@@std@@@?$vector@V?$basic_string@DU?$char_traits@D@std@@V?$allocator@D@2@@std@@V?$allocator@V?$basic_string@DU?$char_traits@D@std@@V?$allocator@D@2@@std@@@2@@std@@AEAAPEAV?$basic_string@DU?$char_traits@D@std@@V?$allocator@D@2@@1@PEBV21@0PEAV21@@Z 0000000180044140 f i entry.obj
 0001:000431d0       ??$emplace@AEBU?$pair@$$CBV?$basic_string@DU?$char_traits@D@std@@V?$allocator@D@2@@std@@V?$shared_ptr@VCKeyBinder@FGUI@@@2@@std@@@?$_Hash@V?$_Umap_traits@V?$basic_string@DU?$char_traits@D@std@@V?$allocator@D@2@@std@@V?$shared_ptr@VCKeyBinder@FGUI@@@2@V?$_Uhash_compare@V?$basic_string@DU?$char_traits@D@std@@V?$allocator@D@2@@std@@U?$hash@V?$basic_string@DU?$char_traits@D@std@@V?$allocator@D@2@@std@@@2@U?$equal_to@V?$basic_string@DU?$char_traits@D@std@@V?$allocator@D@2@@std@@@2@@2@V?$allocator@U?$pair@$$CBV?$basic_string@DU?$char_traits@D@std@@V?$allocator@D@2@@std@@V?$shared_ptr@VCKeyBinder@FGUI@@@2@@std@@@2@$0A@@std@@@std@@QEAA?AU?$pair@V?$_List_iterator@V?$_List_val@U?$_List_simple_types@U?$pair@$$CBV?$basic_string@DU?$char_traits@D@std@@V?$allocator@D@2@@std@@V?$shared_ptr@VCKeyBinder@FGUI@@@2@@std@@@std@@@std@@@std@@_N@1@AEBU?$pair@$$CBV?$basic_string@DU?$char_traits@D@std@@V?$allocator@D@2@@std@@V?$shared_ptr@VCKeyBinder@FGUI@@@2@@1@@Z 00000001800441d0 f i entry.obj
 0001:00043480       ??$emplace@AEBU?$pair@$$CBV?$basic_string@DU?$char_traits@D@std@@V?$allocator@D@2@@std@@V?$shared_ptr@VCContainer@FGUI@@@2@@std@@@?$_Hash@V?$_Umap_traits@V?$basic_string@DU?$char_traits@D@std@@V?$allocator@D@2@@std@@V?$shared_ptr@VCContainer@FGUI@@@2@V?$_Uhash_compare@V?$basic_string@DU?$char_traits@D@std@@V?$allocator@D@2@@std@@U?$hash@V?$basic_string@DU?$char_traits@D@std@@V?$allocator@D@2@@std@@@2@U?$equal_to@V?$basic_string@DU?$char_traits@D@std@@V?$allocator@D@2@@std@@@2@@2@V?$allocator@U?$pair@$$CBV?$basic_string@DU?$char_traits@D@std@@V?$allocator@D@2@@std@@V?$shared_ptr@VCContainer@FGUI@@@2@@std@@@2@$0A@@std@@@std@@QEAA?AU?$pair@V?$_List_iterator@V?$_List_val@U?$_List_simple_types@U?$pair@$$CBV?$basic_string@DU?$char_traits@D@std@@V?$allocator@D@2@@std@@V?$shared_ptr@VCContainer@FGUI@@@2@@std@@@std@@@std@@@std@@_N@1@AEBU?$pair@$$CBV?$basic_string@DU?$char_traits@D@std@@V?$allocator@D@2@@std@@V?$shared_ptr@VCContainer@FGUI@@@2@@1@@Z 0000000180044480 f i entry.obj
 0001:000437a0       ??$emplace@AEBU?$pair@$$CBV?$basic_string@DU?$char_traits@D@std@@V?$allocator@D@2@@std@@V?$shared_ptr@VCColorPicker@FGUI@@@2@@std@@@?$_Hash@V?$_Umap_traits@V?$basic_string@DU?$char_traits@D@std@@V?$allocator@D@2@@std@@V?$shared_ptr@VCColorPicker@FGUI@@@2@V?$_Uhash_compare@V?$basic_string@DU?$char_traits@D@std@@V?$allocator@D@2@@std@@U?$hash@V?$basic_string@DU?$char_traits@D@std@@V?$allocator@D@2@@std@@@2@U?$equal_to@V?$basic_string@DU?$char_traits@D@std@@V?$allocator@D@2@@std@@@2@@2@V?$allocator@U?$pair@$$CBV?$basic_string@DU?$char_traits@D@std@@V?$allocator@D@2@@std@@V?$shared_ptr@VCColorPicker@FGUI@@@2@@std@@@2@$0A@@std@@@std@@QEAA?AU?$pair@V?$_List_iterator@V?$_List_val@U?$_List_simple_types@U?$pair@$$CBV?$basic_string@DU?$char_traits@D@std@@V?$allocator@D@2@@std@@V?$shared_ptr@VCColorPicker@FGUI@@@2@@std@@@std@@@std@@@std@@_N@1@AEBU?$pair@$$CBV?$basic_string@DU?$char_traits@D@std@@V?$allocator@D@2@@std@@V?$shared_ptr@VCColorPicker@FGUI@@@2@@1@@Z 00000001800447a0 f i entry.obj
 0001:00043a50       ??$emplace@AEBU?$pair@$$CBV?$basic_string@DU?$char_traits@D@std@@V?$allocator@D@2@@std@@V?$shared_ptr@VCComboBox@FGUI@@@2@@std@@@?$_Hash@V?$_Umap_traits@V?$basic_string@DU?$char_traits@D@std@@V?$allocator@D@2@@std@@V?$shared_ptr@VCComboBox@FGUI@@@2@V?$_Uhash_compare@V?$basic_string@DU?$char_traits@D@std@@V?$allocator@D@2@@std@@U?$hash@V?$basic_string@DU?$char_traits@D@std@@V?$allocator@D@2@@std@@@2@U?$equal_to@V?$basic_string@DU?$char_traits@D@std@@V?$allocator@D@2@@std@@@2@@2@V?$allocator@U?$pair@$$CBV?$basic_string@DU?$char_traits@D@std@@V?$allocator@D@2@@std@@V?$shared_ptr@VCComboBox@FGUI@@@2@@std@@@2@$0A@@std@@@std@@QEAA?AU?$pair@V?$_List_iterator@V?$_List_val@U?$_List_simple_types@U?$pair@$$CBV?$basic_string@DU?$char_traits@D@std@@V?$allocator@D@2@@std@@V?$shared_ptr@VCComboBox@FGUI@@@2@@std@@@std@@@std@@@std@@_N@1@AEBU?$pair@$$CBV?$basic_string@DU?$char_traits@D@std@@V?$allocator@D@2@@std@@V?$shared_ptr@VCComboBox@FGUI@@@2@@1@@Z 0000000180044a50 f i entry.obj
 0001:00043d00       ??$emplace@AEBU?$pair@$$CBV?$basic_string@DU?$char_traits@D@std@@V?$allocator@D@2@@std@@V?$shared_ptr@VCSlider@FGUI@@@2@@std@@@?$_Hash@V?$_Umap_traits@V?$basic_string@DU?$char_traits@D@std@@V?$allocator@D@2@@std@@V?$shared_ptr@VCSlider@FGUI@@@2@V?$_Uhash_compare@V?$basic_string@DU?$char_traits@D@std@@V?$allocator@D@2@@std@@U?$hash@V?$basic_string@DU?$char_traits@D@std@@V?$allocator@D@2@@std@@@2@U?$equal_to@V?$basic_string@DU?$char_traits@D@std@@V?$allocator@D@2@@std@@@2@@2@V?$allocator@U?$pair@$$CBV?$basic_string@DU?$char_traits@D@std@@V?$allocator@D@2@@std@@V?$shared_ptr@VCSlider@FGUI@@@2@@std@@@2@$0A@@std@@@std@@QEAA?AU?$pair@V?$_List_iterator@V?$_List_val@U?$_List_simple_types@U?$pair@$$CBV?$basic_string@DU?$char_traits@D@std@@V?$allocator@D@2@@std@@V?$shared_ptr@VCSlider@FGUI@@@2@@std@@@std@@@std@@@std@@_N@1@AEBU?$pair@$$CBV?$basic_string@DU?$char_traits@D@std@@V?$allocator@D@2@@std@@V?$shared_ptr@VCSlider@FGUI@@@2@@1@@Z 0000000180044d00 f i entry.obj
 0001:00043fb0       ??$emplace@AEBU?$pair@$$CBV?$basic_string@DU?$char_traits@D@std@@V?$allocator@D@2@@std@@V?$shared_ptr@VCButton@FGUI@@@2@@std@@@?$_Hash@V?$_Umap_traits@V?$basic_string@DU?$char_traits@D@std@@V?$allocator@D@2@@std@@V?$shared_ptr@VCButton@FGUI@@@2@V?$_Uhash_compare@V?$basic_string@DU?$char_traits@D@std@@V?$allocator@D@2@@std@@U?$hash@V?$basic_string@DU?$char_traits@D@std@@V?$allocator@D@2@@std@@@2@U?$equal_to@V?$basic_string@DU?$char_traits@D@std@@V?$allocator@D@2@@std@@@2@@2@V?$allocator@U?$pair@$$CBV?$basic_string@DU?$char_traits@D@std@@V?$allocator@D@2@@std@@V?$shared_ptr@VCButton@FGUI@@@2@@std@@@2@$0A@@std@@@std@@QEAA?AU?$pair@V?$_List_iterator@V?$_List_val@U?$_List_simple_types@U?$pair@$$CBV?$basic_string@DU?$char_traits@D@std@@V?$allocator@D@2@@std@@V?$shared_ptr@VCButton@FGUI@@@2@@std@@@std@@@std@@@std@@_N@1@AEBU?$pair@$$CBV?$basic_string@DU?$char_traits@D@std@@V?$allocator@D@2@@std@@V?$shared_ptr@VCButton@FGUI@@@2@@1@@Z 0000000180044fb0 f i entry.obj
 0001:00044260       ??$emplace@AEBU?$pair@$$CBV?$basic_string@DU?$char_traits@D@std@@V?$allocator@D@2@@std@@V?$shared_ptr@VCCheckBox@FGUI@@@2@@std@@@?$_Hash@V?$_Umap_traits@V?$basic_string@DU?$char_traits@D@std@@V?$allocator@D@2@@std@@V?$shared_ptr@VCCheckBox@FGUI@@@2@V?$_Uhash_compare@V?$basic_string@DU?$char_traits@D@std@@V?$allocator@D@2@@std@@U?$hash@V?$basic_string@DU?$char_traits@D@std@@V?$allocator@D@2@@std@@@2@U?$equal_to@V?$basic_string@DU?$char_traits@D@std@@V?$allocator@D@2@@std@@@2@@2@V?$allocator@U?$pair@$$CBV?$basic_string@DU?$char_traits@D@std@@V?$allocator@D@2@@std@@V?$shared_ptr@VCCheckBox@FGUI@@@2@@std@@@2@$0A@@std@@@std@@QEAA?AU?$pair@V?$_List_iterator@V?$_List_val@U?$_List_simple_types@U?$pair@$$CBV?$basic_string@DU?$char_traits@D@std@@V?$allocator@D@2@@std@@V?$shared_ptr@VCCheckBox@FGUI@@@2@@std@@@std@@@std@@@std@@_N@1@AEBU?$pair@$$CBV?$basic_string@DU?$char_traits@D@std@@V?$allocator@D@2@@std@@V?$shared_ptr@VCCheckBox@FGUI@@@2@@1@@Z 0000000180045260 f i entry.obj
 0001:00044510       ??$destroy@U?$pair@$$CBV?$basic_string@DU?$char_traits@D@std@@V?$allocator@D@2@@std@@V?$shared_ptr@VCContainer@FGUI@@@2@@std@@@?$_Default_allocator_traits@V?$allocator@U?$_List_node@U?$pair@$$CBV?$basic_string@DU?$char_traits@D@std@@V?$allocator@D@2@@std@@V?$shared_ptr@VCContainer@FGUI@@@2@@std@@PEAX@std@@@std@@@std@@SAXAEAV?$allocator@U?$_List_node@U?$pair@$$CBV?$basic_string@DU?$char_traits@D@std@@V?$allocator@D@2@@std@@V?$shared_ptr@VCContainer@FGUI@@@2@@std@@PEAX@std@@@1@QEAU?$pair@$$CBV?$basic_string@DU?$char_traits@D@std@@V?$allocator@D@2@@std@@V?$shared_ptr@VCContainer@FGUI@@@2@@1@@Z 0000000180045510 f i entry.obj
 0001:000445c0       ??$_Uninitialized_move@PEAV?$basic_string@DU?$char_traits@D@std@@V?$allocator@D@2@@std@@V?$allocator@V?$basic_string@DU?$char_traits@D@std@@V?$allocator@D@2@@std@@@2@@std@@YAPEAV?$basic_string@DU?$char_traits@D@std@@V?$allocator@D@2@@0@QEAV10@0PEAV10@AEAV?$allocator@V?$basic_string@DU?$char_traits@D@std@@V?$allocator@D@2@@std@@@0@@Z 00000001800455c0 f i entry.obj
 0001:00044640       ??1CWidgets@FGUI@@QEAA@XZ  0000000180045640 f i entry.obj
 0001:00044790       ??1?$pair@V?$vector@V?$basic_string@DU?$char_traits@D@std@@V?$allocator@D@2@@std@@V?$allocator@V?$basic_string@DU?$char_traits@D@std@@V?$allocator@D@2@@std@@@2@@std@@V?$vector@HV?$allocator@H@std@@@2@@std@@QEAA@XZ 0000000180045790 f i entry.obj
 0001:00044800       ??1?$_Uninitialized_backout_al@V?$allocator@V?$basic_string@DU?$char_traits@D@std@@V?$allocator@D@2@@std@@@std@@@std@@QEAA@XZ 0000000180045800 f i entry.obj
 0001:00044810       ??1?$_List_node_emplace_op2@V?$allocator@U?$_List_node@U?$pair@$$CBV?$basic_string@DU?$char_traits@D@std@@V?$allocator@D@2@@std@@V?$shared_ptr@VCContainer@FGUI@@@2@@std@@PEAX@std@@@std@@@std@@QEAA@XZ 0000000180045810 f i entry.obj
 0001:00044850       ?_Delete_this@?$_Func_impl_no_alloc@V<lambda_3>@?1??OnSetupDevice@ui@plusminus@@YAXXZ@X$$V@std@@EEAAX_N@Z 0000000180045850 f i entry.obj
 0001:00044850       ?_Delete_this@?$_Func_impl_no_alloc@V<lambda_2>@?1??OnSetupDevice@ui@plusminus@@YAXXZ@X$$V@std@@EEAAX_N@Z 0000000180045850 f i entry.obj
 0001:00044850       ?_Delete_this@?$_Func_impl_no_alloc@V<lambda_1>@?1??OnSetupDevice@ui@plusminus@@YAXXZ@X$$V@std@@EEAAX_N@Z 0000000180045850 f i entry.obj
 0001:00044860       ?_Get@?$_Func_impl_no_alloc@V<lambda_1>@?1??OnSetupDevice@ui@plusminus@@YAXXZ@X$$V@std@@EEBAPEBXXZ 0000000180045860 f i entry.obj
 0001:00044860       ?_Get@?$_Func_impl_no_alloc@V<lambda_3>@?1??OnSetupDevice@ui@plusminus@@YAXXZ@X$$V@std@@EEBAPEBXXZ 0000000180045860 f i entry.obj
 0001:00044860       ?_Get@?$_Func_impl_no_alloc@V<lambda_2>@?1??OnSetupDevice@ui@plusminus@@YAXXZ@X$$V@std@@EEBAPEBXXZ 0000000180045860 f i entry.obj
 0001:00044870       ?_Target_type@?$_Func_impl_no_alloc@V<lambda_3>@?1??OnSetupDevice@ui@plusminus@@YAXXZ@X$$V@std@@EEBAAEBVtype_info@@XZ 0000000180045870 f i entry.obj
 0001:00044880       ?_Do_call@?$_Func_impl_no_alloc@V<lambda_3>@?1??OnSetupDevice@ui@plusminus@@YAXXZ@X$$V@std@@EEAAXXZ 0000000180045880 f i entry.obj
 0001:00044890       ?_Move@?$_Func_impl_no_alloc@V<lambda_3>@?1??OnSetupDevice@ui@plusminus@@YAXXZ@X$$V@std@@EEAAPEAV?$_Func_base@X$$V@2@PEAX@Z 0000000180045890 f i entry.obj
 0001:00044890       ?_Copy@?$_Func_impl_no_alloc@V<lambda_3>@?1??OnSetupDevice@ui@plusminus@@YAXXZ@X$$V@std@@EEBAPEAV?$_Func_base@X$$V@2@PEAX@Z 0000000180045890 f i entry.obj
 0001:000448a0       ?_Target_type@?$_Func_impl_no_alloc@V<lambda_2>@?1??OnSetupDevice@ui@plusminus@@YAXXZ@X$$V@std@@EEBAAEBVtype_info@@XZ 00000001800458a0 f i entry.obj
 0001:000448b0       ?_Do_call@?$_Func_impl_no_alloc@V<lambda_2>@?1??OnSetupDevice@ui@plusminus@@YAXXZ@X$$V@std@@EEAAXXZ 00000001800458b0 f i entry.obj
 0001:000448c0       ?_Copy@?$_Func_impl_no_alloc@V<lambda_2>@?1??OnSetupDevice@ui@plusminus@@YAXXZ@X$$V@std@@EEBAPEAV?$_Func_base@X$$V@2@PEAX@Z 00000001800458c0 f i entry.obj
 0001:000448c0       ?_Move@?$_Func_impl_no_alloc@V<lambda_2>@?1??OnSetupDevice@ui@plusminus@@YAXXZ@X$$V@std@@EEAAPEAV?$_Func_base@X$$V@2@PEAX@Z 00000001800458c0 f i entry.obj
 0001:000448d0       ?_Target_type@?$_Func_impl_no_alloc@V<lambda_1>@?1??OnSetupDevice@ui@plusminus@@YAXXZ@X$$V@std@@EEBAAEBVtype_info@@XZ 00000001800458d0 f i entry.obj
 0001:000448e0       ?_Do_call@?$_Func_impl_no_alloc@V<lambda_1>@?1??OnSetupDevice@ui@plusminus@@YAXXZ@X$$V@std@@EEAAXXZ 00000001800458e0 f i entry.obj
 0001:000448f0       ?_Copy@?$_Func_impl_no_alloc@V<lambda_1>@?1??OnSetupDevice@ui@plusminus@@YAXXZ@X$$V@std@@EEBAPEAV?$_Func_base@X$$V@2@PEAX@Z 00000001800458f0 f i entry.obj
 0001:000448f0       ?_Move@?$_Func_impl_no_alloc@V<lambda_1>@?1??OnSetupDevice@ui@plusminus@@YAXXZ@X$$V@std@@EEAAPEAV?$_Func_base@X$$V@2@PEAX@Z 00000001800458f0 f i entry.obj
 0001:00044900       ??1?$vector@V?$shared_ptr@VCWidgets@FGUI@@@std@@V?$allocator@V?$shared_ptr@VCWidgets@FGUI@@@std@@@2@@std@@QEAA@XZ 0000000180045900 f i entry.obj
 0001:00044970       ?_Forced_rehash@?$_Hash@V?$_Umap_traits@V?$basic_string@DU?$char_traits@D@std@@V?$allocator@D@2@@std@@V?$shared_ptr@VCContainer@FGUI@@@2@V?$_Uhash_compare@V?$basic_string@DU?$char_traits@D@std@@V?$allocator@D@2@@std@@U?$hash@V?$basic_string@DU?$char_traits@D@std@@V?$allocator@D@2@@std@@@2@U?$equal_to@V?$basic_string@DU?$char_traits@D@std@@V?$allocator@D@2@@std@@@2@@2@V?$allocator@U?$pair@$$CBV?$basic_string@DU?$char_traits@D@std@@V?$allocator@D@2@@std@@V?$shared_ptr@VCContainer@FGUI@@@2@@std@@@2@$0A@@std@@@std@@IEAAX_K@Z 0000000180045970 f i entry.obj
 0001:00044be0       ??R?$mersenne_twister@I$0CA@$0CHA@$0BIN@$0BP@$0JJAILANP@$0L@$06$0JNCMFGIA@$0P@$0OPMGAAAA@$0BC@@std@@QEAAIXZ 0000000180045be0 f i entry.obj
 0001:00044d70       ??$_Copy_nodes@U_Copy_tag@?$_Tree@V?$_Tmap_traits@_KPEAVBoneCache@@U?$less@_K@std@@V?$allocator@U?$pair@$$CB_KPEAVBoneCache@@@std@@@3@$0A@@std@@@std@@@?$_Tree@V?$_Tmap_traits@_KPEAVBoneCache@@U?$less@_K@std@@V?$allocator@U?$pair@$$CB_KPEAVBoneCache@@@std@@@3@$0A@@std@@@std@@IEAAPEAU?$_Tree_node@U?$pair@$$CB_KPEAVBoneCache@@@std@@PEAX@1@PEAU21@0U_Copy_tag@01@@Z 0000000180045d70 f i entry.obj
 0001:00044d70       ??$_Copy_nodes@U_Copy_tag@?$_Tree@V?$_Tmap_traits@I_KU?$less@I@std@@V?$allocator@U?$pair@$$CBI_K@std@@@2@$0A@@std@@@std@@@?$_Tree@V?$_Tmap_traits@I_KU?$less@I@std@@V?$allocator@U?$pair@$$CBI_K@std@@@2@$0A@@std@@@std@@IEAAPEAU?$_Tree_node@U?$pair@$$CBI_K@std@@PEAX@1@PEAU21@0U_Copy_tag@01@@Z 0000000180045d70 f i entry.obj
 0001:00044e30       ??$_Find_last@V?$basic_string@DU?$char_traits@D@std@@V?$allocator@D@2@@std@@@?$_Hash@V?$_Umap_traits@V?$basic_string@DU?$char_traits@D@std@@V?$allocator@D@2@@std@@V?$shared_ptr@VCContainer@FGUI@@@2@V?$_Uhash_compare@V?$basic_string@DU?$char_traits@D@std@@V?$allocator@D@2@@std@@U?$hash@V?$basic_string@DU?$char_traits@D@std@@V?$allocator@D@2@@std@@@2@U?$equal_to@V?$basic_string@DU?$char_traits@D@std@@V?$allocator@D@2@@std@@@2@@2@V?$allocator@U?$pair@$$CBV?$basic_string@DU?$char_traits@D@std@@V?$allocator@D@2@@std@@V?$shared_ptr@VCContainer@FGUI@@@2@@std@@@2@$0A@@std@@@std@@IEBA?AU?$_Hash_find_last_result@PEAU?$_List_node@U?$pair@$$CBV?$basic_string@DU?$char_traits@D@std@@V?$allocator@D@2@@std@@V?$shared_ptr@VCContainer@FGUI@@@2@@std@@PEAX@std@@@1@AEBV?$basic_string@DU?$char_traits@D@std@@V?$allocator@D@2@@1@_K@Z 0000000180045e30 f i entry.obj
 0001:00044f10       ??$_Destroy_range@V?$allocator@V?$shared_ptr@VCWidgets@FGUI@@@std@@@std@@@std@@YAXPEAV?$shared_ptr@VCWidgets@FGUI@@@0@QEAV10@AEAV?$allocator@V?$shared_ptr@VCWidgets@FGUI@@@std@@@0@@Z 0000000180045f10 f i entry.obj
 0001:00044f90       ??1?$pair@$$CBV?$basic_string@DU?$char_traits@D@std@@V?$allocator@D@2@@std@@V?$shared_ptr@VCTextBox@FGUI@@@2@@std@@QEAA@XZ 0000000180045f90 f i entry.obj
 0001:00044f90       ??1?$pair@$$CBV?$basic_string@DU?$char_traits@D@std@@V?$allocator@D@2@@std@@V?$shared_ptr@VCButton@FGUI@@@2@@std@@QEAA@XZ 0000000180045f90 f i entry.obj
 0001:00044f90       ??1?$pair@$$CBV?$basic_string@DU?$char_traits@D@std@@V?$allocator@D@2@@std@@V?$shared_ptr@VCColorPicker@FGUI@@@2@@std@@QEAA@XZ 0000000180045f90 f i entry.obj
 0001:00044f90       ??1?$pair@$$CBV?$basic_string@DU?$char_traits@D@std@@V?$allocator@D@2@@std@@V?$shared_ptr@VCComboBox@FGUI@@@2@@std@@QEAA@XZ 0000000180045f90 f i entry.obj
 0001:00044f90       ??1?$pair@$$CBV?$basic_string@DU?$char_traits@D@std@@V?$allocator@D@2@@std@@V?$shared_ptr@VCCheckBox@FGUI@@@2@@std@@QEAA@XZ 0000000180045f90 f i entry.obj
 0001:00044f90       ??1?$pair@$$CBV?$basic_string@DU?$char_traits@D@std@@V?$allocator@D@2@@std@@V?$shared_ptr@VCKeyBinder@FGUI@@@2@@std@@QEAA@XZ 0000000180045f90 f i entry.obj
 0001:00044f90       ??1?$pair@$$CBV?$basic_string@DU?$char_traits@D@std@@V?$allocator@D@2@@std@@V?$shared_ptr@VCLabel@FGUI@@@2@@std@@QEAA@XZ 0000000180045f90 f i entry.obj
 0001:00044f90       ??1?$pair@$$CBV?$basic_string@DU?$char_traits@D@std@@V?$allocator@D@2@@std@@V?$shared_ptr@VCSlider@FGUI@@@2@@std@@QEAA@XZ 0000000180045f90 f i entry.obj
 0001:00045038       ??_E?$basic_ifstream@DU?$char_traits@D@std@@@std@@$4PPPPPPPM@A@EAAPEAXI@Z 0000000180046038 f i entry.obj
 0001:00045044       ??_E?$basic_istream@DU?$char_traits@D@std@@@std@@$4PPPPPPPM@A@EAAPEAXI@Z 0000000180046044 f i entry.obj
 0001:00045050       ??0CButton@FGUI@@QEAA@XZ   0000000180046050 f   button.obj
 0001:00045150       ?Geometry@CButton@FGUI@@UEAAXXZ 0000000180046150 f   button.obj
 0001:000452a0       ?Input@CButton@FGUI@@UEAAXXZ 00000001800462a0 f   button.obj
 0001:00045320       ?Tooltip@CButton@FGUI@@UEAAXXZ 0000000180046320 f   button.obj
 0001:00045320       ?Tooltip@CLabel@FGUI@@UEAAXXZ 0000000180046320 f   label.obj
 0001:000454a0       ??4?$function@$$A6AXXZ@std@@QEAAAEAV01@AEBV01@@Z 00000001800464a0 f i button.obj
 0001:00045630       ?what@exception@detail@nlohmann@@UEBAPEBDXZ 0000000180046630 f i checkbox.obj
 0001:00045650       ?name@exception@detail@nlohmann@@KA?AV?$basic_string@DU?$char_traits@D@std@@V?$allocator@D@2@@std@@AEBV45@H@Z 0000000180046650 f i checkbox.obj
 0001:00045960       ??_Etype_error@detail@nlohmann@@UEAAPEAXI@Z 0000000180046960 f i * CIL library *:* CIL module *
 0001:00045960       ??_Einvalid_iterator@detail@nlohmann@@UEAAPEAXI@Z 0000000180046960 f i * CIL library *:* CIL module *
 0001:00045960       ??_Eother_error@detail@nlohmann@@UEAAPEAXI@Z 0000000180046960 f i * CIL library *:* CIL module *
 0001:00045960       ??_Gout_of_range@detail@nlohmann@@UEAAPEAXI@Z 0000000180046960 f i container.obj
 0001:00045960       ??_Ginvalid_iterator@detail@nlohmann@@UEAAPEAXI@Z 0000000180046960 f i container.obj
 0001:00045960       ??_Gother_error@detail@nlohmann@@UEAAPEAXI@Z 0000000180046960 f i checkbox.obj
 0001:00045960       ??_Gtype_error@detail@nlohmann@@UEAAPEAXI@Z 0000000180046960 f i checkbox.obj
 0001:00045960       ??_Eexception@detail@nlohmann@@UEAAPEAXI@Z 0000000180046960 f i * CIL library *:* CIL module *
 0001:00045960       ??_Gexception@detail@nlohmann@@UEAAPEAXI@Z 0000000180046960 f i checkbox.obj
 0001:00045960       ??_Eout_of_range@detail@nlohmann@@UEAAPEAXI@Z 0000000180046960 f i * CIL library *:* CIL module *
 0001:000459c0       ?create@type_error@detail@nlohmann@@SA?AV123@HAEBV?$basic_string@DU?$char_traits@D@std@@V?$allocator@D@2@@std@@@Z 00000001800469c0 f i checkbox.obj
 0001:00045bb0       ??1invalid_iterator@detail@nlohmann@@UEAA@XZ 0000000180046bb0 f i container.obj
 0001:00045bb0       ??1parse_error@detail@nlohmann@@UEAA@XZ 0000000180046bb0 f i container.obj
 0001:00045bb0       ??1type_error@detail@nlohmann@@UEAA@XZ 0000000180046bb0 f i checkbox.obj
 0001:00045bb0       ??1out_of_range@detail@nlohmann@@UEAA@XZ 0000000180046bb0 f i container.obj
 0001:00045bb0       ??1other_error@detail@nlohmann@@UEAA@XZ 0000000180046bb0 f i checkbox.obj
 0001:00045bf0       ?create@other_error@detail@nlohmann@@SA?AV123@HAEBV?$basic_string@DU?$char_traits@D@std@@V?$allocator@D@2@@std@@@Z 0000000180046bf0 f i checkbox.obj
 0001:00045df0       ??0CCheckBox@FGUI@@QEAA@XZ 0000000180046df0 f   checkbox.obj
 0001:00045f00       ?Geometry@CCheckBox@FGUI@@UEAAXXZ 0000000180046f00 f   checkbox.obj
 0001:000460a0       ?Update@CCheckBox@FGUI@@UEAAXXZ 00000001800470a0 f   checkbox.obj
 0001:000460e0       ?Input@CCheckBox@FGUI@@UEAAXXZ 00000001800470e0 f   checkbox.obj
 0001:00046160       ?Save@CCheckBox@FGUI@@UEAAXAEAV?$basic_json@Vmap@std@@Vvector@2@V?$basic_string@DU?$char_traits@D@std@@V?$allocator@D@2@@2@_N_J_KNVallocator@2@Uadl_serializer@nlohmann@@V?$vector@EV?$allocator@E@std@@@2@@nlohmann@@@Z 0000000180047160 f   checkbox.obj
 0001:00046300       ?Load@CCheckBox@FGUI@@UEAAXAEAV?$basic_json@Vmap@std@@Vvector@2@V?$basic_string@DU?$char_traits@D@std@@V?$allocator@D@2@@2@_N_J_KNVallocator@2@Uadl_serializer@nlohmann@@V?$vector@EV?$allocator@E@std@@@2@@nlohmann@@@Z 0000000180047300 f   checkbox.obj
 0001:00046510       ?Tooltip@CCheckBox@FGUI@@UEAAXXZ 0000000180047510 f   checkbox.obj
 0001:00046510       ?Tooltip@CComboBox@FGUI@@UEAAXXZ 0000000180047510 f   combobox.obj
 0001:000466a0       ??1?$basic_json@Vmap@std@@Vvector@2@V?$basic_string@DU?$char_traits@D@std@@V?$allocator@D@2@@2@_N_J_KNVallocator@2@Uadl_serializer@nlohmann@@V?$vector@EV?$allocator@E@std@@@2@@nlohmann@@QEAA@XZ 00000001800476a0 f i checkbox.obj
 0001:000466b0       ??4?$basic_json@Vmap@std@@Vvector@2@V?$basic_string@DU?$char_traits@D@std@@V?$allocator@D@2@@2@_N_J_KNVallocator@2@Uadl_serializer@nlohmann@@V?$vector@EV?$allocator@E@std@@@2@@nlohmann@@QEAAAEAV01@V01@@Z 00000001800476b0 f i checkbox.obj
 0001:000466f0       ??0type_error@detail@nlohmann@@QEAA@AEBV012@@Z 00000001800476f0 f i checkbox.obj
 0001:00046720       ??0exception@detail@nlohmann@@QEAA@AEBV012@@Z 0000000180047720 f i checkbox.obj
 0001:000467a0       ?destroy@json_value@?$basic_json@Vmap@std@@Vvector@2@V?$basic_string@DU?$char_traits@D@std@@V?$allocator@D@2@@2@_N_J_KNVallocator@2@Uadl_serializer@nlohmann@@V?$vector@EV?$allocator@E@std@@@2@@nlohmann@@QEAAXW4value_t@detail@3@@Z 00000001800477a0 f i checkbox.obj
 0001:00046ca0       ?type_name@?$basic_json@Vmap@std@@Vvector@2@V?$basic_string@DU?$char_traits@D@std@@V?$allocator@D@2@@2@_N_J_KNVallocator@2@Uadl_serializer@nlohmann@@V?$vector@EV?$allocator@E@std@@@2@@nlohmann@@QEBAPEBDXZ 0000000180047ca0 f i checkbox.obj
 0001:00046d30       ?_Tidy@?$vector@V?$basic_json@Vmap@std@@Vvector@2@V?$basic_string@DU?$char_traits@D@std@@V?$allocator@D@2@@2@_N_J_KNVallocator@2@Uadl_serializer@nlohmann@@V?$vector@EV?$allocator@E@std@@@2@@nlohmann@@V?$allocator@V?$basic_json@Vmap@std@@Vvector@2@V?$basic_string@DU?$char_traits@D@std@@V?$allocator@D@2@@2@_N_J_KNVallocator@2@Uadl_serializer@nlohmann@@V?$vector@EV?$allocator@E@std@@@2@@nlohmann@@@std@@@std@@AEAAXXZ 0000000180047d30 f i checkbox.obj
 0001:00046dc0       ?_Destroy@?$vector@V?$basic_json@Vmap@std@@Vvector@2@V?$basic_string@DU?$char_traits@D@std@@V?$allocator@D@2@@2@_N_J_KNVallocator@2@Uadl_serializer@nlohmann@@V?$vector@EV?$allocator@E@std@@@2@@nlohmann@@V?$allocator@V?$basic_json@Vmap@std@@Vvector@2@V?$basic_string@DU?$char_traits@D@std@@V?$allocator@D@2@@2@_N_J_KNVallocator@2@Uadl_serializer@nlohmann@@V?$vector@EV?$allocator@E@std@@@2@@nlohmann@@@std@@@std@@AEAAXPEAV?$basic_json@Vmap@std@@Vvector@2@V?$basic_string@DU?$char_traits@D@std@@V?$allocator@D@2@@2@_N_J_KNVallocator@2@Uadl_serializer@nlohmann@@V?$vector@EV?$allocator@E@std@@@2@@nlohmann@@0@Z 0000000180047dc0 f i checkbox.obj
 0001:00046e00       ?_Reallocate_exactly@?$vector@V?$basic_json@Vmap@std@@Vvector@2@V?$basic_string@DU?$char_traits@D@std@@V?$allocator@D@2@@2@_N_J_KNVallocator@2@Uadl_serializer@nlohmann@@V?$vector@EV?$allocator@E@std@@@2@@nlohmann@@V?$allocator@V?$basic_json@Vmap@std@@Vvector@2@V?$basic_string@DU?$char_traits@D@std@@V?$allocator@D@2@@2@_N_J_KNVallocator@2@Uadl_serializer@nlohmann@@V?$vector@EV?$allocator@E@std@@@2@@nlohmann@@@std@@@std@@AEAAX_K@Z 0000000180047e00 f i checkbox.obj
 0001:00046ee0       ?_Change_array@?$vector@V?$basic_json@Vmap@std@@Vvector@2@V?$basic_string@DU?$char_traits@D@std@@V?$allocator@D@2@@2@_N_J_KNVallocator@2@Uadl_serializer@nlohmann@@V?$vector@EV?$allocator@E@std@@@2@@nlohmann@@V?$allocator@V?$basic_json@Vmap@std@@Vvector@2@V?$basic_string@DU?$char_traits@D@std@@V?$allocator@D@2@@2@_N_J_KNVallocator@2@Uadl_serializer@nlohmann@@V?$vector@EV?$allocator@E@std@@@2@@nlohmann@@@std@@@std@@AEAAXQEAV?$basic_json@Vmap@std@@Vvector@2@V?$basic_string@DU?$char_traits@D@std@@V?$allocator@D@2@@2@_N_J_KNVallocator@2@Uadl_serializer@nlohmann@@V?$vector@EV?$allocator@E@std@@@2@@nlohmann@@_K1@Z 0000000180047ee0 f i checkbox.obj
 0001:00046fa0       ?deallocate@?$allocator@V?$basic_json@Vmap@std@@Vvector@2@V?$basic_string@DU?$char_traits@D@std@@V?$allocator@D@2@@2@_N_J_KNVallocator@2@Uadl_serializer@nlohmann@@V?$vector@EV?$allocator@E@std@@@2@@nlohmann@@@std@@QEAAXQEAV?$basic_json@Vmap@std@@Vvector@2@V?$basic_string@DU?$char_traits@D@std@@V?$allocator@D@2@@2@_N_J_KNVallocator@2@Uadl_serializer@nlohmann@@V?$vector@EV?$allocator@E@std@@@2@@nlohmann@@_K@Z 0000000180047fa0 f i checkbox.obj
 0001:00046ff0       ??$?HDU?$char_traits@D@std@@V?$allocator@D@1@@std@@YA?AV?$basic_string@DU?$char_traits@D@std@@V?$allocator@D@2@@0@$$QEAV10@AEBV10@@Z 0000000180047ff0 f i checkbox.obj
 0001:00047050       ??$contains@AEAV?$basic_string@DU?$char_traits@D@std@@V?$allocator@D@2@@std@@$0A@@?$basic_json@Vmap@std@@Vvector@2@V?$basic_string@DU?$char_traits@D@std@@V?$allocator@D@2@@2@_N_J_KNVallocator@2@Uadl_serializer@nlohmann@@V?$vector@EV?$allocator@E@std@@@2@@nlohmann@@QEBA_NAEAV?$basic_string@DU?$char_traits@D@std@@V?$allocator@D@2@@std@@@Z 0000000180048050 f i checkbox.obj
 0001:00047170       ??$create@V?$map@V?$basic_string@DU?$char_traits@D@std@@V?$allocator@D@2@@std@@V?$basic_json@Vmap@std@@Vvector@2@V?$basic_string@DU?$char_traits@D@std@@V?$allocator@D@2@@2@_N_J_KNVallocator@2@Uadl_serializer@nlohmann@@V?$vector@EV?$allocator@E@std@@@2@@nlohmann@@U?$less@X@2@V?$allocator@U?$pair@$$CBV?$basic_string@DU?$char_traits@D@std@@V?$allocator@D@2@@std@@V?$basic_json@Vmap@std@@Vvector@2@V?$basic_string@DU?$char_traits@D@std@@V?$allocator@D@2@@2@_N_J_KNVallocator@2@Uadl_serializer@nlohmann@@V?$vector@EV?$allocator@E@std@@@2@@nlohmann@@@std@@@2@@std@@$$V@?$basic_json@Vmap@std@@Vvector@2@V?$basic_string@DU?$char_traits@D@std@@V?$allocator@D@2@@2@_N_J_KNVallocator@2@Uadl_serializer@nlohmann@@V?$vector@EV?$allocator@E@std@@@2@@nlohmann@@CAPEAV?$map@V?$basic_string@DU?$char_traits@D@std@@V?$allocator@D@2@@std@@V?$basic_json@Vmap@std@@Vvector@2@V?$basic_string@DU?$char_traits@D@std@@V?$allocator@D@2@@2@_N_J_KNVallocator@2@Uadl_serializer@nlohmann@@V?$vector@EV?$allocator@E@std@@@2@@nlohmann@@U?$less@X@2@V?$allocator@U?$pair@$$CBV?$basic_string@DU?$char_traits@D@std@@V?$allocator@D@2@@std@@V?$basic_json@Vmap@std@@Vvector@2@V?$basic_string@DU?$char_traits@D@std@@V?$allocator@D@2@@2@_N_J_KNVallocator@2@Uadl_serializer@nlohmann@@V?$vector@EV?$allocator@E@std@@@2@@nlohmann@@@std@@@2@@std@@XZ 0000000180048170 f i checkbox.obj
 0001:000471f0       ??$_Try_emplace@AEBV?$basic_string@DU?$char_traits@D@std@@V?$allocator@D@2@@std@@$$V@?$map@V?$basic_string@DU?$char_traits@D@std@@V?$allocator@D@2@@std@@V?$basic_json@Vmap@std@@Vvector@2@V?$basic_string@DU?$char_traits@D@std@@V?$allocator@D@2@@2@_N_J_KNVallocator@2@Uadl_serializer@nlohmann@@V?$vector@EV?$allocator@E@std@@@2@@nlohmann@@U?$less@X@2@V?$allocator@U?$pair@$$CBV?$basic_string@DU?$char_traits@D@std@@V?$allocator@D@2@@std@@V?$basic_json@Vmap@std@@Vvector@2@V?$basic_string@DU?$char_traits@D@std@@V?$allocator@D@2@@2@_N_J_KNVallocator@2@Uadl_serializer@nlohmann@@V?$vector@EV?$allocator@E@std@@@2@@nlohmann@@@std@@@2@@std@@AEAA?AU?$pair@PEAU?$_Tree_node@U?$pair@$$CBV?$basic_string@DU?$char_traits@D@std@@V?$allocator@D@2@@std@@V?$basic_json@Vmap@std@@Vvector@2@V?$basic_string@DU?$char_traits@D@std@@V?$allocator@D@2@@2@_N_J_KNVallocator@2@Uadl_serializer@nlohmann@@V?$vector@EV?$allocator@E@std@@@2@@nlohmann@@@std@@PEAX@std@@_N@1@AEBV?$basic_string@DU?$char_traits@D@std@@V?$allocator@D@2@@1@@Z 00000001800481f0 f i checkbox.obj
 0001:000473c0       ??$_Emplace_reallocate@V?$basic_json@Vmap@std@@Vvector@2@V?$basic_string@DU?$char_traits@D@std@@V?$allocator@D@2@@2@_N_J_KNVallocator@2@Uadl_serializer@nlohmann@@V?$vector@EV?$allocator@E@std@@@2@@nlohmann@@@?$vector@V?$basic_json@Vmap@std@@Vvector@2@V?$basic_string@DU?$char_traits@D@std@@V?$allocator@D@2@@2@_N_J_KNVallocator@2@Uadl_serializer@nlohmann@@V?$vector@EV?$allocator@E@std@@@2@@nlohmann@@V?$allocator@V?$basic_json@Vmap@std@@Vvector@2@V?$basic_string@DU?$char_traits@D@std@@V?$allocator@D@2@@2@_N_J_KNVallocator@2@Uadl_serializer@nlohmann@@V?$vector@EV?$allocator@E@std@@@2@@nlohmann@@@std@@@std@@QEAAPEAV?$basic_json@Vmap@std@@Vvector@2@V?$basic_string@DU?$char_traits@D@std@@V?$allocator@D@2@@2@_N_J_KNVallocator@2@Uadl_serializer@nlohmann@@V?$vector@EV?$allocator@E@std@@@2@@nlohmann@@QEAV23@$$QEAV23@@Z 00000001800483c0 f i checkbox.obj
 0001:00047590       ??$_Erase_tree_and_orphan@V?$allocator@U?$_Tree_node@U?$pair@$$CBV?$basic_string@DU?$char_traits@D@std@@V?$allocator@D@2@@std@@V?$basic_json@Vmap@std@@Vvector@2@V?$basic_string@DU?$char_traits@D@std@@V?$allocator@D@2@@2@_N_J_KNVallocator@2@Uadl_serializer@nlohmann@@V?$vector@EV?$allocator@E@std@@@2@@nlohmann@@@std@@PEAX@std@@@std@@@?$_Tree_val@U?$_Tree_simple_types@U?$pair@$$CBV?$basic_string@DU?$char_traits@D@std@@V?$allocator@D@2@@std@@V?$basic_json@Vmap@std@@Vvector@2@V?$basic_string@DU?$char_traits@D@std@@V?$allocator@D@2@@2@_N_J_KNVallocator@2@Uadl_serializer@nlohmann@@V?$vector@EV?$allocator@E@std@@@2@@nlohmann@@@std@@@std@@@std@@QEAAXAEAV?$allocator@U?$_Tree_node@U?$pair@$$CBV?$basic_string@DU?$char_traits@D@std@@V?$allocator@D@2@@std@@V?$basic_json@Vmap@std@@Vvector@2@V?$basic_string@DU?$char_traits@D@std@@V?$allocator@D@2@@2@_N_J_KNVallocator@2@Uadl_serializer@nlohmann@@V?$vector@EV?$allocator@E@std@@@2@@nlohmann@@@std@@PEAX@std@@@1@PEAU?$_Tree_node@U?$pair@$$CBV?$basic_string@DU?$char_traits@D@std@@V?$allocator@D@2@@std@@V?$basic_json@Vmap@std@@Vvector@2@V?$basic_string@DU?$char_traits@D@std@@V?$allocator@D@2@@2@_N_J_KNVallocator@2@Uadl_serializer@nlohmann@@V?$vector@EV?$allocator@E@std@@@2@@nlohmann@@@std@@PEAX@1@@Z 0000000180048590 f i container.obj
 0001:00047590       ??$_Erase_tree@V?$allocator@U?$_Tree_node@U?$pair@$$CBV?$basic_string@DU?$char_traits@D@std@@V?$allocator@D@2@@std@@V?$basic_json@Vmap@std@@Vvector@2@V?$basic_string@DU?$char_traits@D@std@@V?$allocator@D@2@@2@_N_J_KNVallocator@2@Uadl_serializer@nlohmann@@V?$vector@EV?$allocator@E@std@@@2@@nlohmann@@@std@@PEAX@std@@@std@@@?$_Tree_val@U?$_Tree_simple_types@U?$pair@$$CBV?$basic_string@DU?$char_traits@D@std@@V?$allocator@D@2@@std@@V?$basic_json@Vmap@std@@Vvector@2@V?$basic_string@DU?$char_traits@D@std@@V?$allocator@D@2@@2@_N_J_KNVallocator@2@Uadl_serializer@nlohmann@@V?$vector@EV?$allocator@E@std@@@2@@nlohmann@@@std@@@std@@@std@@QEAAXAEAV?$allocator@U?$_Tree_node@U?$pair@$$CBV?$basic_string@DU?$char_traits@D@std@@V?$allocator@D@2@@std@@V?$basic_json@Vmap@std@@Vvector@2@V?$basic_string@DU?$char_traits@D@std@@V?$allocator@D@2@@2@_N_J_KNVallocator@2@Uadl_serializer@nlohmann@@V?$vector@EV?$allocator@E@std@@@2@@nlohmann@@@std@@PEAX@std@@@1@PEAU?$_Tree_node@U?$pair@$$CBV?$basic_string@DU?$char_traits@D@std@@V?$allocator@D@2@@std@@V?$basic_json@Vmap@std@@Vvector@2@V?$basic_string@DU?$char_traits@D@std@@V?$allocator@D@2@@2@_N_J_KNVallocator@2@Uadl_serializer@nlohmann@@V?$vector@EV?$allocator@E@std@@@2@@nlohmann@@@std@@PEAX@1@@Z 0000000180048590 f i checkbox.obj
 0001:000475f0       ??1?$_Uninitialized_backout_al@V?$allocator@V?$basic_json@Vmap@std@@Vvector@2@V?$basic_string@DU?$char_traits@D@std@@V?$allocator@D@2@@2@_N_J_KNVallocator@2@Uadl_serializer@nlohmann@@V?$vector@EV?$allocator@E@std@@@2@@nlohmann@@@std@@@std@@QEAA@XZ 00000001800485f0 f i checkbox.obj
 0001:00047630       ??1?$unique_ptr@V?$map@V?$basic_string@DU?$char_traits@D@std@@V?$allocator@D@2@@std@@V?$basic_json@Vmap@std@@Vvector@2@V?$basic_string@DU?$char_traits@D@std@@V?$allocator@D@2@@2@_N_J_KNVallocator@2@Uadl_serializer@nlohmann@@V?$vector@EV?$allocator@E@std@@@2@@nlohmann@@U?$less@X@2@V?$allocator@U?$pair@$$CBV?$basic_string@DU?$char_traits@D@std@@V?$allocator@D@2@@std@@V?$basic_json@Vmap@std@@Vvector@2@V?$basic_string@DU?$char_traits@D@std@@V?$allocator@D@2@@2@_N_J_KNVallocator@2@Uadl_serializer@nlohmann@@V?$vector@EV?$allocator@E@std@@@2@@nlohmann@@@std@@@2@@std@@V<lambda_1>@?1???$create@V?$map@V?$basic_string@DU?$char_traits@D@std@@V?$allocator@D@2@@std@@V?$basic_json@Vmap@std@@Vvector@2@V?$basic_string@DU?$char_traits@D@std@@V?$allocator@D@2@@2@_N_J_KNVallocator@2@Uadl_serializer@nlohmann@@V?$vector@EV?$allocator@E@std@@@2@@nlohmann@@U?$less@X@2@V?$allocator@U?$pair@$$CBV?$basic_string@DU?$char_traits@D@std@@V?$allocator@D@2@@std@@V?$basic_json@Vmap@std@@Vvector@2@V?$basic_string@DU?$char_traits@D@std@@V?$allocator@D@2@@2@_N_J_KNVallocator@2@Uadl_serializer@nlohmann@@V?$vector@EV?$allocator@E@std@@@2@@nlohmann@@@std@@@2@@std@@$$V@?$basic_json@Vmap@std@@Vvector@2@V?$basic_string@DU?$char_traits@D@std@@V?$allocator@D@2@@2@_N_J_KNVallocator@2@Uadl_serializer@nlohmann@@V?$vector@EV?$allocator@E@std@@@2@@nlohmann@@CAPEAV12@XZ@@std@@QEAA@XZ 0000000180048630 f i checkbox.obj
 0001:00047630       ??1?$unique_ptr@V?$map@V?$basic_string@DU?$char_traits@D@std@@V?$allocator@D@2@@std@@V?$basic_json@Vmap@std@@Vvector@2@V?$basic_string@DU?$char_traits@D@std@@V?$allocator@D@2@@2@_N_J_KNVallocator@2@Uadl_serializer@nlohmann@@V?$vector@EV?$allocator@E@std@@@2@@nlohmann@@U?$less@X@2@V?$allocator@U?$pair@$$CBV?$basic_string@DU?$char_traits@D@std@@V?$allocator@D@2@@std@@V?$basic_json@Vmap@std@@Vvector@2@V?$basic_string@DU?$char_traits@D@std@@V?$allocator@D@2@@2@_N_J_KNVallocator@2@Uadl_serializer@nlohmann@@V?$vector@EV?$allocator@E@std@@@2@@nlohmann@@@std@@@2@@std@@V<lambda_1>@?1???$create@V?$map@V?$basic_string@DU?$char_traits@D@std@@V?$allocator@D@2@@std@@V?$basic_json@Vmap@std@@Vvector@2@V?$basic_string@DU?$char_traits@D@std@@V?$allocator@D@2@@2@_N_J_KNVallocator@2@Uadl_serializer@nlohmann@@V?$vector@EV?$allocator@E@std@@@2@@nlohmann@@U?$less@X@2@V?$allocator@U?$pair@$$CBV?$basic_string@DU?$char_traits@D@std@@V?$allocator@D@2@@std@@V?$basic_json@Vmap@std@@Vvector@2@V?$basic_string@DU?$char_traits@D@std@@V?$allocator@D@2@@2@_N_J_KNVallocator@2@Uadl_serializer@nlohmann@@V?$vector@EV?$allocator@E@std@@@2@@nlohmann@@@std@@@2@@std@@AEBV12@@?$basic_json@Vmap@std@@Vvector@2@V?$basic_string@DU?$char_traits@D@std@@V?$allocator@D@2@@2@_N_J_KNVallocator@2@Uadl_serializer@nlohmann@@V?$vector@EV?$allocator@E@std@@@2@@nlohmann@@CAPEAV12@AEBV12@@Z@@std@@QEAA@XZ 0000000180048630 f i container.obj
 0001:00047650       ??1?$_Tree_temp_node_alloc@V?$allocator@U?$_Tree_node@U?$pair@$$CBV?$basic_string@DU?$char_traits@D@std@@V?$allocator@D@2@@std@@V?$basic_json@Vmap@std@@Vvector@2@V?$basic_string@DU?$char_traits@D@std@@V?$allocator@D@2@@2@_N_J_KNVallocator@2@Uadl_serializer@nlohmann@@V?$vector@EV?$allocator@E@std@@@2@@nlohmann@@@std@@PEAX@std@@@std@@@std@@QEAA@XZ 0000000180048650 f i checkbox.obj
 0001:00047650       ??1?$_Alloc_construct_ptr@V?$allocator@U?$_Tree_node@U?$pair@$$CBV?$basic_string@DU?$char_traits@D@std@@V?$allocator@D@2@@std@@V?$basic_json@Vmap@std@@Vvector@2@V?$basic_string@DU?$char_traits@D@std@@V?$allocator@D@2@@2@_N_J_KNVallocator@2@Uadl_serializer@nlohmann@@V?$vector@EV?$allocator@E@std@@@2@@nlohmann@@@std@@PEAX@std@@@std@@@std@@QEAA@XZ 0000000180048650 f i checkbox.obj
 0001:00047670       ??0other_error@detail@nlohmann@@QEAA@AEBV012@@Z 0000000180048670 f i checkbox.obj
 0001:000476a0       ??0json_value@?$basic_json@Vmap@std@@Vvector@2@V?$basic_string@DU?$char_traits@D@std@@V?$allocator@D@2@@2@_N_J_KNVallocator@2@Uadl_serializer@nlohmann@@V?$vector@EV?$allocator@E@std@@@2@@nlohmann@@QEAA@W4value_t@detail@2@@Z 00000001800486a0 f i checkbox.obj
 0001:00047810       ??1?$unique_ptr@V?$byte_container_with_subtype@V?$vector@EV?$allocator@E@std@@@std@@@nlohmann@@V<lambda_1>@?1???$create@V?$byte_container_with_subtype@V?$vector@EV?$allocator@E@std@@@std@@@nlohmann@@AEBV12@@?$basic_json@Vmap@std@@Vvector@2@V?$basic_string@DU?$char_traits@D@std@@V?$allocator@D@2@@2@_N_J_KNVallocator@2@Uadl_serializer@nlohmann@@V?$vector@EV?$allocator@E@std@@@2@@2@CAPEAV12@AEBV12@@Z@@std@@QEAA@XZ 0000000180048810 f i container.obj
 0001:00047810       ??1?$unique_ptr@V?$basic_string@DU?$char_traits@D@std@@V?$allocator@D@2@@std@@V<lambda_1>@?1???$create@V?$basic_string@DU?$char_traits@D@std@@V?$allocator@D@2@@std@@AEAY00$$CBD@?$basic_json@Vmap@std@@Vvector@2@V?$basic_string@DU?$char_traits@D@std@@V?$allocator@D@2@@2@_N_J_KNVallocator@2@Uadl_serializer@nlohmann@@V?$vector@EV?$allocator@E@std@@@2@@nlohmann@@CAPEAV12@AEAY00$$CBD@Z@@std@@QEAA@XZ 0000000180048810 f i checkbox.obj
 0001:00047810       ??1?$unique_ptr@V?$basic_string@DU?$char_traits@D@std@@V?$allocator@D@2@@std@@V<lambda_1>@?1???$create@V?$basic_string@DU?$char_traits@D@std@@V?$allocator@D@2@@std@@AEBV12@@?$basic_json@Vmap@std@@Vvector@2@V?$basic_string@DU?$char_traits@D@std@@V?$allocator@D@2@@2@_N_J_KNVallocator@2@Uadl_serializer@nlohmann@@V?$vector@EV?$allocator@E@std@@@2@@nlohmann@@CAPEAV12@AEBV12@@Z@@std@@QEAA@XZ 0000000180048810 f i container.obj
 0001:00047830       ??1?$_Tree@V?$_Tmap_traits@V?$basic_string@DU?$char_traits@D@std@@V?$allocator@D@2@@std@@V?$basic_json@Vmap@std@@Vvector@2@V?$basic_string@DU?$char_traits@D@std@@V?$allocator@D@2@@2@_N_J_KNVallocator@2@Uadl_serializer@nlohmann@@V?$vector@EV?$allocator@E@std@@@2@@nlohmann@@U?$less@X@2@V?$allocator@U?$pair@$$CBV?$basic_string@DU?$char_traits@D@std@@V?$allocator@D@2@@std@@V?$basic_json@Vmap@std@@Vvector@2@V?$basic_string@DU?$char_traits@D@std@@V?$allocator@D@2@@2@_N_J_KNVallocator@2@Uadl_serializer@nlohmann@@V?$vector@EV?$allocator@E@std@@@2@@nlohmann@@@std@@@2@$0A@@std@@@std@@QEAA@XZ 0000000180048830 f i checkbox.obj
 0001:000478a0       ??1?$pair@$$CBV?$basic_string@DU?$char_traits@D@std@@V?$allocator@D@2@@std@@V?$basic_json@Vmap@std@@Vvector@2@V?$basic_string@DU?$char_traits@D@std@@V?$allocator@D@2@@2@_N_J_KNVallocator@2@Uadl_serializer@nlohmann@@V?$vector@EV?$allocator@E@std@@@2@@nlohmann@@@std@@QEAA@XZ 00000001800488a0 f i checkbox.obj
 0001:00047910       ??0bad_weak_ptr@std@@QEAA@XZ 0000000180048910 f i colorpicker.obj
 0001:00047930       ?what@bad_weak_ptr@std@@UEBAPEBDXZ 0000000180048930 f i colorpicker.obj
 0001:00047940       ?_Throw_bad_weak_ptr@std@@YAXXZ 0000000180048940 f i colorpicker.obj
 0001:00047960       ??0bad_weak_ptr@std@@QEAA@AEBV01@@Z 0000000180048960 f i colorpicker.obj
 0001:000479a0       ?HSBToRGB@SColor_t@FGUI@@SA?AU12@MMME@Z 00000001800489a0 f i colorpicker.obj
 0001:00047ba0       ?GetHue@SColor_t@FGUI@@SAMU12@@Z 0000000180048ba0 f i colorpicker.obj
 0001:00047cd0       ??0CColorPicker@FGUI@@QEAA@XZ 0000000180048cd0 f   colorpicker.obj
 0001:00047de0       ?Geometry@CColorPicker@FGUI@@UEAAXXZ 0000000180048de0 f   colorpicker.obj
 0001:000482f0       ?Update@CColorPicker@FGUI@@UEAAXXZ 00000001800492f0 f   colorpicker.obj
 0001:00048670       ?Input@CColorPicker@FGUI@@UEAAXXZ 0000000180049670 f   colorpicker.obj
 0001:000486f0       ?Save@CColorPicker@FGUI@@UEAAXAEAV?$basic_json@Vmap@std@@Vvector@2@V?$basic_string@DU?$char_traits@D@std@@V?$allocator@D@2@@2@_N_J_KNVallocator@2@Uadl_serializer@nlohmann@@V?$vector@EV?$allocator@E@std@@@2@@nlohmann@@@Z 00000001800496f0 f   colorpicker.obj
 0001:00048bc0       ?Load@CColorPicker@FGUI@@UEAAXAEAV?$basic_json@Vmap@std@@Vvector@2@V?$basic_string@DU?$char_traits@D@std@@V?$allocator@D@2@@2@_N_J_KNVallocator@2@Uadl_serializer@nlohmann@@V?$vector@EV?$allocator@E@std@@@2@@nlohmann@@@Z 0000000180049bc0 f   colorpicker.obj
 0001:00048ff0       ?Tooltip@CColorPicker@FGUI@@UEAAXXZ 0000000180049ff0 f   colorpicker.obj
 0001:00049180       ??$?AD@?$basic_json@Vmap@std@@Vvector@2@V?$basic_string@DU?$char_traits@D@std@@V?$allocator@D@2@@2@_N_J_KNVallocator@2@Uadl_serializer@nlohmann@@V?$vector@EV?$allocator@E@std@@@2@@nlohmann@@QEAAAEAV01@PEAD@Z 000000018004a180 f i colorpicker.obj
 0001:000492c0       ??$?BE$0A@@?$basic_json@Vmap@std@@Vvector@2@V?$basic_string@DU?$char_traits@D@std@@V?$allocator@D@2@@2@_N_J_KNVallocator@2@Uadl_serializer@nlohmann@@V?$vector@EV?$allocator@E@std@@@2@@nlohmann@@QEBAEXZ 000000018004a2c0 f i colorpicker.obj
 0001:000493b0       ??$_Try_emplace@V?$basic_string@DU?$char_traits@D@std@@V?$allocator@D@2@@std@@$$V@?$map@V?$basic_string@DU?$char_traits@D@std@@V?$allocator@D@2@@std@@V?$basic_json@Vmap@std@@Vvector@2@V?$basic_string@DU?$char_traits@D@std@@V?$allocator@D@2@@2@_N_J_KNVallocator@2@Uadl_serializer@nlohmann@@V?$vector@EV?$allocator@E@std@@@2@@nlohmann@@U?$less@X@2@V?$allocator@U?$pair@$$CBV?$basic_string@DU?$char_traits@D@std@@V?$allocator@D@2@@std@@V?$basic_json@Vmap@std@@Vvector@2@V?$basic_string@DU?$char_traits@D@std@@V?$allocator@D@2@@2@_N_J_KNVallocator@2@Uadl_serializer@nlohmann@@V?$vector@EV?$allocator@E@std@@@2@@nlohmann@@@std@@@2@@std@@AEAA?AU?$pair@PEAU?$_Tree_node@U?$pair@$$CBV?$basic_string@DU?$char_traits@D@std@@V?$allocator@D@2@@std@@V?$basic_json@Vmap@std@@Vvector@2@V?$basic_string@DU?$char_traits@D@std@@V?$allocator@D@2@@2@_N_J_KNVallocator@2@Uadl_serializer@nlohmann@@V?$vector@EV?$allocator@E@std@@@2@@nlohmann@@@std@@PEAX@std@@_N@1@$$QEAV?$basic_string@DU?$char_traits@D@std@@V?$allocator@D@2@@1@@Z 000000018004a3b0 f i colorpicker.obj
 0001:00049590       ??0CComboBox@FGUI@@QEAA@XZ 000000018004a590 f   combobox.obj
 0001:00049750       ?Geometry@CComboBox@FGUI@@UEAAXXZ 000000018004a750 f   combobox.obj
 0001:00049b90       ?Update@CComboBox@FGUI@@UEAAXXZ 000000018004ab90 f   combobox.obj
 0001:00049cc0       ?Input@CComboBox@FGUI@@UEAAXXZ 000000018004acc0 f   combobox.obj
 0001:00049e10       ?Save@CComboBox@FGUI@@UEAAXAEAV?$basic_json@Vmap@std@@Vvector@2@V?$basic_string@DU?$char_traits@D@std@@V?$allocator@D@2@@2@_N_J_KNVallocator@2@Uadl_serializer@nlohmann@@V?$vector@EV?$allocator@E@std@@@2@@nlohmann@@@Z 000000018004ae10 f   combobox.obj
 0001:00049fa0       ?Load@CComboBox@FGUI@@UEAAXAEAV?$basic_json@Vmap@std@@Vvector@2@V?$basic_string@DU?$char_traits@D@std@@V?$allocator@D@2@@2@_N_J_KNVallocator@2@Uadl_serializer@nlohmann@@V?$vector@EV?$allocator@E@std@@@2@@nlohmann@@@Z 000000018004afa0 f   combobox.obj
 0001:0004a150       ??$?4U?$pair@V?$vector@V?$basic_string@DU?$char_traits@D@std@@V?$allocator@D@2@@std@@V?$allocator@V?$basic_string@DU?$char_traits@D@std@@V?$allocator@D@2@@std@@@2@@std@@V?$vector@HV?$allocator@H@std@@@2@@std@@$0A@@?$pair@V?$vector@V?$basic_string@DU?$char_traits@D@std@@V?$allocator@D@2@@std@@V?$allocator@V?$basic_string@DU?$char_traits@D@std@@V?$allocator@D@2@@std@@@2@@std@@V?$vector@HV?$allocator@H@std@@@2@@std@@QEAAAEAU01@$$QEAU01@@Z 000000018004b150 f i combobox.obj
 0001:0004a220       ??$_Emplace_reallocate@AEAV?$basic_string@DU?$char_traits@D@std@@V?$allocator@D@2@@std@@@?$vector@V?$basic_string@DU?$char_traits@D@std@@V?$allocator@D@2@@std@@V?$allocator@V?$basic_string@DU?$char_traits@D@std@@V?$allocator@D@2@@std@@@2@@std@@QEAAPEAV?$basic_string@DU?$char_traits@D@std@@V?$allocator@D@2@@1@QEAV21@AEAV21@@Z 000000018004b220 f i combobox.obj
 0001:0004a3e0       ??$?0AEA_K_K$0A@@?$basic_json@Vmap@std@@Vvector@2@V?$basic_string@DU?$char_traits@D@std@@V?$allocator@D@2@@2@_N_J_KNVallocator@2@Uadl_serializer@nlohmann@@V?$vector@EV?$allocator@E@std@@@2@@nlohmann@@QEAA@AEA_K@Z 000000018004b3e0 f i combobox.obj
 0001:0004a400       ??$?B_K$0A@@?$basic_json@Vmap@std@@Vvector@2@V?$basic_string@DU?$char_traits@D@std@@V?$allocator@D@2@@2@_N_J_KNVallocator@2@Uadl_serializer@nlohmann@@V?$vector@EV?$allocator@E@std@@@2@@nlohmann@@QEBA_KXZ 000000018004b400 f i combobox.obj
 0001:0004a500       snprintf                   000000018004b500 f i container.obj
 0001:0004a560       ?to_string@std@@YA?AV?$basic_string@DU?$char_traits@D@std@@V?$allocator@D@2@@1@_K@Z 000000018004b560 f i container.obj
 0001:0004a600       ?create@parse_error@detail@nlohmann@@SA?AV123@HAEBUposition_t@23@AEBV?$basic_string@DU?$char_traits@D@std@@V?$allocator@D@2@@std@@@Z 000000018004b600 f i container.obj
 0001:0004a9d0       ?position_string@parse_error@detail@nlohmann@@CA?AV?$basic_string@DU?$char_traits@D@std@@V?$allocator@D@2@@std@@AEBUposition_t@23@@Z 000000018004b9d0 f i container.obj
 0001:0004acc0       ??_Eparse_error@detail@nlohmann@@UEAAPEAXI@Z 000000018004bcc0 f i * CIL library *:* CIL module *
 0001:0004acc0       ??_Gparse_error@detail@nlohmann@@UEAAPEAXI@Z 000000018004bcc0 f i container.obj
 0001:0004ad20       ?create@invalid_iterator@detail@nlohmann@@SA?AV123@HAEBV?$basic_string@DU?$char_traits@D@std@@V?$allocator@D@2@@std@@@Z 000000018004bd20 f i container.obj
 0001:0004af10       ?create@out_of_range@detail@nlohmann@@SA?AV123@HAEBV?$basic_string@DU?$char_traits@D@std@@V?$allocator@D@2@@std@@@Z 000000018004bf10 f i container.obj
 0001:0004b100       ??1input_stream_adapter@detail@nlohmann@@QEAA@XZ 000000018004c100 f i container.obj
 0001:0004b140       ?grisu2_digit_gen@dtoa_impl@detail@nlohmann@@YAXPEADAEAH1Udiyfp@123@22@Z 000000018004c140 f i container.obj
 0001:0004b390       ?grisu2@dtoa_impl@detail@nlohmann@@YAXPEADAEAH1Udiyfp@123@22@Z 000000018004c390 f i container.obj
 0001:0004b5e0       ?format_buffer@dtoa_impl@detail@nlohmann@@YAPEADPEADHHHH@Z 000000018004c5e0 f i container.obj
 0001:0004b7b0       ??0CContainer@FGUI@@QEAA@XZ 000000018004c7b0 f   container.obj
 0001:0004b970       ?SaveToFile@CContainer@FGUI@@QEAAXV?$basic_string@DU?$char_traits@D@std@@V?$allocator@D@2@@std@@@Z 000000018004c970 f   container.obj
 0001:0004bce0       ??_D?$basic_ofstream@DU?$char_traits@D@std@@@std@@QEAAXXZ 000000018004cce0 f i container.obj
 0001:0004bd80       ?LoadFromFile@CContainer@FGUI@@QEAAXV?$basic_string@DU?$char_traits@D@std@@V?$allocator@D@2@@std@@@Z 000000018004cd80 f   container.obj
 0001:0004c050       ?SetFocusedWidget@CContainer@FGUI@@QEAAXV?$shared_ptr@VCWidgets@FGUI@@@std@@@Z 000000018004d050 f   container.obj
 0001:0004c120       ?AddWidget@CContainer@FGUI@@QEAAXV?$shared_ptr@VCWidgets@FGUI@@@std@@_N@Z 000000018004d120 f   container.obj
 0001:0004c2c0       ?Geometry@CContainer@FGUI@@UEAAXXZ 000000018004d2c0 f   container.obj
 0001:0004c990       ?Update@CContainer@FGUI@@UEAAXXZ 000000018004d990 f   container.obj
 0001:0004d220       ?Save@CContainer@FGUI@@UEAAXAEAV?$basic_json@Vmap@std@@Vvector@2@V?$basic_string@DU?$char_traits@D@std@@V?$allocator@D@2@@2@_N_J_KNVallocator@2@Uadl_serializer@nlohmann@@V?$vector@EV?$allocator@E@std@@@2@@nlohmann@@@Z 000000018004e220 f   container.obj
 0001:0004d2f0       ?Load@CContainer@FGUI@@UEAAXAEAV?$basic_json@Vmap@std@@Vvector@2@V?$basic_string@DU?$char_traits@D@std@@V?$allocator@D@2@@2@_N_J_KNVallocator@2@Uadl_serializer@nlohmann@@V?$vector@EV?$allocator@E@std@@@2@@nlohmann@@@Z 000000018004e2f0 f   container.obj
 0001:0004d3c0       ?Tooltip@CContainer@FGUI@@UEAAXXZ 000000018004e3c0 f   container.obj
 0001:0004d5d0       ??6nlohmann@@YAAEAV?$basic_ostream@DU?$char_traits@D@std@@@std@@AEAV12@AEBV?$basic_json@Vmap@std@@Vvector@2@V?$basic_string@DU?$char_traits@D@std@@V?$allocator@D@2@@2@_N_J_KNVallocator@2@Uadl_serializer@nlohmann@@V?$vector@EV?$allocator@E@std@@@2@@0@@Z 000000018004e5d0 f i container.obj
 0001:0004d890       ??1?$basic_ostream@DU?$char_traits@D@std@@@std@@UEAA@XZ 000000018004e890 f i container.obj
 0001:0004d8c0       ??0?$basic_string@DU?$char_traits@D@std@@V?$allocator@D@2@@std@@QEAA@_KD@Z 000000018004e8c0 f i container.obj
 0001:0004d8f0       ??_G?$basic_ofstream@DU?$char_traits@D@std@@@std@@UEAAPEAXI@Z 000000018004e8f0 f i container.obj
 0001:0004d8f0       ??_E?$basic_ofstream@DU?$char_traits@D@std@@@std@@UEAAPEAXI@Z 000000018004e8f0 f i * CIL library *:* CIL module *
 0001:0004d930       ??1?$serializer@V?$basic_json@Vmap@std@@Vvector@2@V?$basic_string@DU?$char_traits@D@std@@V?$allocator@D@2@@2@_N_J_KNVallocator@2@Uadl_serializer@nlohmann@@V?$vector@EV?$allocator@E@std@@@2@@nlohmann@@@detail@nlohmann@@QEAA@XZ 000000018004e930 f i container.obj
 0001:0004d9e0       ??_E?$basic_ostream@DU?$char_traits@D@std@@@std@@UEAAPEAXI@Z 000000018004e9e0 f i * CIL library *:* CIL module *
 0001:0004d9e0       ??_G?$basic_ostream@DU?$char_traits@D@std@@@std@@UEAAPEAXI@Z 000000018004e9e0 f i container.obj
 0001:0004da50       ?dump@?$serializer@V?$basic_json@Vmap@std@@Vvector@2@V?$basic_string@DU?$char_traits@D@std@@V?$allocator@D@2@@2@_N_J_KNVallocator@2@Uadl_serializer@nlohmann@@V?$vector@EV?$allocator@E@std@@@2@@nlohmann@@@detail@nlohmann@@QEAAXAEBV?$basic_json@Vmap@std@@Vvector@2@V?$basic_string@DU?$char_traits@D@std@@V?$allocator@D@2@@2@_N_J_KNVallocator@2@Uadl_serializer@nlohmann@@V?$vector@EV?$allocator@E@std@@@2@@3@_N1II@Z 000000018004ea50 f i container.obj
 0001:0004e5d0       ?assign@?$basic_string@DU?$char_traits@D@std@@V?$allocator@D@2@@std@@QEAAAEAV12@_KD@Z 000000018004f5d0 f i container.obj
 0001:0004e740       ??0parse_error@detail@nlohmann@@QEAA@AEBV012@@Z 000000018004f740 f i container.obj
 0001:0004e780       ?write_characters@?$output_stream_adapter@D@detail@nlohmann@@UEAAXPEBD_K@Z 000000018004f780 f i container.obj
 0001:0004e790       ?write_character@?$output_stream_adapter@D@detail@nlohmann@@UEAAXD@Z 000000018004f790 f i container.obj
 0001:0004e7a0       ?dump_escaped@?$serializer@V?$basic_json@Vmap@std@@Vvector@2@V?$basic_string@DU?$char_traits@D@std@@V?$allocator@D@2@@2@_N_J_KNVallocator@2@Uadl_serializer@nlohmann@@V?$vector@EV?$allocator@E@std@@@2@@nlohmann@@@detail@nlohmann@@AEAAXAEBV?$basic_string@DU?$char_traits@D@std@@V?$allocator@D@2@@std@@_N@Z 000000018004f7a0 f i container.obj
 0001:0004ec50       ??0?$basic_ostream@DU?$char_traits@D@std@@@std@@QEAA@PEAV?$basic_streambuf@DU?$char_traits@D@std@@@1@_N@Z 000000018004fc50 f i container.obj
 0001:0004ece0       ?write@?$basic_ostream@DU?$char_traits@D@std@@@std@@QEAAAEAV12@PEBD_J@Z 000000018004fce0 f i container.obj
 0001:0004ee10       ?put@?$basic_ostream@DU?$char_traits@D@std@@@std@@QEAAAEAV12@D@Z 000000018004fe10 f i container.obj
 0001:0004ef60       ?back@?$basic_string@DU?$char_traits@D@std@@V?$allocator@D@2@@std@@QEBAAEBDXZ 000000018004ff60 f i container.obj
 0001:0004ef80       ??$endl@DU?$char_traits@D@std@@@std@@YAAEAV?$basic_ostream@DU?$char_traits@D@std@@@0@AEAV10@@Z 000000018004ff80 f i container.obj
 0001:0004efc0       ??$parse@AEAV?$basic_ifstream@DU?$char_traits@D@std@@@std@@@?$basic_json@Vmap@std@@Vvector@2@V?$basic_string@DU?$char_traits@D@std@@V?$allocator@D@2@@2@_N_J_KNVallocator@2@Uadl_serializer@nlohmann@@V?$vector@EV?$allocator@E@std@@@2@@nlohmann@@SA?AV01@AEAV?$basic_ifstream@DU?$char_traits@D@std@@@std@@V?$function@$$A6A_NHW4parse_event_t@detail@nlohmann@@AEAV?$basic_json@Vmap@std@@Vvector@2@V?$basic_string@DU?$char_traits@D@std@@V?$allocator@D@2@@2@_N_J_KNVallocator@2@Uadl_serializer@nlohmann@@V?$vector@EV?$allocator@E@std@@@2@@3@@Z@3@_N@Z 000000018004ffc0 f i container.obj
 0001:0004f0c0       ??$_Emplace_reallocate@AEAV?$shared_ptr@VCWidgets@FGUI@@@std@@@?$vector@V?$shared_ptr@VCWidgets@FGUI@@@std@@V?$allocator@V?$shared_ptr@VCWidgets@FGUI@@@std@@@2@@std@@QEAAPEAV?$shared_ptr@VCWidgets@FGUI@@@1@QEAV21@AEAV21@@Z 00000001800500c0 f i container.obj
 0001:0004f320       ??$dump_integer@E$0A@@?$serializer@V?$basic_json@Vmap@std@@Vvector@2@V?$basic_string@DU?$char_traits@D@std@@V?$allocator@D@2@@2@_N_J_KNVallocator@2@Uadl_serializer@nlohmann@@V?$vector@EV?$allocator@E@std@@@2@@nlohmann@@@detail@nlohmann@@AEAAXE@Z 0000000180050320 f i container.obj
 0001:0004f450       ??$dump_integer@_J$0A@@?$serializer@V?$basic_json@Vmap@std@@Vvector@2@V?$basic_string@DU?$char_traits@D@std@@V?$allocator@D@2@@2@_N_J_KNVallocator@2@Uadl_serializer@nlohmann@@V?$vector@EV?$allocator@E@std@@@2@@nlohmann@@@detail@nlohmann@@AEAAX_J@Z 0000000180050450 f i container.obj
 0001:0004f610       ??$_Reallocate_for@V<lambda_1>@?1??assign@?$basic_string@DU?$char_traits@D@std@@V?$allocator@D@2@@std@@QEAAAEAV34@_KD@Z@D@?$basic_string@DU?$char_traits@D@std@@V?$allocator@D@2@@std@@AEAAAEAV01@_KV<lambda_1>@?1??assign@01@QEAAAEAV01@0D@Z@D@Z 0000000180050610 f i container.obj
 0001:0004f750       ??$to_chars@N@detail@nlohmann@@YAPEADPEADPEBDN@Z 0000000180050750 f i container.obj
 0001:0004f930       ??1?$parser@V?$basic_json@Vmap@std@@Vvector@2@V?$basic_string@DU?$char_traits@D@std@@V?$allocator@D@2@@2@_N_J_KNVallocator@2@Uadl_serializer@nlohmann@@V?$vector@EV?$allocator@E@std@@@2@@nlohmann@@Vinput_stream_adapter@detail@2@@detail@nlohmann@@QEAA@XZ 0000000180050930 f i container.obj
 0001:0004f970       ??1?$lexer@V?$basic_json@Vmap@std@@Vvector@2@V?$basic_string@DU?$char_traits@D@std@@V?$allocator@D@2@@2@_N_J_KNVallocator@2@Uadl_serializer@nlohmann@@V?$vector@EV?$allocator@E@std@@@2@@nlohmann@@Vinput_stream_adapter@detail@2@@detail@nlohmann@@QEAA@XZ 0000000180050970 f i container.obj
 0001:0004fa50       ?_Destroy@?$_Ref_count_obj2@V?$output_stream_adapter@D@detail@nlohmann@@@std@@EEAAXXZ 0000000180050a50 f i container.obj
 0001:0004fa60       ?parse@?$parser@V?$basic_json@Vmap@std@@Vvector@2@V?$basic_string@DU?$char_traits@D@std@@V?$allocator@D@2@@2@_N_J_KNVallocator@2@Uadl_serializer@nlohmann@@V?$vector@EV?$allocator@E@std@@@2@@nlohmann@@Vinput_stream_adapter@detail@2@@detail@nlohmann@@QEAAX_NAEAV?$basic_json@Vmap@std@@Vvector@2@V?$basic_string@DU?$char_traits@D@std@@V?$allocator@D@2@@2@_N_J_KNVallocator@2@Uadl_serializer@nlohmann@@V?$vector@EV?$allocator@E@std@@@2@@3@@Z 0000000180050a60 f i container.obj
 0001:00050080       ??_E?$_Ref_count_obj2@V?$output_stream_adapter@D@detail@nlohmann@@@std@@UEAAPEAXI@Z 0000000180051080 f i * CIL library *:* CIL module *
 0001:00050080       ??_G?$_Ref_count_obj2@V?$output_stream_adapter@D@detail@nlohmann@@@std@@UEAAPEAXI@Z 0000000180051080 f i container.obj
 0001:000500b0       ??1?$json_sax_dom_callback_parser@V?$basic_json@Vmap@std@@Vvector@2@V?$basic_string@DU?$char_traits@D@std@@V?$allocator@D@2@@2@_N_J_KNVallocator@2@Uadl_serializer@nlohmann@@V?$vector@EV?$allocator@E@std@@@2@@nlohmann@@@detail@nlohmann@@QEAA@XZ 00000001800510b0 f i container.obj
 0001:000501e0       ??1?$json_sax_dom_parser@V?$basic_json@Vmap@std@@Vvector@2@V?$basic_string@DU?$char_traits@D@std@@V?$allocator@D@2@@2@_N_J_KNVallocator@2@Uadl_serializer@nlohmann@@V?$vector@EV?$allocator@E@std@@@2@@nlohmann@@@detail@nlohmann@@QEAA@XZ 00000001800511e0 f i container.obj
 0001:00050240       ?parse_error@?$json_sax_dom_parser@V?$basic_json@Vmap@std@@Vvector@2@V?$basic_string@DU?$char_traits@D@std@@V?$allocator@D@2@@2@_N_J_KNVallocator@2@Uadl_serializer@nlohmann@@V?$vector@EV?$allocator@E@std@@@2@@nlohmann@@@detail@nlohmann@@QEAA_N_KAEBV?$basic_string@DU?$char_traits@D@std@@V?$allocator@D@2@@std@@AEBVexception@23@@Z 0000000180051240 f i container.obj
 0001:00050350       ??1?$vector@PEAV?$basic_json@Vmap@std@@Vvector@2@V?$basic_string@DU?$char_traits@D@std@@V?$allocator@D@2@@2@_N_J_KNVallocator@2@Uadl_serializer@nlohmann@@V?$vector@EV?$allocator@E@std@@@2@@nlohmann@@V?$allocator@PEAV?$basic_json@Vmap@std@@Vvector@2@V?$basic_string@DU?$char_traits@D@std@@V?$allocator@D@2@@2@_N_J_KNVallocator@2@Uadl_serializer@nlohmann@@V?$vector@EV?$allocator@E@std@@@2@@nlohmann@@@std@@@std@@QEAA@XZ 0000000180051350 f i container.obj
 0001:000503b0       ?parse_error@?$json_sax_dom_callback_parser@V?$basic_json@Vmap@std@@Vvector@2@V?$basic_string@DU?$char_traits@D@std@@V?$allocator@D@2@@2@_N_J_KNVallocator@2@Uadl_serializer@nlohmann@@V?$vector@EV?$allocator@E@std@@@2@@nlohmann@@@detail@nlohmann@@QEAA_N_KAEBV?$basic_string@DU?$char_traits@D@std@@V?$allocator@D@2@@std@@AEBVexception@23@@Z 00000001800513b0 f i container.obj
 0001:000504c0       ?exception_message@?$parser@V?$basic_json@Vmap@std@@Vvector@2@V?$basic_string@DU?$char_traits@D@std@@V?$allocator@D@2@@2@_N_J_KNVallocator@2@Uadl_serializer@nlohmann@@V?$vector@EV?$allocator@E@std@@@2@@nlohmann@@Vinput_stream_adapter@detail@2@@detail@nlohmann@@AEAA?AV?$basic_string@DU?$char_traits@D@std@@V?$allocator@D@2@@std@@W4token_type@?$lexer_base@V?$basic_json@Vmap@std@@Vvector@2@V?$basic_string@DU?$char_traits@D@std@@V?$allocator@D@2@@2@_N_J_KNVallocator@2@Uadl_serializer@nlohmann@@V?$vector@EV?$allocator@E@std@@@2@@nlohmann@@@23@AEBV45@@Z 00000001800514c0 f i container.obj
 0001:00050b90       ?get_token@?$parser@V?$basic_json@Vmap@std@@Vvector@2@V?$basic_string@DU?$char_traits@D@std@@V?$allocator@D@2@@2@_N_J_KNVallocator@2@Uadl_serializer@nlohmann@@V?$vector@EV?$allocator@E@std@@@2@@nlohmann@@Vinput_stream_adapter@detail@2@@detail@nlohmann@@AEAA?AW4token_type@?$lexer_base@V?$basic_json@Vmap@std@@Vvector@2@V?$basic_string@DU?$char_traits@D@std@@V?$allocator@D@2@@2@_N_J_KNVallocator@2@Uadl_serializer@nlohmann@@V?$vector@EV?$allocator@E@std@@@2@@nlohmann@@@23@XZ 0000000180051b90 f i container.obj
 0001:00050bb0       ?get_token_string@?$lexer@V?$basic_json@Vmap@std@@Vvector@2@V?$basic_string@DU?$char_traits@D@std@@V?$allocator@D@2@@2@_N_J_KNVallocator@2@Uadl_serializer@nlohmann@@V?$vector@EV?$allocator@E@std@@@2@@nlohmann@@Vinput_stream_adapter@detail@2@@detail@nlohmann@@QEBA?AV?$basic_string@DU?$char_traits@D@std@@V?$allocator@D@2@@std@@XZ 0000000180051bb0 f i container.obj
 0001:00050cd0       ??0out_of_range@detail@nlohmann@@QEAA@AEBV012@@Z 0000000180051cd0 f i container.obj
 0001:00050d00       ??0invalid_iterator@detail@nlohmann@@QEAA@AEBV012@@Z 0000000180051d00 f i container.obj
 0001:00050d30       ?scan@?$lexer@V?$basic_json@Vmap@std@@Vvector@2@V?$basic_string@DU?$char_traits@D@std@@V?$allocator@D@2@@2@_N_J_KNVallocator@2@Uadl_serializer@nlohmann@@V?$vector@EV?$allocator@E@std@@@2@@nlohmann@@Vinput_stream_adapter@detail@2@@detail@nlohmann@@QEAA?AW4token_type@?$lexer_base@V?$basic_json@Vmap@std@@Vvector@2@V?$basic_string@DU?$char_traits@D@std@@V?$allocator@D@2@@2@_N_J_KNVallocator@2@Uadl_serializer@nlohmann@@V?$vector@EV?$allocator@E@std@@@2@@nlohmann@@@23@XZ 0000000180051d30 f i container.obj
 0001:00051010       ?token_type_name@?$lexer_base@V?$basic_json@Vmap@std@@Vvector@2@V?$basic_string@DU?$char_traits@D@std@@V?$allocator@D@2@@2@_N_J_KNVallocator@2@Uadl_serializer@nlohmann@@V?$vector@EV?$allocator@E@std@@@2@@nlohmann@@@detail@nlohmann@@SAPEBDW4token_type@123@@Z 0000000180052010 f i container.obj
 0001:00051100       ?push_back@?$vector@_NV?$allocator@_N@std@@@std@@QEAAXAEB_N@Z 0000000180052100 f i container.obj
 0001:00051250       ?get@?$lexer@V?$basic_json@Vmap@std@@Vvector@2@V?$basic_string@DU?$char_traits@D@std@@V?$allocator@D@2@@2@_N_J_KNVallocator@2@Uadl_serializer@nlohmann@@V?$vector@EV?$allocator@E@std@@@2@@nlohmann@@Vinput_stream_adapter@detail@2@@detail@nlohmann@@AEAAHXZ 0000000180052250 f i container.obj
 0001:00051330       ?scan_number@?$lexer@V?$basic_json@Vmap@std@@Vvector@2@V?$basic_string@DU?$char_traits@D@std@@V?$allocator@D@2@@2@_N_J_KNVallocator@2@Uadl_serializer@nlohmann@@V?$vector@EV?$allocator@E@std@@@2@@nlohmann@@Vinput_stream_adapter@detail@2@@detail@nlohmann@@AEAA?AW4token_type@?$lexer_base@V?$basic_json@Vmap@std@@Vvector@2@V?$basic_string@DU?$char_traits@D@std@@V?$allocator@D@2@@2@_N_J_KNVallocator@2@Uadl_serializer@nlohmann@@V?$vector@EV?$allocator@E@std@@@2@@nlohmann@@@23@XZ 0000000180052330 f i container.obj
 0001:00051bc0       ?scan_string@?$lexer@V?$basic_json@Vmap@std@@Vvector@2@V?$basic_string@DU?$char_traits@D@std@@V?$allocator@D@2@@2@_N_J_KNVallocator@2@Uadl_serializer@nlohmann@@V?$vector@EV?$allocator@E@std@@@2@@nlohmann@@Vinput_stream_adapter@detail@2@@detail@nlohmann@@AEAA?AW4token_type@?$lexer_base@V?$basic_json@Vmap@std@@Vvector@2@V?$basic_string@DU?$char_traits@D@std@@V?$allocator@D@2@@2@_N_J_KNVallocator@2@Uadl_serializer@nlohmann@@V?$vector@EV?$allocator@E@std@@@2@@nlohmann@@@23@XZ 0000000180052bc0 f i container.obj
 0001:00052650       ??H?$_Vb_iterator@U?$_Wrap_alloc@V?$allocator@I@std@@@std@@@std@@QEBA?AV01@_J@Z 0000000180053650 f i container.obj
 0001:000526c0       ?next_byte_in_range@?$lexer@V?$basic_json@Vmap@std@@Vvector@2@V?$basic_string@DU?$char_traits@D@std@@V?$allocator@D@2@@2@_N_J_KNVallocator@2@Uadl_serializer@nlohmann@@V?$vector@EV?$allocator@E@std@@@2@@nlohmann@@Vinput_stream_adapter@detail@2@@detail@nlohmann@@AEAA_NV?$initializer_list@H@std@@@Z 00000001800536c0 f i container.obj
 0001:000527c0       ?get_codepoint@?$lexer@V?$basic_json@Vmap@std@@Vvector@2@V?$basic_string@DU?$char_traits@D@std@@V?$allocator@D@2@@2@_N_J_KNVallocator@2@Uadl_serializer@nlohmann@@V?$vector@EV?$allocator@E@std@@@2@@nlohmann@@Vinput_stream_adapter@detail@2@@detail@nlohmann@@AEAAHXZ 00000001800537c0 f i container.obj
 0001:00052880       ?_Insert_x@?$vector@_NV?$allocator@_N@std@@@std@@QEAA_KV?$_Vb_const_iterator@U?$_Wrap_alloc@V?$allocator@I@std@@@std@@@2@_K@Z 0000000180053880 f i container.obj
 0001:00052aa0       ?_Xlen@?$vector@_NV?$allocator@_N@std@@@std@@QEBAXXZ 0000000180053aa0 f i container.obj
 0001:00052ac0       ??$parser@Vinput_stream_adapter@detail@nlohmann@@@?$basic_json@Vmap@std@@Vvector@2@V?$basic_string@DU?$char_traits@D@std@@V?$allocator@D@2@@2@_N_J_KNVallocator@2@Uadl_serializer@nlohmann@@V?$vector@EV?$allocator@E@std@@@2@@nlohmann@@CA?AV?$parser@V?$basic_json@Vmap@std@@Vvector@2@V?$basic_string@DU?$char_traits@D@std@@V?$allocator@D@2@@2@_N_J_KNVallocator@2@Uadl_serializer@nlohmann@@V?$vector@EV?$allocator@E@std@@@2@@nlohmann@@Vinput_stream_adapter@detail@2@@detail@1@Vinput_stream_adapter@31@V?$function@$$A6A_NHW4parse_event_t@detail@nlohmann@@AEAV?$basic_json@Vmap@std@@Vvector@2@V?$basic_string@DU?$char_traits@D@std@@V?$allocator@D@2@@2@_N_J_KNVallocator@2@Uadl_serializer@nlohmann@@V?$vector@EV?$allocator@E@std@@@2@@3@@Z@std@@_N@Z 0000000180053ac0 f i container.obj
 0001:00052cc0       ??$sax_parse_internal@V?$json_sax_dom_callback_parser@V?$basic_json@Vmap@std@@Vvector@2@V?$basic_string@DU?$char_traits@D@std@@V?$allocator@D@2@@2@_N_J_KNVallocator@2@Uadl_serializer@nlohmann@@V?$vector@EV?$allocator@E@std@@@2@@nlohmann@@@detail@nlohmann@@@?$parser@V?$basic_json@Vmap@std@@Vvector@2@V?$basic_string@DU?$char_traits@D@std@@V?$allocator@D@2@@2@_N_J_KNVallocator@2@Uadl_serializer@nlohmann@@V?$vector@EV?$allocator@E@std@@@2@@nlohmann@@Vinput_stream_adapter@detail@2@@detail@nlohmann@@AEAA_NPEAV?$json_sax_dom_callback_parser@V?$basic_json@Vmap@std@@Vvector@2@V?$basic_string@DU?$char_traits@D@std@@V?$allocator@D@2@@2@_N_J_KNVallocator@2@Uadl_serializer@nlohmann@@V?$vector@EV?$allocator@E@std@@@2@@nlohmann@@@12@@Z 0000000180053cc0 f i container.obj
 0001:00054040       ??$sax_parse_internal@V?$json_sax_dom_parser@V?$basic_json@Vmap@std@@Vvector@2@V?$basic_string@DU?$char_traits@D@std@@V?$allocator@D@2@@2@_N_J_KNVallocator@2@Uadl_serializer@nlohmann@@V?$vector@EV?$allocator@E@std@@@2@@nlohmann@@@detail@nlohmann@@@?$parser@V?$basic_json@Vmap@std@@Vvector@2@V?$basic_string@DU?$char_traits@D@std@@V?$allocator@D@2@@2@_N_J_KNVallocator@2@Uadl_serializer@nlohmann@@V?$vector@EV?$allocator@E@std@@@2@@nlohmann@@Vinput_stream_adapter@detail@2@@detail@nlohmann@@AEAA_NPEAV?$json_sax_dom_parser@V?$basic_json@Vmap@std@@Vvector@2@V?$basic_string@DU?$char_traits@D@std@@V?$allocator@D@2@@2@_N_J_KNVallocator@2@Uadl_serializer@nlohmann@@V?$vector@EV?$allocator@E@std@@@2@@nlohmann@@@12@@Z 0000000180055040 f i container.obj
 0001:000552a0       ??$_Emplace_reallocate@D@?$vector@DV?$allocator@D@std@@@std@@QEAAPEADQEAD$$QEAD@Z 00000001800562a0 f i container.obj
 0001:00055410       ?key@?$json_sax_dom_parser@V?$basic_json@Vmap@std@@Vvector@2@V?$basic_string@DU?$char_traits@D@std@@V?$allocator@D@2@@2@_N_J_KNVallocator@2@Uadl_serializer@nlohmann@@V?$vector@EV?$allocator@E@std@@@2@@nlohmann@@@detail@nlohmann@@QEAA_NAEAV?$basic_string@DU?$char_traits@D@std@@V?$allocator@D@2@@std@@@Z 0000000180056410 f i container.obj
 0001:00055450       ?end_array@?$json_sax_dom_callback_parser@V?$basic_json@Vmap@std@@Vvector@2@V?$basic_string@DU?$char_traits@D@std@@V?$allocator@D@2@@2@_N_J_KNVallocator@2@Uadl_serializer@nlohmann@@V?$vector@EV?$allocator@E@std@@@2@@nlohmann@@@detail@nlohmann@@QEAA_NXZ 0000000180056450 f i container.obj
 0001:00055540       ?end_object@?$json_sax_dom_callback_parser@V?$basic_json@Vmap@std@@Vvector@2@V?$basic_string@DU?$char_traits@D@std@@V?$allocator@D@2@@2@_N_J_KNVallocator@2@Uadl_serializer@nlohmann@@V?$vector@EV?$allocator@E@std@@@2@@nlohmann@@@detail@nlohmann@@QEAA_NXZ 0000000180056540 f i container.obj
 0001:000558a0       ?key@?$json_sax_dom_callback_parser@V?$basic_json@Vmap@std@@Vvector@2@V?$basic_string@DU?$char_traits@D@std@@V?$allocator@D@2@@2@_N_J_KNVallocator@2@Uadl_serializer@nlohmann@@V?$vector@EV?$allocator@E@std@@@2@@nlohmann@@@detail@nlohmann@@QEAA_NAEAV?$basic_string@DU?$char_traits@D@std@@V?$allocator@D@2@@std@@@Z 00000001800568a0 f i container.obj
 0001:00055a00       ??B?$_Vb_reference@U?$_Wrap_alloc@V?$allocator@I@std@@@std@@@std@@QEBA_NXZ 0000000180056a00 f i container.obj
 0001:00055a20       ?pop_back@?$vector@_NV?$allocator@_N@std@@@std@@QEAAXXZ 0000000180056a20 f i container.obj
 0001:00055ad0       ?back@?$vector@_NV?$allocator@_N@std@@@std@@QEAA?AV?$_Vb_reference@U?$_Wrap_alloc@V?$allocator@I@std@@@std@@@2@XZ 0000000180056ad0 f i container.obj
 0001:00055b50       ??0?$basic_json@Vmap@std@@Vvector@2@V?$basic_string@DU?$char_traits@D@std@@V?$allocator@D@2@@2@_N_J_KNVallocator@2@Uadl_serializer@nlohmann@@V?$vector@EV?$allocator@E@std@@@2@@nlohmann@@QEAA@AEBV01@@Z 0000000180056b50 f i container.obj
 0001:00055ce0       ?erase@?$vector@_NV?$allocator@_N@std@@@std@@QEAA?AV?$_Vb_iterator@U?$_Wrap_alloc@V?$allocator@I@std@@@std@@@2@V?$_Vb_const_iterator@U?$_Wrap_alloc@V?$allocator@I@std@@@std@@@2@@Z 0000000180056ce0 f i container.obj
 0001:00055ed0       ??$_Resize_reallocate@I@?$vector@IV?$allocator@I@std@@@std@@AEAAX_KAEBI@Z 0000000180056ed0 f i container.obj
 0001:00056060       ??$handle_value@AEAV?$basic_string@DU?$char_traits@D@std@@V?$allocator@D@2@@std@@@?$json_sax_dom_parser@V?$basic_json@Vmap@std@@Vvector@2@V?$basic_string@DU?$char_traits@D@std@@V?$allocator@D@2@@2@_N_J_KNVallocator@2@Uadl_serializer@nlohmann@@V?$vector@EV?$allocator@E@std@@@2@@nlohmann@@@detail@nlohmann@@AEAAPEAV?$basic_json@Vmap@std@@Vvector@2@V?$basic_string@DU?$char_traits@D@std@@V?$allocator@D@2@@2@_N_J_KNVallocator@2@Uadl_serializer@nlohmann@@V?$vector@EV?$allocator@E@std@@@2@@2@AEAV?$basic_string@DU?$char_traits@D@std@@V?$allocator@D@2@@std@@@Z 0000000180057060 f i container.obj
 0001:000561f0       ??$handle_value@W4value_t@detail@nlohmann@@@?$json_sax_dom_callback_parser@V?$basic_json@Vmap@std@@Vvector@2@V?$basic_string@DU?$char_traits@D@std@@V?$allocator@D@2@@2@_N_J_KNVallocator@2@Uadl_serializer@nlohmann@@V?$vector@EV?$allocator@E@std@@@2@@nlohmann@@@detail@nlohmann@@AEAA?AU?$pair@_NPEAV?$basic_json@Vmap@std@@Vvector@2@V?$basic_string@DU?$char_traits@D@std@@V?$allocator@D@2@@2@_N_J_KNVallocator@2@Uadl_serializer@nlohmann@@V?$vector@EV?$allocator@E@std@@@2@@nlohmann@@@std@@$$QEAW4value_t@12@_N@Z 00000001800571f0 f i container.obj
 0001:00056440       ??$erase@V?$iter_impl@V?$basic_json@Vmap@std@@Vvector@2@V?$basic_string@DU?$char_traits@D@std@@V?$allocator@D@2@@2@_N_J_KNVallocator@2@Uadl_serializer@nlohmann@@V?$vector@EV?$allocator@E@std@@@2@@nlohmann@@@detail@nlohmann@@$0A@@?$basic_json@Vmap@std@@Vvector@2@V?$basic_string@DU?$char_traits@D@std@@V?$allocator@D@2@@2@_N_J_KNVallocator@2@Uadl_serializer@nlohmann@@V?$vector@EV?$allocator@E@std@@@2@@nlohmann@@QEAA?AV?$iter_impl@V?$basic_json@Vmap@std@@Vvector@2@V?$basic_string@DU?$char_traits@D@std@@V?$allocator@D@2@@2@_N_J_KNVallocator@2@Uadl_serializer@nlohmann@@V?$vector@EV?$allocator@E@std@@@2@@nlohmann@@@detail@1@V231@@Z 0000000180057440 f i container.obj
 0001:00056790       ??$?0AEAV?$basic_string@DU?$char_traits@D@std@@V?$allocator@D@2@@std@@V01@$0A@@?$basic_json@Vmap@std@@Vvector@2@V?$basic_string@DU?$char_traits@D@std@@V?$allocator@D@2@@2@_N_J_KNVallocator@2@Uadl_serializer@nlohmann@@V?$vector@EV?$allocator@E@std@@@2@@nlohmann@@QEAA@AEAV?$basic_string@DU?$char_traits@D@std@@V?$allocator@D@2@@std@@@Z 0000000180057790 f i container.obj
 0001:00056810       ??$handle_value@AEAV?$basic_string@DU?$char_traits@D@std@@V?$allocator@D@2@@std@@@?$json_sax_dom_callback_parser@V?$basic_json@Vmap@std@@Vvector@2@V?$basic_string@DU?$char_traits@D@std@@V?$allocator@D@2@@2@_N_J_KNVallocator@2@Uadl_serializer@nlohmann@@V?$vector@EV?$allocator@E@std@@@2@@nlohmann@@@detail@nlohmann@@AEAA?AU?$pair@_NPEAV?$basic_json@Vmap@std@@Vvector@2@V?$basic_string@DU?$char_traits@D@std@@V?$allocator@D@2@@2@_N_J_KNVallocator@2@Uadl_serializer@nlohmann@@V?$vector@EV?$allocator@E@std@@@2@@nlohmann@@@std@@AEAV?$basic_string@DU?$char_traits@D@std@@V?$allocator@D@2@@4@_N@Z 0000000180057810 f i container.obj
 0001:00056ab0       ??$handle_value@AEAN@?$json_sax_dom_callback_parser@V?$basic_json@Vmap@std@@Vvector@2@V?$basic_string@DU?$char_traits@D@std@@V?$allocator@D@2@@2@_N_J_KNVallocator@2@Uadl_serializer@nlohmann@@V?$vector@EV?$allocator@E@std@@@2@@nlohmann@@@detail@nlohmann@@AEAA?AU?$pair@_NPEAV?$basic_json@Vmap@std@@Vvector@2@V?$basic_string@DU?$char_traits@D@std@@V?$allocator@D@2@@2@_N_J_KNVallocator@2@Uadl_serializer@nlohmann@@V?$vector@EV?$allocator@E@std@@@2@@nlohmann@@@std@@AEAN_N@Z 0000000180057ab0 f i container.obj
 0001:00056d30       ??$handle_value@AEA_K@?$json_sax_dom_callback_parser@V?$basic_json@Vmap@std@@Vvector@2@V?$basic_string@DU?$char_traits@D@std@@V?$allocator@D@2@@2@_N_J_KNVallocator@2@Uadl_serializer@nlohmann@@V?$vector@EV?$allocator@E@std@@@2@@nlohmann@@@detail@nlohmann@@AEAA?AU?$pair@_NPEAV?$basic_json@Vmap@std@@Vvector@2@V?$basic_string@DU?$char_traits@D@std@@V?$allocator@D@2@@2@_N_J_KNVallocator@2@Uadl_serializer@nlohmann@@V?$vector@EV?$allocator@E@std@@@2@@nlohmann@@@std@@AEA_K_N@Z 0000000180057d30 f i container.obj
 0001:00056fb0       ??$handle_value@AEA_J@?$json_sax_dom_callback_parser@V?$basic_json@Vmap@std@@Vvector@2@V?$basic_string@DU?$char_traits@D@std@@V?$allocator@D@2@@2@_N_J_KNVallocator@2@Uadl_serializer@nlohmann@@V?$vector@EV?$allocator@E@std@@@2@@nlohmann@@@detail@nlohmann@@AEAA?AU?$pair@_NPEAV?$basic_json@Vmap@std@@Vvector@2@V?$basic_string@DU?$char_traits@D@std@@V?$allocator@D@2@@2@_N_J_KNVallocator@2@Uadl_serializer@nlohmann@@V?$vector@EV?$allocator@E@std@@@2@@nlohmann@@@std@@AEA_J_N@Z 0000000180057fb0 f i container.obj
 0001:00057230       ??$handle_value@AEA_N@?$json_sax_dom_callback_parser@V?$basic_json@Vmap@std@@Vvector@2@V?$basic_string@DU?$char_traits@D@std@@V?$allocator@D@2@@2@_N_J_KNVallocator@2@Uadl_serializer@nlohmann@@V?$vector@EV?$allocator@E@std@@@2@@nlohmann@@@detail@nlohmann@@AEAA?AU?$pair@_NPEAV?$basic_json@Vmap@std@@Vvector@2@V?$basic_string@DU?$char_traits@D@std@@V?$allocator@D@2@@2@_N_J_KNVallocator@2@Uadl_serializer@nlohmann@@V?$vector@EV?$allocator@E@std@@@2@@nlohmann@@@std@@AEA_N_N@Z 0000000180058230 f i container.obj
 0001:000574c0       ??$handle_value@$$T@?$json_sax_dom_callback_parser@V?$basic_json@Vmap@std@@Vvector@2@V?$basic_string@DU?$char_traits@D@std@@V?$allocator@D@2@@2@_N_J_KNVallocator@2@Uadl_serializer@nlohmann@@V?$vector@EV?$allocator@E@std@@@2@@nlohmann@@@detail@nlohmann@@AEAA?AU?$pair@_NPEAV?$basic_json@Vmap@std@@Vvector@2@V?$basic_string@DU?$char_traits@D@std@@V?$allocator@D@2@@2@_N_J_KNVallocator@2@Uadl_serializer@nlohmann@@V?$vector@EV?$allocator@E@std@@@2@@nlohmann@@@std@@$$QEA$$T_N@Z 00000001800584c0 f i container.obj
 0001:00057740       ??$_Emplace_reallocate@AEBQEAV?$basic_json@Vmap@std@@Vvector@2@V?$basic_string@DU?$char_traits@D@std@@V?$allocator@D@2@@2@_N_J_KNVallocator@2@Uadl_serializer@nlohmann@@V?$vector@EV?$allocator@E@std@@@2@@nlohmann@@@?$vector@PEAV?$basic_json@Vmap@std@@Vvector@2@V?$basic_string@DU?$char_traits@D@std@@V?$allocator@D@2@@2@_N_J_KNVallocator@2@Uadl_serializer@nlohmann@@V?$vector@EV?$allocator@E@std@@@2@@nlohmann@@V?$allocator@PEAV?$basic_json@Vmap@std@@Vvector@2@V?$basic_string@DU?$char_traits@D@std@@V?$allocator@D@2@@2@_N_J_KNVallocator@2@Uadl_serializer@nlohmann@@V?$vector@EV?$allocator@E@std@@@2@@nlohmann@@@std@@@std@@QEAAPEAPEAV?$basic_json@Vmap@std@@Vvector@2@V?$basic_string@DU?$char_traits@D@std@@V?$allocator@D@2@@2@_N_J_KNVallocator@2@Uadl_serializer@nlohmann@@V?$vector@EV?$allocator@E@std@@@2@@nlohmann@@QEAPEAV23@AEBQEAV23@@Z 0000000180058740 f i container.obj
 0001:00057740       ??$_Emplace_reallocate@PEAV?$basic_json@Vmap@std@@Vvector@2@V?$basic_string@DU?$char_traits@D@std@@V?$allocator@D@2@@2@_N_J_KNVallocator@2@Uadl_serializer@nlohmann@@V?$vector@EV?$allocator@E@std@@@2@@nlohmann@@@?$vector@PEAV?$basic_json@Vmap@std@@Vvector@2@V?$basic_string@DU?$char_traits@D@std@@V?$allocator@D@2@@2@_N_J_KNVallocator@2@Uadl_serializer@nlohmann@@V?$vector@EV?$allocator@E@std@@@2@@nlohmann@@V?$allocator@PEAV?$basic_json@Vmap@std@@Vvector@2@V?$basic_string@DU?$char_traits@D@std@@V?$allocator@D@2@@2@_N_J_KNVallocator@2@Uadl_serializer@nlohmann@@V?$vector@EV?$allocator@E@std@@@2@@nlohmann@@@std@@@std@@QEAAPEAPEAV?$basic_json@Vmap@std@@Vvector@2@V?$basic_string@DU?$char_traits@D@std@@V?$allocator@D@2@@2@_N_J_KNVallocator@2@Uadl_serializer@nlohmann@@V?$vector@EV?$allocator@E@std@@@2@@nlohmann@@QEAPEAV23@$$QEAPEAV23@@Z 0000000180058740 f i container.obj
 0001:000578e0       ??1?$unique_ptr@V?$vector@V?$basic_json@Vmap@std@@Vvector@2@V?$basic_string@DU?$char_traits@D@std@@V?$allocator@D@2@@2@_N_J_KNVallocator@2@Uadl_serializer@nlohmann@@V?$vector@EV?$allocator@E@std@@@2@@nlohmann@@V?$allocator@V?$basic_json@Vmap@std@@Vvector@2@V?$basic_string@DU?$char_traits@D@std@@V?$allocator@D@2@@2@_N_J_KNVallocator@2@Uadl_serializer@nlohmann@@V?$vector@EV?$allocator@E@std@@@2@@nlohmann@@@std@@@std@@V<lambda_1>@?1???$create@V?$vector@V?$basic_json@Vmap@std@@Vvector@2@V?$basic_string@DU?$char_traits@D@std@@V?$allocator@D@2@@2@_N_J_KNVallocator@2@Uadl_serializer@nlohmann@@V?$vector@EV?$allocator@E@std@@@2@@nlohmann@@V?$allocator@V?$basic_json@Vmap@std@@Vvector@2@V?$basic_string@DU?$char_traits@D@std@@V?$allocator@D@2@@2@_N_J_KNVallocator@2@Uadl_serializer@nlohmann@@V?$vector@EV?$allocator@E@std@@@2@@nlohmann@@@std@@@std@@AEBV12@@?$basic_json@Vmap@std@@Vvector@2@V?$basic_string@DU?$char_traits@D@std@@V?$allocator@D@2@@2@_N_J_KNVallocator@2@Uadl_serializer@nlohmann@@V?$vector@EV?$allocator@E@std@@@2@@nlohmann@@CAPEAV12@AEBV12@@Z@@std@@QEAA@XZ 00000001800588e0 f i container.obj
 0001:00057900       ??$_Emplace_reallocate@W4value_t@detail@nlohmann@@@?$vector@V?$basic_json@Vmap@std@@Vvector@2@V?$basic_string@DU?$char_traits@D@std@@V?$allocator@D@2@@2@_N_J_KNVallocator@2@Uadl_serializer@nlohmann@@V?$vector@EV?$allocator@E@std@@@2@@nlohmann@@V?$allocator@V?$basic_json@Vmap@std@@Vvector@2@V?$basic_string@DU?$char_traits@D@std@@V?$allocator@D@2@@2@_N_J_KNVallocator@2@Uadl_serializer@nlohmann@@V?$vector@EV?$allocator@E@std@@@2@@nlohmann@@@std@@@std@@QEAAPEAV?$basic_json@Vmap@std@@Vvector@2@V?$basic_string@DU?$char_traits@D@std@@V?$allocator@D@2@@2@_N_J_KNVallocator@2@Uadl_serializer@nlohmann@@V?$vector@EV?$allocator@E@std@@@2@@nlohmann@@QEAV23@$$QEAW4value_t@detail@3@@Z 0000000180058900 f i container.obj
 0001:00057b40       ??$_Emplace_reallocate@AEAV?$basic_string@DU?$char_traits@D@std@@V?$allocator@D@2@@std@@@?$vector@V?$basic_json@Vmap@std@@Vvector@2@V?$basic_string@DU?$char_traits@D@std@@V?$allocator@D@2@@2@_N_J_KNVallocator@2@Uadl_serializer@nlohmann@@V?$vector@EV?$allocator@E@std@@@2@@nlohmann@@V?$allocator@V?$basic_json@Vmap@std@@Vvector@2@V?$basic_string@DU?$char_traits@D@std@@V?$allocator@D@2@@2@_N_J_KNVallocator@2@Uadl_serializer@nlohmann@@V?$vector@EV?$allocator@E@std@@@2@@nlohmann@@@std@@@std@@QEAAPEAV?$basic_json@Vmap@std@@Vvector@2@V?$basic_string@DU?$char_traits@D@std@@V?$allocator@D@2@@2@_N_J_KNVallocator@2@Uadl_serializer@nlohmann@@V?$vector@EV?$allocator@E@std@@@2@@nlohmann@@QEAV23@AEAV?$basic_string@DU?$char_traits@D@std@@V?$allocator@D@2@@1@@Z 0000000180058b40 f i container.obj
 0001:00057db0       ??$_Emplace_reallocate@AEAN@?$vector@V?$basic_json@Vmap@std@@Vvector@2@V?$basic_string@DU?$char_traits@D@std@@V?$allocator@D@2@@2@_N_J_KNVallocator@2@Uadl_serializer@nlohmann@@V?$vector@EV?$allocator@E@std@@@2@@nlohmann@@V?$allocator@V?$basic_json@Vmap@std@@Vvector@2@V?$basic_string@DU?$char_traits@D@std@@V?$allocator@D@2@@2@_N_J_KNVallocator@2@Uadl_serializer@nlohmann@@V?$vector@EV?$allocator@E@std@@@2@@nlohmann@@@std@@@std@@QEAAPEAV?$basic_json@Vmap@std@@Vvector@2@V?$basic_string@DU?$char_traits@D@std@@V?$allocator@D@2@@2@_N_J_KNVallocator@2@Uadl_serializer@nlohmann@@V?$vector@EV?$allocator@E@std@@@2@@nlohmann@@QEAV23@AEAN@Z 0000000180058db0 f i container.obj
 0001:00057f80       ??$_Emplace_reallocate@AEA_K@?$vector@V?$basic_json@Vmap@std@@Vvector@2@V?$basic_string@DU?$char_traits@D@std@@V?$allocator@D@2@@2@_N_J_KNVallocator@2@Uadl_serializer@nlohmann@@V?$vector@EV?$allocator@E@std@@@2@@nlohmann@@V?$allocator@V?$basic_json@Vmap@std@@Vvector@2@V?$basic_string@DU?$char_traits@D@std@@V?$allocator@D@2@@2@_N_J_KNVallocator@2@Uadl_serializer@nlohmann@@V?$vector@EV?$allocator@E@std@@@2@@nlohmann@@@std@@@std@@QEAAPEAV?$basic_json@Vmap@std@@Vvector@2@V?$basic_string@DU?$char_traits@D@std@@V?$allocator@D@2@@2@_N_J_KNVallocator@2@Uadl_serializer@nlohmann@@V?$vector@EV?$allocator@E@std@@@2@@nlohmann@@QEAV23@AEA_K@Z 0000000180058f80 f i container.obj
 0001:00058150       ??$_Emplace_reallocate@AEA_J@?$vector@V?$basic_json@Vmap@std@@Vvector@2@V?$basic_string@DU?$char_traits@D@std@@V?$allocator@D@2@@2@_N_J_KNVallocator@2@Uadl_serializer@nlohmann@@V?$vector@EV?$allocator@E@std@@@2@@nlohmann@@V?$allocator@V?$basic_json@Vmap@std@@Vvector@2@V?$basic_string@DU?$char_traits@D@std@@V?$allocator@D@2@@2@_N_J_KNVallocator@2@Uadl_serializer@nlohmann@@V?$vector@EV?$allocator@E@std@@@2@@nlohmann@@@std@@@std@@QEAAPEAV?$basic_json@Vmap@std@@Vvector@2@V?$basic_string@DU?$char_traits@D@std@@V?$allocator@D@2@@2@_N_J_KNVallocator@2@Uadl_serializer@nlohmann@@V?$vector@EV?$allocator@E@std@@@2@@nlohmann@@QEAV23@AEA_J@Z 0000000180059150 f i container.obj
 0001:00058320       ??$_Emplace_reallocate@AEA_N@?$vector@V?$basic_json@Vmap@std@@Vvector@2@V?$basic_string@DU?$char_traits@D@std@@V?$allocator@D@2@@2@_N_J_KNVallocator@2@Uadl_serializer@nlohmann@@V?$vector@EV?$allocator@E@std@@@2@@nlohmann@@V?$allocator@V?$basic_json@Vmap@std@@Vvector@2@V?$basic_string@DU?$char_traits@D@std@@V?$allocator@D@2@@2@_N_J_KNVallocator@2@Uadl_serializer@nlohmann@@V?$vector@EV?$allocator@E@std@@@2@@nlohmann@@@std@@@std@@QEAAPEAV?$basic_json@Vmap@std@@Vvector@2@V?$basic_string@DU?$char_traits@D@std@@V?$allocator@D@2@@2@_N_J_KNVallocator@2@Uadl_serializer@nlohmann@@V?$vector@EV?$allocator@E@std@@@2@@nlohmann@@QEAV23@AEA_N@Z 0000000180059320 f i container.obj
 0001:000584f0       ??$_Emplace_reallocate@$$T@?$vector@V?$basic_json@Vmap@std@@Vvector@2@V?$basic_string@DU?$char_traits@D@std@@V?$allocator@D@2@@2@_N_J_KNVallocator@2@Uadl_serializer@nlohmann@@V?$vector@EV?$allocator@E@std@@@2@@nlohmann@@V?$allocator@V?$basic_json@Vmap@std@@Vvector@2@V?$basic_string@DU?$char_traits@D@std@@V?$allocator@D@2@@2@_N_J_KNVallocator@2@Uadl_serializer@nlohmann@@V?$vector@EV?$allocator@E@std@@@2@@nlohmann@@@std@@@std@@QEAAPEAV?$basic_json@Vmap@std@@Vvector@2@V?$basic_string@DU?$char_traits@D@std@@V?$allocator@D@2@@2@_N_J_KNVallocator@2@Uadl_serializer@nlohmann@@V?$vector@EV?$allocator@E@std@@@2@@nlohmann@@QEAV23@$$QEA$$T@Z 00000001800594f0 f i container.obj
 0001:000586b0       ??0?$byte_container_with_subtype@V?$vector@EV?$allocator@E@std@@@std@@@nlohmann@@QEAA@AEBV01@@Z 00000001800596b0 f i container.obj
 0001:00058790       ??0?$vector@V?$basic_json@Vmap@std@@Vvector@2@V?$basic_string@DU?$char_traits@D@std@@V?$allocator@D@2@@2@_N_J_KNVallocator@2@Uadl_serializer@nlohmann@@V?$vector@EV?$allocator@E@std@@@2@@nlohmann@@V?$allocator@V?$basic_json@Vmap@std@@Vvector@2@V?$basic_string@DU?$char_traits@D@std@@V?$allocator@D@2@@2@_N_J_KNVallocator@2@Uadl_serializer@nlohmann@@V?$vector@EV?$allocator@E@std@@@2@@nlohmann@@@std@@@std@@QEAA@AEBV01@@Z 0000000180059790 f i container.obj
 0001:000588c0       ??0?$map@V?$basic_string@DU?$char_traits@D@std@@V?$allocator@D@2@@std@@V?$basic_json@Vmap@std@@Vvector@2@V?$basic_string@DU?$char_traits@D@std@@V?$allocator@D@2@@2@_N_J_KNVallocator@2@Uadl_serializer@nlohmann@@V?$vector@EV?$allocator@E@std@@@2@@nlohmann@@U?$less@X@2@V?$allocator@U?$pair@$$CBV?$basic_string@DU?$char_traits@D@std@@V?$allocator@D@2@@std@@V?$basic_json@Vmap@std@@Vvector@2@V?$basic_string@DU?$char_traits@D@std@@V?$allocator@D@2@@2@_N_J_KNVallocator@2@Uadl_serializer@nlohmann@@V?$vector@EV?$allocator@E@std@@@2@@nlohmann@@@std@@@2@@std@@QEAA@AEBV01@@Z 00000001800598c0 f i container.obj
 0001:000589a0       ??1?$_Tidy_guard@V?$vector@V?$basic_json@Vmap@std@@Vvector@2@V?$basic_string@DU?$char_traits@D@std@@V?$allocator@D@2@@2@_N_J_KNVallocator@2@Uadl_serializer@nlohmann@@V?$vector@EV?$allocator@E@std@@@2@@nlohmann@@V?$allocator@V?$basic_json@Vmap@std@@Vvector@2@V?$basic_string@DU?$char_traits@D@std@@V?$allocator@D@2@@2@_N_J_KNVallocator@2@Uadl_serializer@nlohmann@@V?$vector@EV?$allocator@E@std@@@2@@nlohmann@@@std@@@std@@@std@@QEAA@XZ 00000001800599a0 f i container.obj
 0001:000589b0       ?_Extract@?$_Tree_val@U?$_Tree_simple_types@U?$pair@$$CBV?$basic_string@DU?$char_traits@D@std@@V?$allocator@D@2@@std@@V?$basic_json@Vmap@std@@Vvector@2@V?$basic_string@DU?$char_traits@D@std@@V?$allocator@D@2@@2@_N_J_KNVallocator@2@Uadl_serializer@nlohmann@@V?$vector@EV?$allocator@E@std@@@2@@nlohmann@@@std@@@std@@@std@@QEAAPEAU?$_Tree_node@U?$pair@$$CBV?$basic_string@DU?$char_traits@D@std@@V?$allocator@D@2@@std@@V?$basic_json@Vmap@std@@Vvector@2@V?$basic_string@DU?$char_traits@D@std@@V?$allocator@D@2@@2@_N_J_KNVallocator@2@Uadl_serializer@nlohmann@@V?$vector@EV?$allocator@E@std@@@2@@nlohmann@@@std@@PEAX@2@V?$_Tree_unchecked_const_iterator@V?$_Tree_val@U?$_Tree_simple_types@U?$pair@$$CBV?$basic_string@DU?$char_traits@D@std@@V?$allocator@D@2@@std@@V?$basic_json@Vmap@std@@Vvector@2@V?$basic_string@DU?$char_traits@D@std@@V?$allocator@D@2@@2@_N_J_KNVallocator@2@Uadl_serializer@nlohmann@@V?$vector@EV?$allocator@E@std@@@2@@nlohmann@@@std@@@std@@@std@@U_Iterator_base0@2@@2@@Z 00000001800599b0 f i container.obj
 0001:00058e50       ??1?$_Tree_head_scoped_ptr@V?$allocator@U?$_Tree_node@U?$pair@$$CBV?$basic_string@DU?$char_traits@D@std@@V?$allocator@D@2@@std@@V?$basic_json@Vmap@std@@Vvector@2@V?$basic_string@DU?$char_traits@D@std@@V?$allocator@D@2@@2@_N_J_KNVallocator@2@Uadl_serializer@nlohmann@@V?$vector@EV?$allocator@E@std@@@2@@nlohmann@@@std@@PEAX@std@@@std@@V?$_Tree_val@U?$_Tree_simple_types@U?$pair@$$CBV?$basic_string@DU?$char_traits@D@std@@V?$allocator@D@2@@std@@V?$basic_json@Vmap@std@@Vvector@2@V?$basic_string@DU?$char_traits@D@std@@V?$allocator@D@2@@2@_N_J_KNVallocator@2@Uadl_serializer@nlohmann@@V?$vector@EV?$allocator@E@std@@@2@@nlohmann@@@std@@@std@@@2@@std@@QEAA@XZ 0000000180059e50 f i container.obj
 0001:00058ee0       ??$_Copy_nodes@U_Copy_tag@?$_Tree@V?$_Tmap_traits@V?$basic_string@DU?$char_traits@D@std@@V?$allocator@D@2@@std@@V?$basic_json@Vmap@std@@Vvector@2@V?$basic_string@DU?$char_traits@D@std@@V?$allocator@D@2@@2@_N_J_KNVallocator@2@Uadl_serializer@nlohmann@@V?$vector@EV?$allocator@E@std@@@2@@nlohmann@@U?$less@X@2@V?$allocator@U?$pair@$$CBV?$basic_string@DU?$char_traits@D@std@@V?$allocator@D@2@@std@@V?$basic_json@Vmap@std@@Vvector@2@V?$basic_string@DU?$char_traits@D@std@@V?$allocator@D@2@@2@_N_J_KNVallocator@2@Uadl_serializer@nlohmann@@V?$vector@EV?$allocator@E@std@@@2@@nlohmann@@@std@@@2@$0A@@std@@@std@@@?$_Tree@V?$_Tmap_traits@V?$basic_string@DU?$char_traits@D@std@@V?$allocator@D@2@@std@@V?$basic_json@Vmap@std@@Vvector@2@V?$basic_string@DU?$char_traits@D@std@@V?$allocator@D@2@@2@_N_J_KNVallocator@2@Uadl_serializer@nlohmann@@V?$vector@EV?$allocator@E@std@@@2@@nlohmann@@U?$less@X@2@V?$allocator@U?$pair@$$CBV?$basic_string@DU?$char_traits@D@std@@V?$allocator@D@2@@std@@V?$basic_json@Vmap@std@@Vvector@2@V?$basic_string@DU?$char_traits@D@std@@V?$allocator@D@2@@2@_N_J_KNVallocator@2@Uadl_serializer@nlohmann@@V?$vector@EV?$allocator@E@std@@@2@@nlohmann@@@std@@@2@$0A@@std@@@std@@IEAAPEAU?$_Tree_node@U?$pair@$$CBV?$basic_string@DU?$char_traits@D@std@@V?$allocator@D@2@@std@@V?$basic_json@Vmap@std@@Vvector@2@V?$basic_string@DU?$char_traits@D@std@@V?$allocator@D@2@@2@_N_J_KNVallocator@2@Uadl_serializer@nlohmann@@V?$vector@EV?$allocator@E@std@@@2@@nlohmann@@@std@@PEAX@1@PEAU21@0U_Copy_tag@01@@Z 0000000180059ee0 f i container.obj
 0001:00058fd8       ??_E?$basic_ostream@DU?$char_traits@D@std@@@std@@$4PPPPPPPM@A@EAAPEAXI@Z 0000000180059fd8 f i container.obj
 0001:00058fe4       ??_E?$basic_ofstream@DU?$char_traits@D@std@@@std@@$4PPPPPPPM@A@EAAPEAXI@Z 0000000180059fe4 f i container.obj
 0001:00058ff0       ??_Enested_exception@std@@UEAAPEAXI@Z 0000000180059ff0 f i * CIL library *:* CIL module *
 0001:00058ff0       ??_Gnested_exception@std@@UEAAPEAXI@Z 0000000180059ff0 f i keybinder.obj
 0001:00059040       ??0CKeyBinder@FGUI@@QEAA@XZ 000000018005a040 f   keybinder.obj
 0001:00059170       ??0SKeyCodes_t@FGUI@@QEAA@XZ 000000018005a170 f i keybinder.obj
 0001:0005b1d0       ?Geometry@CKeyBinder@FGUI@@UEAAXXZ 000000018005c1d0 f   keybinder.obj
 0001:0005b470       ?Update@CKeyBinder@FGUI@@UEAAXXZ 000000018005c470 f   keybinder.obj
 0001:0005b580       ?Input@CKeyBinder@FGUI@@UEAAXXZ 000000018005c580 f   keybinder.obj
 0001:0005b600       ?Save@CKeyBinder@FGUI@@UEAAXAEAV?$basic_json@Vmap@std@@Vvector@2@V?$basic_string@DU?$char_traits@D@std@@V?$allocator@D@2@@2@_N_J_KNVallocator@2@Uadl_serializer@nlohmann@@V?$vector@EV?$allocator@E@std@@@2@@nlohmann@@@Z 000000018005c600 f   keybinder.obj
 0001:0005b790       ?Load@CKeyBinder@FGUI@@UEAAXAEAV?$basic_json@Vmap@std@@Vvector@2@V?$basic_string@DU?$char_traits@D@std@@V?$allocator@D@2@@2@_N_J_KNVallocator@2@Uadl_serializer@nlohmann@@V?$vector@EV?$allocator@E@std@@@2@@nlohmann@@@Z 000000018005c790 f   keybinder.obj
 0001:0005ba40       ?Tooltip@CKeyBinder@FGUI@@UEAAXXZ 000000018005ca40 f   keybinder.obj
 0001:0005bbd0       ??$throw_with_nested@Vruntime_error@std@@@std@@YAX$$QEAVruntime_error@0@@Z 000000018005cbd0 f i keybinder.obj
 0001:0005bc00       ??1?$_With_nested@Vruntime_error@std@@V12@@std@@UEAA@XZ 000000018005cc00 f i keybinder.obj
 0001:0005bc40       ??0?$_With_nested@Vruntime_error@std@@V12@@std@@QEAA@AEBU01@@Z 000000018005cc40 f i keybinder.obj
 0001:0005bcc0       ??0nested_exception@std@@QEAA@AEBV01@@Z 000000018005ccc0 f i keybinder.obj
 0001:0005bcf0       ??_G?$_With_nested@Vruntime_error@std@@V12@@std@@UEAAPEAXI@Z 000000018005ccf0 f i keybinder.obj
 0001:0005bcf0       ??_E?$_With_nested@Vruntime_error@std@@V12@@std@@UEAAPEAXI@Z 000000018005ccf0 f i * CIL library *:* CIL module *
 0001:0005bd50       ??0?$_With_nested@Vruntime_error@std@@V12@@std@@QEAA@$$QEAVruntime_error@1@@Z 000000018005cd50 f i keybinder.obj
 0001:0005bdd0       ??_E?$_With_nested@Vruntime_error@std@@V12@@std@@WBI@EAAPEAXI@Z 000000018005cdd0 f i keybinder.obj
 0001:0005bde0       ??0CLabel@FGUI@@QEAA@XZ    000000018005cde0 f   label.obj
 0001:0005bee0       ?Geometry@CLabel@FGUI@@UEAAXXZ 000000018005cee0 f   label.obj
 0001:0005c0d0       ?Update@CLabel@FGUI@@UEAAXXZ 000000018005d0d0 f   label.obj
 0001:0005c190       ??0CSlider@FGUI@@QEAA@XZ   000000018005d190 f   slider.obj
 0001:0005c2d0       ?Geometry@CSlider@FGUI@@UEAAXXZ 000000018005d2d0 f   slider.obj
 0001:0005c7e0       ?Update@CSlider@FGUI@@UEAAXXZ 000000018005d7e0 f   slider.obj
 0001:0005c890       ?Input@CSlider@FGUI@@UEAAXXZ 000000018005d890 f   slider.obj
 0001:0005c900       ?Save@CSlider@FGUI@@UEAAXAEAV?$basic_json@Vmap@std@@Vvector@2@V?$basic_string@DU?$char_traits@D@std@@V?$allocator@D@2@@2@_N_J_KNVallocator@2@Uadl_serializer@nlohmann@@V?$vector@EV?$allocator@E@std@@@2@@nlohmann@@@Z 000000018005d900 f   slider.obj
 0001:0005caa0       ?Load@CSlider@FGUI@@UEAAXAEAV?$basic_json@Vmap@std@@Vvector@2@V?$basic_string@DU?$char_traits@D@std@@V?$allocator@D@2@@2@_N_J_KNVallocator@2@Uadl_serializer@nlohmann@@V?$vector@EV?$allocator@E@std@@@2@@nlohmann@@@Z 000000018005daa0 f   slider.obj
 0001:0005cd60       ?Tooltip@CSlider@FGUI@@UEAAXXZ 000000018005dd60 f   slider.obj
 0001:0005cef0       ??$sprintf_s@$0BAA@@@YAHAEAY0BAA@DPEBDZZ 000000018005def0 f i slider.obj
 0001:0005cf50       ??0CTabPanel@FGUI@@QEAA@XZ 000000018005df50 f   tabpanel.obj
 0001:0005d060       ?Geometry@CTabPanel@FGUI@@UEAAXXZ 000000018005e060 f   tabpanel.obj
 0001:0005d340       ?Update@CTabPanel@FGUI@@UEAAXXZ 000000018005e340 f   tabpanel.obj
 0001:0005d490       ??$_Assign_range@PEBV?$basic_string@DU?$char_traits@D@std@@V?$allocator@D@2@@std@@@?$vector@V?$basic_string@DU?$char_traits@D@std@@V?$allocator@D@2@@std@@V?$allocator@V?$basic_string@DU?$char_traits@D@std@@V?$allocator@D@2@@std@@@2@@std@@AEAAXPEBV?$basic_string@DU?$char_traits@D@std@@V?$allocator@D@2@@1@0Uforward_iterator_tag@1@@Z 000000018005e490 f i tabpanel.obj
 0001:0005d640       ??0CTextBox@FGUI@@QEAA@XZ  000000018005e640 f   textbox.obj
 0001:0005d790       ??0SKeyStrings_t@FGUI@@QEAA@XZ 000000018005e790 f i textbox.obj
 0001:0005ef10       ?Geometry@CTextBox@FGUI@@UEAAXXZ 000000018005ff10 f   textbox.obj
 0001:0005f350       ?Update@CTextBox@FGUI@@UEAAXXZ 0000000180060350 f   textbox.obj
 0001:0005f9e0       ?Input@CTextBox@FGUI@@UEAAXXZ 00000001800609e0 f   textbox.obj
 0001:0005fa60       ?Save@CTextBox@FGUI@@UEAAXAEAV?$basic_json@Vmap@std@@Vvector@2@V?$basic_string@DU?$char_traits@D@std@@V?$allocator@D@2@@2@_N_J_KNVallocator@2@Uadl_serializer@nlohmann@@V?$vector@EV?$allocator@E@std@@@2@@nlohmann@@@Z 0000000180060a60 f   textbox.obj
 0001:0005fc20       ?Load@CTextBox@FGUI@@UEAAXAEAV?$basic_json@Vmap@std@@Vvector@2@V?$basic_string@DU?$char_traits@D@std@@V?$allocator@D@2@@2@_N_J_KNVallocator@2@Uadl_serializer@nlohmann@@V?$vector@EV?$allocator@E@std@@@2@@nlohmann@@@Z 0000000180060c20 f   textbox.obj
 0001:0005fe50       ?Tooltip@CTextBox@FGUI@@UEAAXXZ 0000000180060e50 f   textbox.obj
 0001:0005ffe0       ?GetAbsolutePosition@CWidgets@FGUI@@QEAA?AUSPoint_t@2@XZ 0000000180060fe0 f   widgets.obj
 0001:00060210       ?SetTitle@CWidgets@FGUI@@QEAAXV?$basic_string@DU?$char_traits@D@std@@V?$allocator@D@2@@std@@@Z 0000000180061210 f   widgets.obj
 0001:000602b0       ?IsUnlocked@CWidgets@FGUI@@QEAA_NXZ 00000001800612b0 f   widgets.obj
 0001:00060420       ?GetWindowContainer@CWidgets@FGUI@@QEAA?AV?$shared_ptr@VCWidgets@FGUI@@@std@@XZ 0000000180061420 f   widgets.obj
 0001:00060500       ?detour_2gb_above@@YA_K_K@Z 0000000180061500 f i detours:detours.obj
 0001:00060540       ?detour_2gb_below@@YA_K_K@Z 0000000180061540 f i detours:detours.obj
 0001:00060cb0       ?detour_does_code_end_function@@YAHPEAE@Z 0000000180061cb0 f i detours:detours.obj
 0001:00060ea0       ?detour_find_jmp_bounds@@YAXPEAEPEAPEAU_DETOUR_TRAMPOLINE@@1@Z 0000000180061ea0 f i detours:detours.obj
 0001:000610c0       ?detour_gen_brk@@YAPEAEPEAE0@Z 00000001800620c0 f i detours:detours.obj
 0001:00061100       ?detour_gen_jmp_immediate@@YAPEAEPEAE0@Z 0000000180062100 f i detours:detours.obj
 0001:00061160       ?detour_gen_jmp_indirect@@YAPEAEPEAEPEAPEAE@Z 0000000180062160 f i detours:detours.obj
 0001:000611e0       ?detour_is_code_filler@@YAKPEAE@Z 00000001800621e0 f i detours:detours.obj
 0001:00061ab0       ?detour_skip_jmp@@YAPEAEPEAEPEAPEAX@Z 0000000180062ab0 f i detours:detours.obj
 0001:00061ce0       DetourAttach               0000000180062ce0 f   detours:detours.obj
 0001:00061d20       DetourAttachEx             0000000180062d20 f   detours:detours.obj
 0001:00062330       DetourCodeFromPointer      0000000180063330 f   detours:detours.obj
 0001:00062360       DetourDetach               0000000180063360 f   detours:detours.obj
 0001:000625b0       DetourTransactionAbort     00000001800635b0 f   detours:detours.obj
 0001:00062700       DetourTransactionBegin     0000000180063700 f   detours:detours.obj
 0001:00062780       DetourTransactionCommit    0000000180063780 f   detours:detours.obj
 0001:00062790       DetourTransactionCommitEx  0000000180063790 f   detours:detours.obj
 0001:00062c30       DetourUpdateThread         0000000180063c30 f   detours:detours.obj
 0001:00062d20       PtrToUlong                 0000000180063d20 f i detours:detours.obj
 0001:00062d30       ?CopyBytes@CDetourDis@@IEAAPEAEPEBUCOPYENTRY@1@PEAE1@Z 0000000180063d30 f   detours:disasm.obj
 0001:00063060       ?CopyBytesPrefix@CDetourDis@@IEAAPEAEPEBUCOPYENTRY@1@PEAE1@Z 0000000180064060 f   detours:disasm.obj
 0001:00063100       ?CopyBytesSegment@CDetourDis@@IEAAPEAEPEBUCOPYENTRY@1@PEAE1@Z 0000000180064100 f   detours:disasm.obj
 0001:00063150       ?CopyBytesRax@CDetourDis@@IEAAPEAEPEBUCOPYENTRY@1@PEAE1@Z 0000000180064150 f   detours:disasm.obj
 0001:000631b0       ?CopyBytesJump@CDetourDis@@IEAAPEAEPEBUCOPYENTRY@1@PEAE1@Z 00000001800641b0 f   detours:disasm.obj
 0001:00063350       ?Invalid@CDetourDis@@IEAAPEAEPEBUCOPYENTRY@1@PEAE1@Z 0000000180064350 f   detours:disasm.obj
 0001:00063370       ?Copy0F@CDetourDis@@IEAAPEAEPEBUCOPYENTRY@1@PEAE1@Z 0000000180064370 f   detours:disasm.obj
 0001:00063410       ?Copy0F78@CDetourDis@@IEAAPEAEPEBUCOPYENTRY@1@PEAE1@Z 0000000180064410 f   detours:disasm.obj
 0001:00063490       ?Copy66@CDetourDis@@IEAAPEAEPEBUCOPYENTRY@1@PEAE1@Z 0000000180064490 f   detours:disasm.obj
 0001:000634e0       ?Copy67@CDetourDis@@IEAAPEAEPEBUCOPYENTRY@1@PEAE1@Z 00000001800644e0 f   detours:disasm.obj
 0001:00063530       ?CopyF2@CDetourDis@@IEAAPEAEPEBUCOPYENTRY@1@PEAE1@Z 0000000180064530 f   detours:disasm.obj
 0001:00063580       ?CopyF3@CDetourDis@@IEAAPEAEPEBUCOPYENTRY@1@PEAE1@Z 0000000180064580 f   detours:disasm.obj
 0001:000635d0       ?CopyF6@CDetourDis@@IEAAPEAEPEBUCOPYENTRY@1@PEAE1@Z 00000001800645d0 f   detours:disasm.obj
 0001:00063640       ?CopyF7@CDetourDis@@IEAAPEAEPEBUCOPYENTRY@1@PEAE1@Z 0000000180064640 f   detours:disasm.obj
 0001:000636b0       ?CopyFF@CDetourDis@@IEAAPEAEPEBUCOPYENTRY@1@PEAE1@Z 00000001800646b0 f   detours:disasm.obj
 0001:00063800       ?CopyVex2@CDetourDis@@IEAAPEAEPEBUCOPYENTRY@1@PEAE1@Z 0000000180064800 f   detours:disasm.obj
 0001:00063890       ?CopyVex3@CDetourDis@@IEAAPEAEPEBUCOPYENTRY@1@PEAE1@Z 0000000180064890 f   detours:disasm.obj
 0001:000639a0       ?CopyEvex@CDetourDis@@IEAAPEAEPEBUCOPYENTRY@1@PEAE1@Z 00000001800649a0 f   detours:disasm.obj
 0001:00063ae0       ?CopyXop@CDetourDis@@IEAAPEAEPEBUCOPYENTRY@1@PEAE1@Z 0000000180064ae0 f   detours:disasm.obj
 0001:00063bb0       ??0CDetourDis@@QEAA@PEAPEAEPEAJ@Z 0000000180064bb0 f   detours:disasm.obj
 0001:00063ca0       ?AdjustTarget@CDetourDis@@IEAAPEAEPEAE0III@Z 0000000180064ca0 f   detours:disasm.obj
 0001:00063e70       ?CopyInstruction@CDetourDis@@QEAAPEAEPEAE0@Z 0000000180064e70 f   detours:disasm.obj
 0001:00063f00       ?CopyVexCommon@CDetourDis@@IEAAPEAEEPEAE0@Z 0000000180064f00 f   detours:disasm.obj
 0001:00063f70       ?CopyVexEvexCommon@CDetourDis@@IEAAPEAEEPEAE0E@Z 0000000180064f70 f   detours:disasm.obj
 0001:000640a0       DetourCopyInstruction      00000001800650a0 f   detours:disasm.obj
 0001:00064120       ??0Algorithm@CryptoPP@@QEAA@_N@Z 0000000180065120 f   cryptlib:cryptlib.obj
 0001:000641f0       ??0NoChannelSupport@BufferedTransformation@CryptoPP@@QEAA@AEBU012@@Z 00000001800651f0 f i cryptlib:cryptlib.obj
 0001:00064220       ??0NoChannelSupport@BufferedTransformation@CryptoPP@@QEAA@AEBV?$basic_string@DU?$char_traits@D@std@@V?$allocator@D@2@@std@@@Z 0000000180065220 f i cryptlib:cryptlib.obj
 0001:00064330       ??0SelfTestFailure@CryptoPP@@QEAA@AEBV01@@Z 0000000180065330 f i cryptlib:cryptlib.obj
 0001:000643a0       ??0SelfTestFailure@CryptoPP@@QEAA@AEBV?$basic_string@DU?$char_traits@D@std@@V?$allocator@D@2@@std@@@Z 00000001800653a0 f i cryptlib:cryptlib.obj
 0001:000643f0       ??1ArraySink@CryptoPP@@UEAA@XZ 00000001800653f0 f i cryptlib:cryptlib.obj
 0001:00064408       ??_EArraySink@CryptoPP@@W7EAAPEAXI@Z 0000000180065408 f i cryptlib:cryptlib.obj
 0001:00064414       ??_EBitBucket@CryptoPP@@W7EAAPEAXI@Z 0000000180065414 f i cryptlib:cryptlib.obj
 0001:00064420       ??_GArraySink@CryptoPP@@UEAAPEAXI@Z 0000000180065420 f i cryptlib:cryptlib.obj
 0001:00064420       ??_EArraySink@CryptoPP@@UEAAPEAXI@Z 0000000180065420 f i cryptlib:cryptlib.obj
 0001:00064460       ??_GBitBucket@CryptoPP@@UEAAPEAXI@Z 0000000180065460 f i cryptlib:cryptlib.obj
 0001:00064460       ??_EBitBucket@CryptoPP@@UEAAPEAXI@Z 0000000180065460 f i cryptlib:cryptlib.obj
 0001:00064490       ?AlgorithmName@BitBucket@CryptoPP@@UEBA?AV?$basic_string@DU?$char_traits@D@std@@V?$allocator@D@2@@std@@XZ 0000000180065490 f i cryptlib:cryptlib.obj
 0001:000644d0       ?AnyMessages@BufferedTransformation@CryptoPP@@UEBA_NXZ 00000001800654d0 f   cryptlib:cryptlib.obj
 0001:00064520       ?AnyRetrievable@BufferedTransformation@CryptoPP@@UEBA_NXZ 0000000180065520 f   cryptlib:cryptlib.obj
 0001:00064570       ?Attach@BufferedTransformation@CryptoPP@@UEAAXPEAV12@@Z 0000000180065570 f   cryptlib:cryptlib.obj
 0001:000645f0       ?ChannelCreatePutSpace@BufferedTransformation@CryptoPP@@UEAAPEAEAEBV?$basic_string@DU?$char_traits@D@std@@V?$allocator@D@2@@std@@AEA_K@Z 00000001800655f0 f   cryptlib:cryptlib.obj
 0001:00064660       ?ChannelFlush@BufferedTransformation@CryptoPP@@UEAA_NAEBV?$basic_string@DU?$char_traits@D@std@@V?$allocator@D@2@@std@@_NH1@Z 0000000180065660 f   cryptlib:cryptlib.obj
 0001:000646e0       ?ChannelMessageSeriesEnd@BufferedTransformation@CryptoPP@@UEAA_NAEBV?$basic_string@DU?$char_traits@D@std@@V?$allocator@D@2@@std@@H_N@Z 00000001800656e0 f   cryptlib:cryptlib.obj
 0001:00064760       ?ChannelPut2@BufferedTransformation@CryptoPP@@UEAA_KAEBV?$basic_string@DU?$char_traits@D@std@@V?$allocator@D@2@@std@@PEBE_KH_N@Z 0000000180065760 f   cryptlib:cryptlib.obj
 0001:000647f0       ?ChannelPutModifiable2@BufferedTransformation@CryptoPP@@UEAA_KAEBV?$basic_string@DU?$char_traits@D@std@@V?$allocator@D@2@@std@@PEAE_KH_N@Z 00000001800657f0 f   cryptlib:cryptlib.obj
 0001:00064830       ?CopyMessagesTo@BufferedTransformation@CryptoPP@@QEBAIAEAV12@IAEBV?$basic_string@DU?$char_traits@D@std@@V?$allocator@D@2@@std@@@Z 0000000180065830 f   cryptlib:cryptlib.obj
 0001:00064890       ?Flush@BufferedTransformation@CryptoPP@@UEAA_N_NH0@Z 0000000180065890 f   cryptlib:cryptlib.obj
 0001:000648a0       ?Get@BufferedTransformation@CryptoPP@@UEAA_KAEAE@Z 00000001800658a0 f   cryptlib:cryptlib.obj
 0001:00064900       ?Get@BufferedTransformation@CryptoPP@@UEAA_KPEAE_K@Z 0000000180065900 f   cryptlib:cryptlib.obj
 0001:000649c0       ?GetMaxWaitObjectCount@BufferedTransformation@CryptoPP@@UEBAIXZ 00000001800659c0 f   cryptlib:cryptlib.obj
 0001:000649f0       ?GetNextMessage@BufferedTransformation@CryptoPP@@UEAA_NXZ 00000001800659f0 f   cryptlib:cryptlib.obj
 0001:00064a30       ?GetWaitObjects@BufferedTransformation@CryptoPP@@UEAAXAEAVWaitObjectContainer@2@AEBVCallStack@2@@Z 0000000180065a30 f   cryptlib:cryptlib.obj
 0001:00064a70       ?GetWord16@BufferedTransformation@CryptoPP@@QEAA_KAEAGW4ByteOrder@2@@Z 0000000180065a70 f   cryptlib:cryptlib.obj
 0001:00064b00       ?Initialize@BufferedTransformation@CryptoPP@@UEAAXAEBVNameValuePairs@2@H@Z 0000000180065b00 f   cryptlib:cryptlib.obj
 0001:00064b10       ?MaxRetrievable@BufferedTransformation@CryptoPP@@UEBA_KXZ 0000000180065b10 f   cryptlib:cryptlib.obj
 0001:00064b90       ?MessageSeriesEnd@BufferedTransformation@CryptoPP@@UEAA_NH_N@Z 0000000180065b90 f   cryptlib:cryptlib.obj
 0001:00064ba0       ?NumberOfMessages@BufferedTransformation@CryptoPP@@UEBAIXZ 0000000180065ba0 f   cryptlib:cryptlib.obj
 0001:00064c40       ?Peek@BufferedTransformation@CryptoPP@@UEBA_KAEAE@Z 0000000180065c40 f   cryptlib:cryptlib.obj
 0001:00064ca0       ?Peek@BufferedTransformation@CryptoPP@@UEBA_KPEAE_K@Z 0000000180065ca0 f   cryptlib:cryptlib.obj
 0001:00064d70       ?SetRetrievalChannel@BufferedTransformation@CryptoPP@@UEAAXAEBV?$basic_string@DU?$char_traits@D@std@@V?$allocator@D@2@@std@@@Z 0000000180065d70 f   cryptlib:cryptlib.obj
 0001:00064dc0       ?Skip@BufferedTransformation@CryptoPP@@UEAA_K_K@Z 0000000180065dc0 f   cryptlib:cryptlib.obj
 0001:00064e40       ?SkipAll@BufferedTransformation@CryptoPP@@UEAAXXZ 0000000180065e40 f   cryptlib:cryptlib.obj
 0001:00064eb0       ?SkipMessages@BufferedTransformation@CryptoPP@@UEAAII@Z 0000000180065eb0 f   cryptlib:cryptlib.obj
 0001:00064f30       ?TheBitBucket@CryptoPP@@YAAEAVBufferedTransformation@1@XZ 0000000180065f30 f   cryptlib:cryptlib.obj
 0001:00064fa0       ?TotalBytesRetrievable@BufferedTransformation@CryptoPP@@UEBA_KXZ 0000000180065fa0 f   cryptlib:cryptlib.obj
 0001:00064ff0       ?TransferMessagesTo2@BufferedTransformation@CryptoPP@@QEAA_KAEAV12@AEAIAEBV?$basic_string@DU?$char_traits@D@std@@V?$allocator@D@2@@std@@_N@Z 0000000180065ff0 f   cryptlib:cryptlib.obj
 0001:00065140       ?CreatePutSpace@ArraySink@CryptoPP@@UEAAPEAEAEA_K@Z 0000000180066140 f   cryptlib:filters.obj
 0001:00065170       ?GetNextMessage@Store@CryptoPP@@UEAA_NXZ 0000000180066170 f   cryptlib:filters.obj
 0001:000651a0       ?IsolatedInitialize@ArraySink@CryptoPP@@UEAAXAEBVNameValuePairs@2@@Z 00000001800661a0 f   cryptlib:filters.obj
 0001:00065250       ?Put2@ArraySink@CryptoPP@@UEAA_KPEBE_KH_N@Z 0000000180066250 f   cryptlib:filters.obj
 0001:000652c0       ??0bad_alloc@std@@QEAA@XZ  00000001800662c0 f i cryptlib:allocate.obj
 0001:000652f0       ?AlignedAllocate@CryptoPP@@YAPEAX_K@Z 00000001800662f0 f   cryptlib:allocate.obj
 0001:00065370       ?AlignedDeallocate@CryptoPP@@YAXPEAX@Z 0000000180066370 f   cryptlib:allocate.obj
 0001:00065380       ?UnalignedAllocate@CryptoPP@@YAPEAX_K@Z 0000000180066380 f   cryptlib:allocate.obj
 0001:000653f0       ?UnalignedDeallocate@CryptoPP@@YAXPEAX@Z 00000001800663f0 f   cryptlib:allocate.obj
 0001:000653f0       ??3@YAXPEAX@Z              00000001800663f0 f   LIBCMT:delete_scalar.obj
 0001:00065400       ?allocate@?$AllocatorWithCleanup@_K$0A@@CryptoPP@@QEAAPEA_K_KPEBX@Z 0000000180066400 f i cryptlib:iterhash.obj
 0001:000654a0       ??0BERDecodeErr@CryptoPP@@QEAA@AEBV01@@Z 00000001800664a0 f i cryptlib:integer.obj
 0001:000654d0       ??0BERDecodeErr@CryptoPP@@QEAA@XZ 00000001800664d0 f i cryptlib:integer.obj
 0001:000655b0       ??0Integer@CryptoPP@@AEAA@_K0@Z 00000001800665b0 f   cryptlib:integer.obj
 0001:00065660       ??0Integer@CryptoPP@@QEAA@AEBV01@@Z 0000000180066660 f   cryptlib:integer.obj
 0001:00065760       ??0Integer@CryptoPP@@QEAA@XZ 0000000180066760 f   cryptlib:integer.obj
 0001:000657e0       ??1Integer@CryptoPP@@UEAA@XZ 00000001800667e0 f i cryptlib:integer.obj
 0001:00065830       ??_GInteger@CryptoPP@@UEAAPEAXI@Z 0000000180066830 f i cryptlib:integer.obj
 0001:00065830       ??_EInteger@CryptoPP@@UEAAPEAXI@Z 0000000180066830 f i cryptlib:integer.obj
 0001:000658a0       ?AnyRetrievable@ByteQueue@CryptoPP@@UEBA_NXZ 00000001800668a0 f i cryptlib:integer.obj
 0001:000658c0       ?BERDecode@Integer@CryptoPP@@UEAAXAEAVBufferedTransformation@2@@Z 00000001800668c0 f   cryptlib:integer.obj
 0001:00065960       ?BERDecodeError@CryptoPP@@YAXXZ 0000000180066960 f i cryptlib:integer.obj
 0001:00065990       ?BEREncode@ASN1Object@CryptoPP@@UEBAXAEAVBufferedTransformation@2@@Z 0000000180066990 f i cryptlib:integer.obj
 0001:000659a0       ?Baseline_Multiply16@CryptoPP@@YAXPEA_KPEB_K1@Z 00000001800669a0 f   cryptlib:integer.obj
 0001:00068150       ?Baseline_Multiply2@CryptoPP@@YAXPEA_KPEB_K1@Z 0000000180069150 f   cryptlib:integer.obj
 0001:000681d0       ?Baseline_Multiply4@CryptoPP@@YAXPEA_KPEB_K1@Z 00000001800691d0 f   cryptlib:integer.obj
 0001:00068410       ?Baseline_Multiply8@CryptoPP@@YAXPEA_KPEB_K1@Z 0000000180069410 f   cryptlib:integer.obj
 0001:00068d90       ?Baseline_MultiplyBottom16@CryptoPP@@YAXPEA_KPEB_K1@Z 0000000180069d90 f   cryptlib:integer.obj
 0001:0006a0f0       ?Baseline_MultiplyBottom2@CryptoPP@@YAXPEA_KPEB_K1@Z 000000018006b0f0 f   cryptlib:integer.obj
 0001:0006a120       ?Baseline_MultiplyBottom4@CryptoPP@@YAXPEA_KPEB_K1@Z 000000018006b120 f   cryptlib:integer.obj
 0001:0006a210       ?Baseline_MultiplyBottom8@CryptoPP@@YAXPEA_KPEB_K1@Z 000000018006b210 f   cryptlib:integer.obj
 0001:0006a660       ?Baseline_MultiplyTop16@CryptoPP@@YAXPEA_KPEB_K1_K@Z 000000018006b660 f   cryptlib:integer.obj
 0001:0006bd60       ?Baseline_MultiplyTop2@CryptoPP@@YAXPEA_KPEB_K1_K@Z 000000018006cd60 f   cryptlib:integer.obj
 0001:0006bdf0       ?Baseline_MultiplyTop4@CryptoPP@@YAXPEA_KPEB_K1_K@Z 000000018006cdf0 f   cryptlib:integer.obj
 0001:0006bfe0       ?Baseline_MultiplyTop8@CryptoPP@@YAXPEA_KPEB_K1_K@Z 000000018006cfe0 f   cryptlib:integer.obj
 0001:0006c600       ?Baseline_Square16@CryptoPP@@YAXPEA_KPEB_K@Z 000000018006d600 f   cryptlib:integer.obj
 0001:0006dad0       ?Baseline_Square2@CryptoPP@@YAXPEA_KPEB_K@Z 000000018006ead0 f   cryptlib:integer.obj
 0001:0006db40       ?Baseline_Square4@CryptoPP@@YAXPEA_KPEB_K@Z 000000018006eb40 f   cryptlib:integer.obj
 0001:0006dce0       ?Baseline_Square8@CryptoPP@@YAXPEA_KPEB_K@Z 000000018006ece0 f   cryptlib:integer.obj
 0001:0006e240       ?ByteCount@Integer@CryptoPP@@QEBAIXZ 000000018006f240 f   cryptlib:integer.obj
 0001:0006e2c0       ?CleanGrow@?$SecBlock@_KV?$AllocatorWithCleanup@_K$00@CryptoPP@@@CryptoPP@@QEAAX_K@Z 000000018006f2c0 f i cryptlib:integer.obj
 0001:0006e390       ?DEREncode@Integer@CryptoPP@@UEBAXAEAVBufferedTransformation@2@@Z 000000018006f390 f   cryptlib:integer.obj
 0001:0006e410       ?Decode@Integer@CryptoPP@@QEAAXAEAVBufferedTransformation@2@_KW4Signedness@12@@Z 000000018006f410 f   cryptlib:integer.obj
 0001:0006e670       ?Encode@Integer@CryptoPP@@QEBAXAEAVBufferedTransformation@2@_KW4Signedness@12@@Z 000000018006f670 f   cryptlib:integer.obj
 0001:0006e920       ?MaxRetrievable@ByteQueue@CryptoPP@@UEBA_KXZ 000000018006f920 f i cryptlib:integer.obj
 0001:0006e930       ?MinEncodedSize@Integer@CryptoPP@@QEBA_KW4Signedness@12@@Z 000000018006f930 f   cryptlib:integer.obj
 0001:0006eb10       ?New@?$SecBlock@_KV?$AllocatorWithCleanup@_K$00@CryptoPP@@@CryptoPP@@QEAAX_K@Z 000000018006fb10 f i cryptlib:integer.obj
 0001:0006eb80       ?PositiveAdd@CryptoPP@@YAXAEAVInteger@1@AEBV21@1@Z 000000018006fb80 f   cryptlib:integer.obj
 0001:0006ed60       ?PositiveCompare@Integer@CryptoPP@@AEBAHAEBV12@@Z 000000018006fd60 f   cryptlib:integer.obj
 0001:0006ee10       ?PositiveSubtract@CryptoPP@@YAXAEAVInteger@1@AEBV21@1@Z 000000018006fe10 f   cryptlib:integer.obj
 0001:0006f060       ?Power2@Integer@CryptoPP@@SA?AV12@_K@Z 0000000180070060 f   cryptlib:integer.obj
 0001:0006f340       ?allocate@?$AllocatorWithCleanup@_K$00@CryptoPP@@QEAAPEA_K_KPEBX@Z 0000000180070340 f i cryptlib:integer.obj
 0001:0006f3e0       ??$_Reallocate_grow_by@V<lambda_e1befb086ad3257e3f042a63030725f7>@@_KD@?$basic_string@DU?$char_traits@D@std@@V?$allocator@D@2@@std@@AEAAAEAV01@_KV<lambda_e1befb086ad3257e3f042a63030725f7>@@_KD@Z 00000001800703e0 f i cryptlib:misc.obj
 0001:0006f570       ??0ByteQueue@CryptoPP@@QEAA@_K@Z 0000000180070570 f   cryptlib:queue.obj
 0001:0006f650       ??1ByteQueue@CryptoPP@@UEAA@XZ 0000000180070650 f   cryptlib:queue.obj
 0001:0006f674       ??_EByteQueue@CryptoPP@@W7EAAPEAXI@Z 0000000180070674 f i cryptlib:queue.obj
 0001:0006f680       ??_EWalker@ByteQueue@CryptoPP@@W7EAAPEAXI@Z 0000000180070680 f i cryptlib:queue.obj
 0001:0006f690       ??_GByteQueue@CryptoPP@@UEAAPEAXI@Z 0000000180070690 f i cryptlib:queue.obj
 0001:0006f690       ??_EByteQueue@CryptoPP@@UEAAPEAXI@Z 0000000180070690 f i cryptlib:queue.obj
 0001:0006f6e0       ??_EWalker@ByteQueue@CryptoPP@@UEAAPEAXI@Z 00000001800706e0 f i cryptlib:queue.obj
 0001:0006f6e0       ??_GWalker@ByteQueue@CryptoPP@@UEAAPEAXI@Z 00000001800706e0 f i cryptlib:queue.obj
 0001:0006f710       ?CleanupUsedNodes@ByteQueue@CryptoPP@@AEAAXXZ 0000000180070710 f   cryptlib:queue.obj
 0001:0006f7d0       ?Clear@ByteQueue@CryptoPP@@QEAAXXZ 00000001800707d0 f   cryptlib:queue.obj
 0001:0006f880       ?CopyRangeTo2@ByteQueue@CryptoPP@@UEBA_KAEAVBufferedTransformation@2@AEA_K_KAEBV?$basic_string@DU?$char_traits@D@std@@V?$allocator@D@2@@std@@_N@Z 0000000180070880 f   cryptlib:queue.obj
 0001:0006fa40       ?CopyRangeTo2@Walker@ByteQueue@CryptoPP@@UEBA_KAEAVBufferedTransformation@3@AEA_K_KAEBV?$basic_string@DU?$char_traits@D@std@@V?$allocator@D@2@@std@@_N@Z 0000000180070a40 f   cryptlib:queue.obj
 0001:0006fb30       ?CreatePutSpace@ByteQueue@CryptoPP@@UEAAPEAEAEA_K@Z 0000000180070b30 f   cryptlib:queue.obj
 0001:0006fc20       ?CurrentSize@ByteQueue@CryptoPP@@QEBA_KXZ 0000000180070c20 f   cryptlib:queue.obj
 0001:0006fc50       ?Destroy@ByteQueue@CryptoPP@@AEAAXXZ 0000000180070c50 f   cryptlib:queue.obj
 0001:0006fce0       ?Get@ByteQueue@CryptoPP@@UEAA_KAEAE@Z 0000000180070ce0 f   cryptlib:queue.obj
 0001:0006fd50       ?Get@ByteQueue@CryptoPP@@UEAA_KPEAE_K@Z 0000000180070d50 f   cryptlib:queue.obj
 0001:0006fd50       ?Get@Walker@ByteQueue@CryptoPP@@UEAA_KPEAE_K@Z 0000000180070d50 f   cryptlib:queue.obj
 0001:0006fe00       ?Get@Walker@ByteQueue@CryptoPP@@UEAA_KAEAE@Z 0000000180070e00 f   cryptlib:queue.obj
 0001:0006feb0       ?IsEmpty@ByteQueue@CryptoPP@@QEBA_NXZ 0000000180070eb0 f   cryptlib:queue.obj
 0001:0006fee0       ?IsolatedInitialize@ByteQueue@CryptoPP@@UEAAXAEBVNameValuePairs@2@@Z 0000000180070ee0 f   cryptlib:queue.obj
 0001:0006ff30       ?IsolatedInitialize@Walker@ByteQueue@CryptoPP@@UEAAXAEBVNameValuePairs@3@@Z 0000000180070f30 f   cryptlib:queue.obj
 0001:0006ff60       ?MaxRetrievable@Walker@ByteQueue@CryptoPP@@UEBA_KXZ 0000000180070f60 f i cryptlib:queue.obj
 0001:0006ff90       ?Peek@ByteQueue@CryptoPP@@UEBA_KAEAE@Z 0000000180070f90 f   cryptlib:queue.obj
 0001:0006ffd0       ?Peek@ByteQueue@CryptoPP@@UEBA_KPEAE_K@Z 0000000180070fd0 f   cryptlib:queue.obj
 0001:0006ffd0       ?Peek@Walker@ByteQueue@CryptoPP@@UEBA_KPEAE_K@Z 0000000180070fd0 f   cryptlib:queue.obj
 0001:00070080       ?Peek@Walker@ByteQueue@CryptoPP@@UEBA_KAEAE@Z 0000000180071080 f   cryptlib:queue.obj
 0001:00070130       ?Put2@ByteQueue@CryptoPP@@UEAA_KPEBE_KH_N@Z 0000000180071130 f   cryptlib:queue.obj
 0001:00070290       ?TransferTo2@ByteQueue@CryptoPP@@UEAA_KAEAVBufferedTransformation@2@AEA_KAEBV?$basic_string@DU?$char_traits@D@std@@V?$allocator@D@2@@std@@_N@Z 0000000180071290 f   cryptlib:queue.obj
 0001:00070520       ?TransferTo2@Walker@ByteQueue@CryptoPP@@UEAA_KAEAVBufferedTransformation@3@AEA_KAEBV?$basic_string@DU?$char_traits@D@std@@V?$allocator@D@2@@std@@_N@Z 0000000180071520 f   cryptlib:queue.obj
 0001:00070660       ?GetPowerUpSelfTestStatus@CryptoPP@@YA?AW4PowerUpSelfTestStatus@1@XZ 0000000180071660 f   cryptlib:fips140.obj
 0001:00070670       ?DetectX86Features@CryptoPP@@YAXXZ 0000000180071670 f   cryptlib:cpu.obj
 0001:00070a70       Baseline_Add               0000000180071a70 f   cryptlib:x64dll.obj
 0001:00070ac0       Baseline_Sub               0000000180071ac0 f   cryptlib:x64dll.obj
 0001:00070b10       Rijndael_Enc_AdvancedProcessBlocks_SSE2 0000000180071b10 f   cryptlib:x64dll.obj
 0001:00071168       GCM_AuthenticateBlocks_2K_SSE2 0000000180072168 f   cryptlib:x64dll.obj
 0001:000713e8       GCM_AuthenticateBlocks_64K_SSE2 00000001800723e8 f   cryptlib:x64dll.obj
 0001:00071530       SHA256_HashMultipleBlocks_SSE2 0000000180072530 f   cryptlib:x64dll.obj
 0001:000723d8       XGETBV64                   00000001800733d8 f   cryptlib:x64dll.obj
 0001:000723e8       CPUID64                    00000001800733e8 f   cryptlib:x64dll.obj
 0001:00072410       ??1EC2NPoint@CryptoPP@@UEAA@XZ 0000000180073410 f i cryptlib:dll.obj
 0001:000724a0       ??1ECPPoint@CryptoPP@@UEAA@XZ 00000001800734a0 f i cryptlib:dll.obj
 0001:00072530       ??1PolynomialMod2@CryptoPP@@QEAA@XZ 0000000180073530 f i cryptlib:dll.obj
 0001:00072580       ??_EEC2NPoint@CryptoPP@@UEAAPEAXI@Z 0000000180073580 f i cryptlib:dll.obj
 0001:00072580       ??_GEC2NPoint@CryptoPP@@UEAAPEAXI@Z 0000000180073580 f i cryptlib:dll.obj
 0001:000725c0       ??_EECPPoint@CryptoPP@@UEAAPEAXI@Z 00000001800735c0 f i cryptlib:dll.obj
 0001:000725c0       ??_GECPPoint@CryptoPP@@UEAAPEAXI@Z 00000001800735c0 f i cryptlib:dll.obj
 0001:00072600       ??$_Maklocstr@D@std@@YAPEADPEBDPEADAEBU_Cvtvec@@@Z 0000000180073600 f i cryptlib:asn.obj
 0001:00072670       ??$_Reallocate_grow_by@V<lambda_b986da8d428e4af07c64af60eec09b61>@@_K_KD@?$basic_string@DU?$char_traits@D@std@@V?$allocator@D@2@@std@@AEAAAEAV01@_KV<lambda_b986da8d428e4af07c64af60eec09b61>@@_K2D@Z 0000000180073670 f i cryptlib:asn.obj
 0001:00072820       ??$use_facet@V?$num_put@DV?$ostreambuf_iterator@DU?$char_traits@D@std@@@std@@@std@@@std@@YAAEBV?$num_put@DV?$ostreambuf_iterator@DU?$char_traits@D@std@@@std@@@0@AEBVlocale@0@@Z 0000000180073820 f i cryptlib:asn.obj
 0001:00072930       ??$use_facet@V?$numpunct@D@std@@@std@@YAAEBV?$numpunct@D@0@AEBVlocale@0@@Z 0000000180073930 f i cryptlib:asn.obj
 0001:00072a40       ??0BERGeneralDecoder@CryptoPP@@QEAA@AEAVBufferedTransformation@1@E@Z 0000000180073a40 f   cryptlib:asn.obj
 0001:00072ab0       ??0DERGeneralEncoder@CryptoPP@@QEAA@AEAVBufferedTransformation@1@E@Z 0000000180073ab0 f   cryptlib:asn.obj
 0001:00072b10       ??1?$_Tidy_guard@V?$numpunct@D@std@@@std@@QEAA@XZ 0000000180073b10 f i cryptlib:asn.obj
 0001:00072b50       ??1BERGeneralDecoder@CryptoPP@@UEAA@XZ 0000000180073b50 f   cryptlib:asn.obj
 0001:00072bc0       ??1DERGeneralEncoder@CryptoPP@@UEAA@XZ 0000000180073bc0 f   cryptlib:asn.obj
 0001:00072c04       ??_EBERGeneralDecoder@CryptoPP@@W7EAAPEAXI@Z 0000000180073c04 f i cryptlib:asn.obj
 0001:00072c10       ??_EDERGeneralEncoder@CryptoPP@@W7EAAPEAXI@Z 0000000180073c10 f i cryptlib:asn.obj
 0001:00072c20       ??_G?$numpunct@D@std@@MEAAPEAXI@Z 0000000180073c20 f i cryptlib:asn.obj
 0001:00072c20       ??_E?$numpunct@D@std@@MEAAPEAXI@Z 0000000180073c20 f i cryptlib:asn.obj
 0001:00072c80       ??_GBERGeneralDecoder@CryptoPP@@UEAAPEAXI@Z 0000000180073c80 f i cryptlib:asn.obj
 0001:00072c80       ??_EBERGeneralDecoder@CryptoPP@@UEAAPEAXI@Z 0000000180073c80 f i cryptlib:asn.obj
 0001:00072cc0       ??_EDERGeneralEncoder@CryptoPP@@UEAAPEAXI@Z 0000000180073cc0 f i cryptlib:asn.obj
 0001:00072cc0       ??_GDERGeneralEncoder@CryptoPP@@UEAAPEAXI@Z 0000000180073cc0 f i cryptlib:asn.obj
 0001:00072d00       ?BERLengthDecode@CryptoPP@@YA_NAEAVBufferedTransformation@1@AEA_KAEA_N@Z 0000000180073d00 f   cryptlib:asn.obj
 0001:00072dc0       ?CopyRangeTo2@BERGeneralDecoder@CryptoPP@@UEBA_KAEAVBufferedTransformation@2@AEA_K_KAEBV?$basic_string@DU?$char_traits@D@std@@V?$allocator@D@2@@std@@_N@Z 0000000180073dc0 f   cryptlib:asn.obj
 0001:00072df0       ?DERLengthEncode@CryptoPP@@YA_KAEAVBufferedTransformation@1@_K@Z 0000000180073df0 f   cryptlib:asn.obj
 0001:00072f30       ?Init@BERGeneralDecoder@CryptoPP@@AEAAXE@Z 0000000180073f30 f   cryptlib:asn.obj
 0001:00072fa0       ?MessageEnd@BERGeneralDecoder@CryptoPP@@QEAAXXZ 0000000180073fa0 f   cryptlib:asn.obj
 0001:00072ff0       ?MessageEnd@DERGeneralEncoder@CryptoPP@@QEAAXXZ 0000000180073ff0 f   cryptlib:asn.obj
 0001:00073070       ?TransferTo2@BERGeneralDecoder@CryptoPP@@UEAA_KAEAVBufferedTransformation@2@AEA_KAEBV?$basic_string@DU?$char_traits@D@std@@V?$allocator@D@2@@std@@_N@Z 0000000180074070 f   cryptlib:asn.obj
 0001:000730e0       ?_Fput@?$num_put@DV?$ostreambuf_iterator@DU?$char_traits@D@std@@@std@@@std@@AEBA?AV?$ostreambuf_iterator@DU?$char_traits@D@std@@@2@V32@AEAVios_base@2@DPEBD_K@Z 00000001800740e0 f i cryptlib:asn.obj
 0001:000737e0       ?_Getcat@?$num_put@DV?$ostreambuf_iterator@DU?$char_traits@D@std@@@std@@@std@@SA_KPEAPEBVfacet@locale@2@PEBV42@@Z 00000001800747e0 f i cryptlib:asn.obj
 0001:00073980       ?_Getcat@?$numpunct@D@std@@SA_KPEAPEBVfacet@locale@2@PEBV42@@Z 0000000180074980 f i cryptlib:asn.obj
 0001:00073be0       ?_Iput@?$num_put@DV?$ostreambuf_iterator@DU?$char_traits@D@std@@@std@@@std@@AEBA?AV?$ostreambuf_iterator@DU?$char_traits@D@std@@@2@V32@AEAVios_base@2@DPEAD_K@Z 0000000180074be0 f i cryptlib:asn.obj
 0001:00074260       ?_Rep@?$num_put@DV?$ostreambuf_iterator@DU?$char_traits@D@std@@@std@@@std@@AEBA?AV?$ostreambuf_iterator@DU?$char_traits@D@std@@@2@V32@D_K@Z 0000000180075260 f i cryptlib:asn.obj
 0001:00074310       ?do_decimal_point@?$numpunct@D@std@@MEBADXZ 0000000180075310 f i cryptlib:asn.obj
 0001:00074320       ?do_falsename@?$numpunct@D@std@@MEBA?AV?$basic_string@DU?$char_traits@D@std@@V?$allocator@D@2@@2@XZ 0000000180075320 f i cryptlib:asn.obj
 0001:00074370       ?do_grouping@?$numpunct@D@std@@MEBA?AV?$basic_string@DU?$char_traits@D@std@@V?$allocator@D@2@@2@XZ 0000000180075370 f i cryptlib:asn.obj
 0001:000743c0       ?do_put@?$num_put@DV?$ostreambuf_iterator@DU?$char_traits@D@std@@@std@@@std@@MEBA?AV?$ostreambuf_iterator@DU?$char_traits@D@std@@@2@V32@AEAVios_base@2@DJ@Z 00000001800753c0 f i cryptlib:asn.obj
 0001:000744e0       ?do_put@?$num_put@DV?$ostreambuf_iterator@DU?$char_traits@D@std@@@std@@@std@@MEBA?AV?$ostreambuf_iterator@DU?$char_traits@D@std@@@2@V32@AEAVios_base@2@DK@Z 00000001800754e0 f i cryptlib:asn.obj
 0001:00074600       ?do_put@?$num_put@DV?$ostreambuf_iterator@DU?$char_traits@D@std@@@std@@@std@@MEBA?AV?$ostreambuf_iterator@DU?$char_traits@D@std@@@2@V32@AEAVios_base@2@DN@Z 0000000180075600 f i cryptlib:asn.obj
 0001:000748d0       ?do_put@?$num_put@DV?$ostreambuf_iterator@DU?$char_traits@D@std@@@std@@@std@@MEBA?AV?$ostreambuf_iterator@DU?$char_traits@D@std@@@2@V32@AEAVios_base@2@DO@Z 00000001800758d0 f i cryptlib:asn.obj
 0001:00074bb0       ?do_put@?$num_put@DV?$ostreambuf_iterator@DU?$char_traits@D@std@@@std@@@std@@MEBA?AV?$ostreambuf_iterator@DU?$char_traits@D@std@@@2@V32@AEAVios_base@2@DPEBX@Z 0000000180075bb0 f i cryptlib:asn.obj
 0001:00074c50       ?do_put@?$num_put@DV?$ostreambuf_iterator@DU?$char_traits@D@std@@@std@@@std@@MEBA?AV?$ostreambuf_iterator@DU?$char_traits@D@std@@@2@V32@AEAVios_base@2@D_J@Z 0000000180075c50 f i cryptlib:asn.obj
 0001:00074d70       ?do_put@?$num_put@DV?$ostreambuf_iterator@DU?$char_traits@D@std@@@std@@@std@@MEBA?AV?$ostreambuf_iterator@DU?$char_traits@D@std@@@2@V32@AEAVios_base@2@D_K@Z 0000000180075d70 f i cryptlib:asn.obj
 0001:00074e90       ?do_put@?$num_put@DV?$ostreambuf_iterator@DU?$char_traits@D@std@@@std@@@std@@MEBA?AV?$ostreambuf_iterator@DU?$char_traits@D@std@@@2@V32@AEAVios_base@2@D_N@Z 0000000180075e90 f i cryptlib:asn.obj
 0001:00075130       ?do_thousands_sep@?$numpunct@D@std@@MEBADXZ 0000000180076130 f i cryptlib:asn.obj
 0001:00075140       ?do_truename@?$numpunct@D@std@@MEBA?AV?$basic_string@DU?$char_traits@D@std@@V?$allocator@D@2@@2@XZ 0000000180076140 f i cryptlib:asn.obj
 0001:00075190       sprintf_s                  0000000180076190 f i cryptlib:asn.obj
 0001:000751f0       ??0PolynomialMod2@CryptoPP@@QEAA@XZ 00000001800761f0 f   cryptlib:gf2n.obj
 0001:00075228       ??0bad_function_call@std@@QEAA@AEBV01@@Z 0000000180076228 f i libcpmt:xthrow.obj
 0001:00075264       ??0bad_function_call@std@@QEAA@XZ 0000000180076264 f i libcpmt:xthrow.obj
 0001:0007527c       ??0length_error@std@@QEAA@AEBV01@@Z 000000018007627c f i libcpmt:xthrow.obj
 0001:000752b8       ??0length_error@std@@QEAA@PEBD@Z 00000001800762b8 f i libcpmt:xthrow.obj
 0001:00075300       ??0logic_error@std@@QEAA@AEBV01@@Z 0000000180076300 f i libcpmt:xthrow.obj
 0001:0007533c       ??0out_of_range@std@@QEAA@AEBV01@@Z 000000018007633c f i libcpmt:xthrow.obj
 0001:00075378       ??0out_of_range@std@@QEAA@PEBD@Z 0000000180076378 f i libcpmt:xthrow.obj
 0001:000753c0       ?__scrt_throw_std_bad_alloc@@YAXXZ 00000001800763c0 f   LIBCMT:throw_bad_alloc.obj
 0001:000753c0       ?_Xbad_alloc@std@@YAXXZ    00000001800763c0 f   libcpmt:xthrow.obj
 0001:000753e0       ?_Xbad_function_call@std@@YAXXZ 00000001800763e0 f   libcpmt:xthrow.obj
 0001:00075400       ?_Xlength_error@std@@YAXPEBD@Z 0000000180076400 f   libcpmt:xthrow.obj
 0001:00075424       ?_Xout_of_range@std@@YAXPEBD@Z 0000000180076424 f   libcpmt:xthrow.obj
 0001:00075448       ?_Xruntime_error@std@@YAXPEBD@Z 0000000180076448 f   libcpmt:xthrow.obj
 0001:0007546c       ?what@bad_function_call@std@@UEBAPEBDXZ 000000018007646c f i libcpmt:xthrow.obj
 0001:00075474       _Mbrtowc                   0000000180076474 f   libcpmt:xmbtowc.obj
 0001:00075610       __std_system_error_allocate_message 0000000180076610 f   libcpmt:syserror_import_lib.obj
 0001:00075670       __std_system_error_deallocate_message 0000000180076670 f   libcpmt:syserror_import_lib.obj
 0001:00075678       __std_fs_code_page         0000000180076678 f   libcpmt:filesystem.obj
 0001:000756a0       __std_fs_convert_narrow_to_wide 00000001800766a0 f   libcpmt:filesystem.obj
 0001:000756e8       __std_fs_convert_wide_to_narrow_replace_chars 00000001800766e8 f   libcpmt:filesystem.obj
 0001:000757b4       __std_fs_create_directory  00000001800767b4 f   libcpmt:filesystem.obj
 0001:0007582c       __std_fs_get_stats         000000018007682c f   libcpmt:filesystem.obj
 0001:00075ac8       __std_fs_open_handle       0000000180076ac8 f   libcpmt:filesystem.obj
 0001:00075b20       ??0_Init_locks@std@@QEAA@XZ 0000000180076b20 f   libcpmt:xlock.obj
 0001:00075b64       ??0_Lockit@std@@QEAA@H@Z   0000000180076b64 f   libcpmt:xlock.obj
 0001:00075ba0       ??1_Init_locks@std@@QEAA@XZ 0000000180076ba0 f   libcpmt:xlock.obj
 0001:00075bdc       ??1_Lockit@std@@QEAA@XZ    0000000180076bdc f   libcpmt:xlock.obj
 0001:00075c10       ?uncaught_exceptions@std@@YAHXZ 0000000180076c10 f   libcpmt:uncaught_exceptions.obj
 0001:00075c18       ??0_Init_cout@std@@QEAA@XZ 0000000180076c18 f i libcpmt:cout.obj
 0001:00075c84       ??$_Getloctxt@V?$istreambuf_iterator@DU?$char_traits@D@std@@@std@@D@std@@YAHAEAV?$istreambuf_iterator@DU?$char_traits@D@std@@@0@0_KPEBDW4_Case_sensitive@0@@Z 0000000180076c84 f i libcpmt:locale.obj
 0001:00075fb4       ??$_Reallocate_grow_by@V<lambda_1>@?1??insert@?$basic_string@DU?$char_traits@D@std@@V?$allocator@D@2@@std@@QEAAAEAV34@_K0D@Z@_K_KD@?$basic_string@DU?$char_traits@D@std@@V?$allocator@D@2@@std@@AEAAAEAV01@_KV<lambda_1>@?1??insert@01@QEAAAEAV01@00D@Z@_K2D@Z 0000000180076fb4 f i libcpmt:locale.obj
 0001:00076134       ??$use_facet@V?$num_get@DV?$istreambuf_iterator@DU?$char_traits@D@std@@@std@@@std@@@std@@YAAEBV?$num_get@DV?$istreambuf_iterator@DU?$char_traits@D@std@@@std@@@0@AEBVlocale@0@@Z 0000000180077134 f i libcpmt:locale.obj
 0001:00076244       ?_Getcat@?$num_get@DV?$istreambuf_iterator@DU?$char_traits@D@std@@@std@@@std@@SA_KPEAPEBVfacet@locale@2@PEBV42@@Z 0000000180077244 f i libcpmt:locale.obj
 0001:00076300       ?_Getffld@?$num_get@DV?$istreambuf_iterator@DU?$char_traits@D@std@@@std@@@std@@AEBAHPEADAEAV?$istreambuf_iterator@DU?$char_traits@D@std@@@2@1AEAVios_base@2@PEAH@Z 0000000180077300 f i libcpmt:locale.obj
 0001:0007738c       ?_Getffldx@?$num_get@DV?$istreambuf_iterator@DU?$char_traits@D@std@@@std@@@std@@AEBAHPEADAEAV?$istreambuf_iterator@DU?$char_traits@D@std@@@2@1AEAVios_base@2@PEAH@Z 000000018007838c f i libcpmt:locale.obj
 0001:00078424       ?_Getifld@?$num_get@DV?$istreambuf_iterator@DU?$char_traits@D@std@@@std@@@std@@AEBAHPEADAEAV?$istreambuf_iterator@DU?$char_traits@D@std@@@2@1HAEBVlocale@2@@Z 0000000180079424 f i libcpmt:locale.obj
 0001:00078c38       ?_Inc@?$istreambuf_iterator@DU?$char_traits@D@std@@@std@@AEAAXXZ 0000000180079c38 f i libcpmt:locale.obj
 0001:00078c9c       ?_Init@?$numpunct@D@std@@IEAAXAEBV_Locinfo@2@_N@Z 0000000180079c9c f i libcpmt:locale.obj
 0001:00078d7c       ?_Locimp_Addfac@_Locimp@locale@std@@CAXPEAV123@PEAVfacet@23@_K@Z 0000000180079d7c f   libcpmt:locale.obj
 0001:00078e68       ?_Locimp_ctor@_Locimp@locale@std@@CAXPEAV123@AEBV123@@Z 0000000180079e68 f   libcpmt:locale.obj
 0001:00078f40       ?_Makeloc@_Locimp@locale@std@@CAPEAV123@AEBV_Locinfo@3@HPEAV123@PEBV23@@Z 0000000180079f40 f   libcpmt:locale.obj
 0001:00079450       ?_Stodx_v2@std@@YANPEBDPEAPEADHPEAH@Z 000000018007a450 f i libcpmt:locale.obj
 0001:000794dc       ?_Stofx_v2@std@@YAMPEBDPEAPEADHPEAH@Z 000000018007a4dc f i libcpmt:locale.obj
 0001:00079568       ?do_get@?$num_get@DV?$istreambuf_iterator@DU?$char_traits@D@std@@@std@@@std@@MEBA?AV?$istreambuf_iterator@DU?$char_traits@D@std@@@2@V32@0AEAVios_base@2@AEAHAEAG@Z 000000018007a568 f i libcpmt:locale.obj
 0001:000796bc       ?do_get@?$num_get@DV?$istreambuf_iterator@DU?$char_traits@D@std@@@std@@@std@@MEBA?AV?$istreambuf_iterator@DU?$char_traits@D@std@@@2@V32@0AEAVios_base@2@AEAHAEAI@Z 000000018007a6bc f i libcpmt:locale.obj
 0001:0007973c       ?do_get@?$num_get@DV?$istreambuf_iterator@DU?$char_traits@D@std@@@std@@@std@@MEBA?AV?$istreambuf_iterator@DU?$char_traits@D@std@@@2@V32@0AEAVios_base@2@AEAHAEAJ@Z 000000018007a73c f i libcpmt:locale.obj
 0001:00079860       ?do_get@?$num_get@DV?$istreambuf_iterator@DU?$char_traits@D@std@@@std@@@std@@MEBA?AV?$istreambuf_iterator@DU?$char_traits@D@std@@@2@V32@0AEAVios_base@2@AEAHAEAK@Z 000000018007a860 f i libcpmt:locale.obj
 0001:00079984       ?do_get@?$num_get@DV?$istreambuf_iterator@DU?$char_traits@D@std@@@std@@@std@@MEBA?AV?$istreambuf_iterator@DU?$char_traits@D@std@@@2@V32@0AEAVios_base@2@AEAHAEAM@Z 000000018007a984 f i libcpmt:locale.obj
 0001:00079a9c       ?do_get@?$num_get@DV?$istreambuf_iterator@DU?$char_traits@D@std@@@std@@@std@@MEBA?AV?$istreambuf_iterator@DU?$char_traits@D@std@@@2@V32@0AEAVios_base@2@AEAHAEAN@Z 000000018007aa9c f i libcpmt:locale.obj
 0001:00079ba8       ?do_get@?$num_get@DV?$istreambuf_iterator@DU?$char_traits@D@std@@@std@@@std@@MEBA?AV?$istreambuf_iterator@DU?$char_traits@D@std@@@2@V32@0AEAVios_base@2@AEAHAEAO@Z 000000018007aba8 f i libcpmt:locale.obj
 0001:00079c2c       ?do_get@?$num_get@DV?$istreambuf_iterator@DU?$char_traits@D@std@@@std@@@std@@MEBA?AV?$istreambuf_iterator@DU?$char_traits@D@std@@@2@V32@0AEAVios_base@2@AEAHAEAPEAX@Z 000000018007ac2c f i libcpmt:locale.obj
 0001:00079d44       ?do_get@?$num_get@DV?$istreambuf_iterator@DU?$char_traits@D@std@@@std@@@std@@MEBA?AV?$istreambuf_iterator@DU?$char_traits@D@std@@@2@V32@0AEAVios_base@2@AEAHAEA_J@Z 000000018007ad44 f i libcpmt:locale.obj
 0001:00079e68       ?do_get@?$num_get@DV?$istreambuf_iterator@DU?$char_traits@D@std@@@std@@@std@@MEBA?AV?$istreambuf_iterator@DU?$char_traits@D@std@@@2@V32@0AEAVios_base@2@AEAHAEA_K@Z 000000018007ae68 f i libcpmt:locale.obj
 0001:00079f8c       ?do_get@?$num_get@DV?$istreambuf_iterator@DU?$char_traits@D@std@@@std@@@std@@MEBA?AV?$istreambuf_iterator@DU?$char_traits@D@std@@@2@V32@0AEAVios_base@2@AEAHAEA_N@Z 000000018007af8c f i libcpmt:locale.obj
 0001:0007a2f8       ?equal@?$istreambuf_iterator@DU?$char_traits@D@std@@@std@@QEBA_NAEBV12@@Z 000000018007b2f8 f i libcpmt:locale.obj
 0001:0007a3c8       ?insert@?$basic_string@DU?$char_traits@D@std@@V?$allocator@D@2@@std@@QEAAAEAV12@_K0D@Z 000000018007b3c8 f i libcpmt:locale.obj
 0001:0007a474       ??0_Locimp@locale@std@@AEAA@AEBV012@@Z 000000018007b474 f i libcpmt:locale0.obj
 0001:0007a4f0       ??0_Locimp@locale@std@@AEAA@_N@Z 000000018007b4f0 f i libcpmt:locale0.obj
 0001:0007a578       ??_E_Locimp@locale@std@@MEAAPEAXI@Z 000000018007b578 f i libcpmt:locale0.obj
 0001:0007a578       ??_G_Locimp@locale@std@@MEAAPEAXI@Z 000000018007b578 f i libcpmt:locale0.obj
 0001:0007a5d4       ?_Facet_Register@std@@YAXPEAV_Facet_base@1@@Z 000000018007b5d4 f   libcpmt:locale0.obj
 0001:0007a60c       ?_Getgloballocale@locale@std@@CAPEAV_Locimp@12@XZ 000000018007b60c f   libcpmt:locale0.obj
 0001:0007a614       ?_Init@locale@std@@CAPEAV_Locimp@12@_N@Z 000000018007b614 f   libcpmt:locale0.obj
 0001:0007a70c       ?_Locimp_dtor@_Locimp@locale@std@@CAXPEAV123@@Z 000000018007b70c f   libcpmt:locale0.obj
 0001:0007a788       ?_Locinfo_ctor@_Locinfo@std@@SAXPEAV12@PEBD@Z 000000018007b788 f   libcpmt:locale0.obj
 0001:0007a7f4       ?_Locinfo_dtor@_Locinfo@std@@SAXPEAV12@@Z 000000018007b7f4 f   libcpmt:locale0.obj
 0001:0007a810       ?_New_Locimp@_Locimp@locale@std@@CAPEAV123@AEBV123@@Z 000000018007b810 f   libcpmt:locale0.obj
 0001:0007a844       ?_New_Locimp@_Locimp@locale@std@@CAPEAV123@_N@Z 000000018007b844 f   libcpmt:locale0.obj
 0001:0007a874       ?_Setgloballocale@locale@std@@CAXPEAX@Z 000000018007b874 f   libcpmt:locale0.obj
 0001:0007a8a8       _Deletegloballocale        000000018007b8a8 f   libcpmt:locale0.obj
 0001:0007a918       ?_Addstd@ios_base@std@@SAXPEAV12@@Z 000000018007b918 f   libcpmt:ios.obj
 0001:0007a990       ?_Ios_base_dtor@ios_base@std@@CAXPEAV12@@Z 000000018007b990 f   libcpmt:ios.obj
 0001:0007aa08       ?_Tidy@ios_base@std@@AEAAXXZ 000000018007ba08 f i libcpmt:ios.obj
 0001:0007aa88       ?_Syserror_map@std@@YAPEBDH@Z 000000018007ba88 f   libcpmt:syserror.obj
 0001:0007aab0       ?_Winerror_map@std@@YAHH@Z 000000018007bab0 f   libcpmt:syserror.obj
 0001:0007aad4       ??$_Xfiopen@D@std@@YAPEAU_iobuf@@PEBDHH@Z 000000018007bad4 f i libcpmt:fiopen.obj
 0001:0007abe4       ?_Fiopen@std@@YAPEAU_iobuf@@PEBDHH@Z 000000018007bbe4 f   libcpmt:fiopen.obj
 0001:0007abec       ?_Random_device@std@@YAIXZ 000000018007bbec f   libcpmt:xrngdev.obj
 0001:0007ac14       _Getctype                  000000018007bc14 f   libcpmt:_tolower.obj
 0001:0007acd4       _Tolower                   000000018007bcd4 f   libcpmt:_tolower.obj
 0001:0007ae04       _Getcvt                    000000018007be04 f   libcpmt:xwctomb.obj
 0001:0007ae9c       _Wcrtomb                   000000018007be9c f   libcpmt:xwctomb.obj
 0001:0007af18       _Toupper                   000000018007bf18 f   libcpmt:_toupper.obj
 0001:0007b058       ?setw@std@@YA?AU?$_Smanip@_J@1@_J@Z 000000018007c058 f   libcpmt:iomanip.obj
 0001:0007b074       ??0bad_exception@std@@QEAA@AEBV01@@Z 000000018007c074 f i libcpmt:excptptr.obj
 0001:0007b0b8       ??0bad_exception@std@@QEAA@XZ 000000018007c0b8 f i libcpmt:excptptr.obj
 0001:0007b148       ??1?$shared_ptr@$$CBU_EXCEPTION_RECORD@@@std@@QEAA@XZ 000000018007c148 f i libcpmt:excptptr.obj
 0001:0007b198       ??1bad_exception@std@@UEAA@XZ 000000018007c198 f i libcpmt:excptptr.obj
 0001:0007b1bc       ??4?$shared_ptr@$$CBU_EXCEPTION_RECORD@@@std@@QEAAAEAV01@$$QEAV01@@Z 000000018007c1bc f i libcpmt:excptptr.obj
 0001:0007b2f8       ??_G?$shared_ptr@$$CBU_EXCEPTION_RECORD@@@std@@QEAAPEAXI@Z 000000018007c2f8 f i libcpmt:excptptr.obj
 0001:0007b398       ??_Gbad_exception@std@@UEAAPEAXI@Z 000000018007c398 f i libcpmt:excptptr.obj
 0001:0007b398       ??_Ebad_exception@std@@UEAAPEAXI@Z 000000018007c398 f i libcpmt:excptptr.obj
 0001:0007b70c       ?_CallMemberFunction0@@YAXQEAX0@Z 000000018007c70c f i libcpmt:excptptr.obj
 0001:0007b710       ?_CallMemberFunction1@@YAXQEAX00@Z 000000018007c710 f i libcpmt:excptptr.obj
 0001:0007b71c       ?_CallMemberFunction2@@YAXQEAX00H@Z 000000018007c71c f i libcpmt:excptptr.obj
 0001:0007b8f4       ?__ExceptionPtrCopy@@YAXPEAXPEBX@Z 000000018007c8f4 f   libcpmt:excptptr.obj
 0001:0007b91c       ?__ExceptionPtrCreate@@YAXPEAX@Z 000000018007c91c f   libcpmt:excptptr.obj
 0001:0007b928       ?__ExceptionPtrCurrentException@@YAXPEAX@Z 000000018007c928 f   libcpmt:excptptr.obj
 0001:0007b9a8       ?__ExceptionPtrDestroy@@YAXPEAX@Z 000000018007c9a8 f   libcpmt:excptptr.obj
 0001:0007b9b0       ?_New_handler_interface@std@@YAH_K@Z 000000018007c9b0 f   libcpmt:stdhndlr.obj
 0001:0007b9cc       ?set_new_handler@std@@YAP6AXXZP6AXXZ@Z 000000018007c9cc f   libcpmt:stdhndlr.obj
 0001:0007ba24       _Mtxdst                    000000018007ca24 f   libcpmt:xmtx.obj
 0001:0007ba2c       _Mtxinit                   000000018007ca2c f   libcpmt:xmtx.obj
 0001:0007ba3c       _Mtxlock                   000000018007ca3c f   libcpmt:xmtx.obj
 0001:0007ba44       _Mtxunlock                 000000018007ca44 f   libcpmt:xmtx.obj
 0001:0007ba4c       ?_Atexit@@YAXP6AXXZ@Z      000000018007ca4c f   libcpmt:iosptrs.obj
 0001:0007ba88       ??$_Copy_unchecked@PEA_WV?$ostreambuf_iterator@_WU?$char_traits@_W@std@@@std@@@std@@YA?AV?$ostreambuf_iterator@_WU?$char_traits@_W@std@@@0@PEA_W0V10@@Z 000000018007ca88 f i libcpmt:wlocale.obj
 0001:0007ba88       ??$_Copy_unchecked@PEA_WV?$ostreambuf_iterator@GU?$char_traits@G@std@@@std@@@std@@YA?AV?$ostreambuf_iterator@GU?$char_traits@G@std@@@0@PEA_W0V10@@Z 000000018007ca88 f i libcpmt:wlocale.obj
 0001:0007bb40       ??$_Find_elem@_W$0M@@std@@YA_KAEAY0M@$$CB_W_W@Z 000000018007cb40 f i libcpmt:wlocale.obj
 0001:0007bb40       ??$_Find_elem@G$0M@@std@@YA_KAEAY0M@$$CBGG@Z 000000018007cb40 f i libcpmt:wlocale.obj
 0001:0007bb64       ??$_Getloctxt@V?$istreambuf_iterator@_WU?$char_traits@_W@std@@@std@@D@std@@YAHAEAV?$istreambuf_iterator@_WU?$char_traits@_W@std@@@0@0_KPEBDW4_Case_sensitive@0@@Z 000000018007cb64 f i libcpmt:wlocale.obj
 0001:0007bb64       ??$_Getloctxt@V?$istreambuf_iterator@GU?$char_traits@G@std@@@std@@D@std@@YAHAEAV?$istreambuf_iterator@GU?$char_traits@G@std@@@0@0_KPEBDW4_Case_sensitive@0@@Z 000000018007cb64 f i libcpmt:wlocale.obj
 0001:0007bea8       ??$_Getloctxt@V?$istreambuf_iterator@GU?$char_traits@G@std@@@std@@G@std@@YAHAEAV?$istreambuf_iterator@GU?$char_traits@G@std@@@0@0_KPEBGW4_Case_sensitive@0@@Z 000000018007cea8 f i libcpmt:wlocale.obj
 0001:0007c20c       ??$_Getloctxt@V?$istreambuf_iterator@_WU?$char_traits@_W@std@@@std@@_W@std@@YAHAEAV?$istreambuf_iterator@_WU?$char_traits@_W@std@@@0@0_KPEB_WW4_Case_sensitive@0@@Z 000000018007d20c f i libcpmt:wlocale.obj
 0001:0007c570       ??$_Getvals@G@?$_Mpunct@G@std@@IEAAXGPEBUlconv@@@Z 000000018007d570 f i libcpmt:wlocale.obj
 0001:0007c660       ??$_Getvals@G@?$numpunct@G@std@@IEAAXGPEBUlconv@@U_Cvtvec@@@Z 000000018007d660 f i libcpmt:wlocale.obj
 0001:0007c6ec       ??$_Getvals@G@?$time_get@GV?$istreambuf_iterator@GU?$char_traits@G@std@@@std@@@std@@IEAAXGAEBV_Locinfo@1@@Z 000000018007d6ec f i libcpmt:wlocale.obj
 0001:0007c7dc       ??$_Getvals@_W@?$time_get@_WV?$istreambuf_iterator@_WU?$char_traits@_W@std@@@std@@@std@@IEAAX_WAEBV_Locinfo@1@@Z 000000018007d7dc f i libcpmt:wlocale.obj
 0001:0007c8b0       ??$_Hash_array_representation@_W@std@@YA_KQEB_W_K@Z 000000018007d8b0 f i libcpmt:wlocale.obj
 0001:0007c8b0       ??$_Hash_array_representation@G@std@@YA_KQEBG_K@Z 000000018007d8b0 f i libcpmt:wlocale.obj
 0001:0007c8e8       ??$_LStrcoll@G@std@@YAHPEBG000PEBU_Collvec@@@Z 000000018007d8e8 f i libcpmt:wlocale.obj
 0001:0007c924       ??$_LStrxfrm@G@std@@YA_KPEAG0PEBG1PEBU_Collvec@@@Z 000000018007d924 f i libcpmt:wlocale.obj
 0001:0007c958       ??$_Maklocstr@_W@std@@YAPEA_WPEBDPEA_WAEBU_Cvtvec@@@Z 000000018007d958 f i libcpmt:wlocale.obj
 0001:0007c958       ??$_Maklocstr@G@std@@YAPEAGPEBDPEAGAEBU_Cvtvec@@@Z 000000018007d958 f i libcpmt:wlocale.obj
 0001:0007ca3c       ??$_Reallocate_for@V<lambda_1>@?1??assign@?$basic_string@GU?$char_traits@G@std@@V?$allocator@G@2@@std@@QEAAAEAV34@QEBG_K@Z@PEBG@?$basic_string@GU?$char_traits@G@std@@V?$allocator@G@2@@std@@AEAAAEAV01@_KV<lambda_1>@?1??assign@01@QEAAAEAV01@QEBG0@Z@PEBG@Z 000000018007da3c f i libcpmt:wlocale.obj
 0001:0007cb7c       ??$_Reallocate_for@V<lambda_1>@?1??assign@?$basic_string@GU?$char_traits@G@std@@V?$allocator@G@2@@std@@QEAAAEAV34@_KG@Z@G@?$basic_string@GU?$char_traits@G@std@@V?$allocator@G@2@@std@@AEAAAEAV01@_KV<lambda_1>@?1??assign@01@QEAAAEAV01@0G@Z@G@Z 000000018007db7c f i libcpmt:wlocale.obj
 0001:0007cb7c       ??$_Reallocate_for@V<lambda_1>@?1??assign@?$basic_string@_WU?$char_traits@_W@std@@V?$allocator@_W@2@@std@@QEAAAEAV34@_K_W@Z@_W@?$basic_string@_WU?$char_traits@_W@std@@V?$allocator@_W@2@@std@@AEAAAEAV01@_KV<lambda_1>@?1??assign@01@QEAAAEAV01@0_W@Z@_W@Z 000000018007db7c f i libcpmt:wlocale.obj
 0001:0007ccbc       ??$_Reallocate_grow_by@V<lambda_1>@?1??append@?$basic_string@GU?$char_traits@G@std@@V?$allocator@G@2@@std@@QEAAAEAV34@QEBG_K@Z@PEBG_K@?$basic_string@GU?$char_traits@G@std@@V?$allocator@G@2@@std@@AEAAAEAV01@_KV<lambda_1>@?1??append@01@QEAAAEAV01@QEBG0@Z@PEBG_K@Z 000000018007dcbc f i libcpmt:wlocale.obj
 0001:0007ce4c       ??$_Reallocate_grow_by@V<lambda_1>@?1??append@?$basic_string@GU?$char_traits@G@std@@V?$allocator@G@2@@std@@QEAAAEAV34@_KG@Z@_KG@?$basic_string@GU?$char_traits@G@std@@V?$allocator@G@2@@std@@AEAAAEAV01@_KV<lambda_1>@?1??append@01@QEAAAEAV01@0G@Z@_KG@Z 000000018007de4c f i libcpmt:wlocale.obj
 0001:0007cfcc       ??$_Reallocate_grow_by@V<lambda_1>@?1??insert@?$basic_string@GU?$char_traits@G@std@@V?$allocator@G@2@@std@@QEAAAEAV34@_K0G@Z@_K_KG@?$basic_string@GU?$char_traits@G@std@@V?$allocator@G@2@@std@@AEAAAEAV01@_KV<lambda_1>@?1??insert@01@QEAAAEAV01@00G@Z@_K2G@Z 000000018007dfcc f i libcpmt:wlocale.obj
 0001:0007cfcc       ??$_Reallocate_grow_by@V<lambda_1>@?1??insert@?$basic_string@_WU?$char_traits@_W@std@@V?$allocator@_W@2@@std@@QEAAAEAV34@_K0_W@Z@_K_K_W@?$basic_string@_WU?$char_traits@_W@std@@V?$allocator@_W@2@@std@@AEAAAEAV01@_KV<lambda_1>@?1??insert@01@QEAAAEAV01@00_W@Z@_K3_W@Z 000000018007dfcc f i libcpmt:wlocale.obj
 0001:0007d12c       ??$_Reallocate_grow_by@V<lambda_1>@?1??push_back@?$basic_string@GU?$char_traits@G@std@@V?$allocator@G@2@@std@@QEAAXG@Z@G@?$basic_string@GU?$char_traits@G@std@@V?$allocator@G@2@@std@@AEAAAEAV01@_KV<lambda_1>@?1??push_back@01@QEAAXG@Z@G@Z 000000018007e12c f i libcpmt:wlocale.obj
 0001:0007d290       ??$use_facet@V?$codecvt@GDU_Mbstatet@@@std@@@std@@YAAEBV?$codecvt@GDU_Mbstatet@@@0@AEBVlocale@0@@Z 000000018007e290 f i libcpmt:wlocale.obj
 0001:0007d3a0       ??$use_facet@V?$codecvt@_WDU_Mbstatet@@@std@@@std@@YAAEBV?$codecvt@_WDU_Mbstatet@@@0@AEBVlocale@0@@Z 000000018007e3a0 f i libcpmt:wlocale.obj
 0001:0007d4b0       ??$use_facet@V?$collate@G@std@@@std@@YAAEBV?$collate@G@0@AEBVlocale@0@@Z 000000018007e4b0 f i libcpmt:wlocale.obj
 0001:0007d5c0       ??$use_facet@V?$collate@_W@std@@@std@@YAAEBV?$collate@_W@0@AEBVlocale@0@@Z 000000018007e5c0 f i libcpmt:wlocale.obj
 0001:0007d6d0       ??$use_facet@V?$ctype@G@std@@@std@@YAAEBV?$ctype@G@0@AEBVlocale@0@@Z 000000018007e6d0 f i libcpmt:wlocale.obj
 0001:0007d7e0       ??$use_facet@V?$ctype@_W@std@@@std@@YAAEBV?$ctype@_W@0@AEBVlocale@0@@Z 000000018007e7e0 f i libcpmt:wlocale.obj
 0001:0007d8f0       ??$use_facet@V?$messages@G@std@@@std@@YAAEBV?$messages@G@0@AEBVlocale@0@@Z 000000018007e8f0 f i libcpmt:wlocale.obj
 0001:0007da00       ??$use_facet@V?$messages@_W@std@@@std@@YAAEBV?$messages@_W@0@AEBVlocale@0@@Z 000000018007ea00 f i libcpmt:wlocale.obj
 0001:0007db10       ??$use_facet@V?$money_get@GV?$istreambuf_iterator@GU?$char_traits@G@std@@@std@@@std@@@std@@YAAEBV?$money_get@GV?$istreambuf_iterator@GU?$char_traits@G@std@@@std@@@0@AEBVlocale@0@@Z 000000018007eb10 f i libcpmt:wlocale.obj
 0001:0007dc20       ??$use_facet@V?$money_get@_WV?$istreambuf_iterator@_WU?$char_traits@_W@std@@@std@@@std@@@std@@YAAEBV?$money_get@_WV?$istreambuf_iterator@_WU?$char_traits@_W@std@@@std@@@0@AEBVlocale@0@@Z 000000018007ec20 f i libcpmt:wlocale.obj
 0001:0007dd30       ??$use_facet@V?$money_put@GV?$ostreambuf_iterator@GU?$char_traits@G@std@@@std@@@std@@@std@@YAAEBV?$money_put@GV?$ostreambuf_iterator@GU?$char_traits@G@std@@@std@@@0@AEBVlocale@0@@Z 000000018007ed30 f i libcpmt:wlocale.obj
 0001:0007de40       ??$use_facet@V?$money_put@_WV?$ostreambuf_iterator@_WU?$char_traits@_W@std@@@std@@@std@@@std@@YAAEBV?$money_put@_WV?$ostreambuf_iterator@_WU?$char_traits@_W@std@@@std@@@0@AEBVlocale@0@@Z 000000018007ee40 f i libcpmt:wlocale.obj
 0001:0007df50       ??$use_facet@V?$moneypunct@G$00@std@@@std@@YAAEBV?$moneypunct@G$00@0@AEBVlocale@0@@Z 000000018007ef50 f i libcpmt:wlocale.obj
 0001:0007e060       ??$use_facet@V?$moneypunct@G$0A@@std@@@std@@YAAEBV?$moneypunct@G$0A@@0@AEBVlocale@0@@Z 000000018007f060 f i libcpmt:wlocale.obj
 0001:0007e170       ??$use_facet@V?$moneypunct@_W$00@std@@@std@@YAAEBV?$moneypunct@_W$00@0@AEBVlocale@0@@Z 000000018007f170 f i libcpmt:wlocale.obj
 0001:0007e280       ??$use_facet@V?$moneypunct@_W$0A@@std@@@std@@YAAEBV?$moneypunct@_W$0A@@0@AEBVlocale@0@@Z 000000018007f280 f i libcpmt:wlocale.obj
 0001:0007e390       ??$use_facet@V?$num_get@GV?$istreambuf_iterator@GU?$char_traits@G@std@@@std@@@std@@@std@@YAAEBV?$num_get@GV?$istreambuf_iterator@GU?$char_traits@G@std@@@std@@@0@AEBVlocale@0@@Z 000000018007f390 f i libcpmt:wlocale.obj
 0001:0007e4a0       ??$use_facet@V?$num_get@_WV?$istreambuf_iterator@_WU?$char_traits@_W@std@@@std@@@std@@@std@@YAAEBV?$num_get@_WV?$istreambuf_iterator@_WU?$char_traits@_W@std@@@std@@@0@AEBVlocale@0@@Z 000000018007f4a0 f i libcpmt:wlocale.obj
 0001:0007e5b0       ??$use_facet@V?$num_put@GV?$ostreambuf_iterator@GU?$char_traits@G@std@@@std@@@std@@@std@@YAAEBV?$num_put@GV?$ostreambuf_iterator@GU?$char_traits@G@std@@@std@@@0@AEBVlocale@0@@Z 000000018007f5b0 f i libcpmt:wlocale.obj
 0001:0007e6c0       ??$use_facet@V?$num_put@_WV?$ostreambuf_iterator@_WU?$char_traits@_W@std@@@std@@@std@@@std@@YAAEBV?$num_put@_WV?$ostreambuf_iterator@_WU?$char_traits@_W@std@@@std@@@0@AEBVlocale@0@@Z 000000018007f6c0 f i libcpmt:wlocale.obj
 0001:0007e7d0       ??$use_facet@V?$numpunct@G@std@@@std@@YAAEBV?$numpunct@G@0@AEBVlocale@0@@Z 000000018007f7d0 f i libcpmt:wlocale.obj
 0001:0007e8e0       ??$use_facet@V?$numpunct@_W@std@@@std@@YAAEBV?$numpunct@_W@0@AEBVlocale@0@@Z 000000018007f8e0 f i libcpmt:wlocale.obj
 0001:0007e9f0       ??$use_facet@V?$time_get@GV?$istreambuf_iterator@GU?$char_traits@G@std@@@std@@@std@@@std@@YAAEBV?$time_get@GV?$istreambuf_iterator@GU?$char_traits@G@std@@@std@@@0@AEBVlocale@0@@Z 000000018007f9f0 f i libcpmt:wlocale.obj
 0001:0007eb00       ??$use_facet@V?$time_get@_WV?$istreambuf_iterator@_WU?$char_traits@_W@std@@@std@@@std@@@std@@YAAEBV?$time_get@_WV?$istreambuf_iterator@_WU?$char_traits@_W@std@@@std@@@0@AEBVlocale@0@@Z 000000018007fb00 f i libcpmt:wlocale.obj
 0001:0007ec10       ??$use_facet@V?$time_put@GV?$ostreambuf_iterator@GU?$char_traits@G@std@@@std@@@std@@@std@@YAAEBV?$time_put@GV?$ostreambuf_iterator@GU?$char_traits@G@std@@@std@@@0@AEBVlocale@0@@Z 000000018007fc10 f i libcpmt:wlocale.obj
 0001:0007ed20       ??$use_facet@V?$time_put@_WV?$ostreambuf_iterator@_WU?$char_traits@_W@std@@@std@@@std@@@std@@YAAEBV?$time_put@_WV?$ostreambuf_iterator@_WU?$char_traits@_W@std@@@std@@@0@AEBVlocale@0@@Z 000000018007fd20 f i libcpmt:wlocale.obj
 0001:0007ee30       ??1?$_Tidy_guard@V?$_Mpunct@G@std@@@std@@QEAA@XZ 000000018007fe30 f i libcpmt:wlocale.obj
 0001:0007ee30       ??1?$_Tidy_guard@V?$_Mpunct@_W@std@@@std@@QEAA@XZ 000000018007fe30 f i libcpmt:wlocale.obj
 0001:0007ee30       ??1?$_Tidy_guard@V?$_Mpunct@D@std@@@std@@QEAA@XZ 000000018007fe30 f i libcpmt:xlocale.obj
 0001:0007ee68       ??1?$_Tidy_guard@V?$numpunct@_W@std@@@std@@QEAA@XZ 000000018007fe68 f i libcpmt:wlocale.obj
 0001:0007ee68       ??1?$_Tidy_guard@V?$numpunct@G@std@@@std@@QEAA@XZ 000000018007fe68 f i libcpmt:wlocale.obj
 0001:0007ee98       ??1?$_Tidy_guard@V?$time_get@GV?$istreambuf_iterator@GU?$char_traits@G@std@@@std@@@std@@@std@@QEAA@XZ 000000018007fe98 f i libcpmt:wlocale.obj
 0001:0007ee98       ??1?$_Tidy_guard@V?$time_get@_WV?$istreambuf_iterator@_WU?$char_traits@_W@std@@@std@@@std@@@std@@QEAA@XZ 000000018007fe98 f i libcpmt:wlocale.obj
 0001:0007ee98       ??1?$_Tidy_guard@V?$time_get@DV?$istreambuf_iterator@DU?$char_traits@D@std@@@std@@@std@@@std@@QEAA@XZ 000000018007fe98 f i libcpmt:xlocale.obj
 0001:0007eec8       ??1?$basic_string@GU?$char_traits@G@std@@V?$allocator@G@2@@std@@QEAA@XZ 000000018007fec8 f i libcpmt:wlocale.obj
 0001:0007eed0       ??4?$_Yarn@_W@std@@QEAAAEAV01@PEB_W@Z 000000018007fed0 f i libcpmt:wlocale.obj
 0001:0007ef5c       ??R<lambda_1>@?1??insert@?$basic_string@GU?$char_traits@G@std@@V?$allocator@G@2@@std@@QEAAAEAV23@_K0G@Z@QEBA@QEAGQEBG000G@Z 000000018007ff5c f i libcpmt:wlocale.obj
 0001:0007ef5c       ??R<lambda_1>@?1??insert@?$basic_string@_WU?$char_traits@_W@std@@V?$allocator@_W@2@@std@@QEAAAEAV23@_K0_W@Z@QEBA@QEA_WQEB_W0001@Z 000000018007ff5c f i libcpmt:wlocale.obj
 0001:0007efe4       ??_G?$moneypunct@G$00@std@@MEAAPEAXI@Z 000000018007ffe4 f i libcpmt:wlocale.obj
 0001:0007efe4       ??_E?$moneypunct@G$0A@@std@@MEAAPEAXI@Z 000000018007ffe4 f i libcpmt:wlocale.obj
 0001:0007efe4       ??_E?$moneypunct@G$00@std@@MEAAPEAXI@Z 000000018007ffe4 f i libcpmt:wlocale.obj
 0001:0007efe4       ??_E?$_Mpunct@G@std@@MEAAPEAXI@Z 000000018007ffe4 f i libcpmt:wlocale.obj
 0001:0007efe4       ??_G?$_Mpunct@G@std@@MEAAPEAXI@Z 000000018007ffe4 f i libcpmt:wlocale.obj
 0001:0007efe4       ??_G?$moneypunct@G$0A@@std@@MEAAPEAXI@Z 000000018007ffe4 f i libcpmt:wlocale.obj
 0001:0007f04c       ??_G?$moneypunct@_W$00@std@@MEAAPEAXI@Z 000000018008004c f i libcpmt:wlocale.obj
 0001:0007f04c       ??_E?$moneypunct@_W$00@std@@MEAAPEAXI@Z 000000018008004c f i libcpmt:wlocale.obj
 0001:0007f04c       ??_G?$moneypunct@_W$0A@@std@@MEAAPEAXI@Z 000000018008004c f i libcpmt:wlocale.obj
 0001:0007f04c       ??_E?$moneypunct@_W$0A@@std@@MEAAPEAXI@Z 000000018008004c f i libcpmt:wlocale.obj
 0001:0007f04c       ??_G?$_Mpunct@_W@std@@MEAAPEAXI@Z 000000018008004c f i libcpmt:wlocale.obj
 0001:0007f04c       ??_E?$_Mpunct@_W@std@@MEAAPEAXI@Z 000000018008004c f i libcpmt:wlocale.obj
 0001:0007f0b4       ??_G?$collate@G@std@@MEAAPEAXI@Z 00000001800800b4 f i libcpmt:wlocale.obj
 0001:0007f0b4       ??_E?$collate@G@std@@MEAAPEAXI@Z 00000001800800b4 f i libcpmt:wlocale.obj
 0001:0007f100       ??_E?$collate@_W@std@@MEAAPEAXI@Z 0000000180080100 f i libcpmt:wlocale.obj
 0001:0007f100       ??_G?$collate@_W@std@@MEAAPEAXI@Z 0000000180080100 f i libcpmt:wlocale.obj
 0001:0007f14c       ??_G?$ctype@G@std@@MEAAPEAXI@Z 000000018008014c f i libcpmt:wlocale.obj
 0001:0007f14c       ??_E?$ctype@G@std@@MEAAPEAXI@Z 000000018008014c f i libcpmt:wlocale.obj
 0001:0007f1a8       ??_E?$ctype@_W@std@@MEAAPEAXI@Z 00000001800801a8 f i libcpmt:wlocale.obj
 0001:0007f1a8       ??_G?$ctype@_W@std@@MEAAPEAXI@Z 00000001800801a8 f i libcpmt:wlocale.obj
 0001:0007f204       ??_G?$numpunct@G@std@@MEAAPEAXI@Z 0000000180080204 f i libcpmt:wlocale.obj
 0001:0007f204       ??_E?$numpunct@G@std@@MEAAPEAXI@Z 0000000180080204 f i libcpmt:wlocale.obj
 0001:0007f264       ??_G?$numpunct@_W@std@@MEAAPEAXI@Z 0000000180080264 f i libcpmt:wlocale.obj
 0001:0007f264       ??_E?$numpunct@_W@std@@MEAAPEAXI@Z 0000000180080264 f i libcpmt:wlocale.obj
 0001:0007f2c4       ??_E?$time_get@GV?$istreambuf_iterator@GU?$char_traits@G@std@@@std@@@std@@MEAAPEAXI@Z 00000001800802c4 f i libcpmt:wlocale.obj
 0001:0007f2c4       ??_G?$time_get@GV?$istreambuf_iterator@GU?$char_traits@G@std@@@std@@@std@@MEAAPEAXI@Z 00000001800802c4 f i libcpmt:wlocale.obj
 0001:0007f324       ??_E?$time_get@_WV?$istreambuf_iterator@_WU?$char_traits@_W@std@@@std@@@std@@MEAAPEAXI@Z 0000000180080324 f i libcpmt:wlocale.obj
 0001:0007f324       ??_G?$time_get@_WV?$istreambuf_iterator@_WU?$char_traits@_W@std@@@std@@@std@@MEAAPEAXI@Z 0000000180080324 f i libcpmt:wlocale.obj
 0001:0007f384       ??_G?$time_put@GV?$ostreambuf_iterator@GU?$char_traits@G@std@@@std@@@std@@MEAAPEAXI@Z 0000000180080384 f i libcpmt:wlocale.obj
 0001:0007f384       ??_E?$time_put@GV?$ostreambuf_iterator@GU?$char_traits@G@std@@@std@@@std@@MEAAPEAXI@Z 0000000180080384 f i libcpmt:wlocale.obj
 0001:0007f3d0       ??_E?$time_put@_WV?$ostreambuf_iterator@_WU?$char_traits@_W@std@@@std@@@std@@MEAAPEAXI@Z 00000001800803d0 f i libcpmt:wlocale.obj
 0001:0007f3d0       ??_G?$time_put@_WV?$ostreambuf_iterator@_WU?$char_traits@_W@std@@@std@@@std@@MEAAPEAXI@Z 00000001800803d0 f i libcpmt:wlocale.obj
 0001:0007f41c       ?_Construct_lv_contents@?$basic_string@GU?$char_traits@G@std@@V?$allocator@G@2@@std@@AEAAXAEBV12@@Z 000000018008041c f i libcpmt:wlocale.obj
 0001:0007f4e4       ?_Ffmt@?$num_put@GV?$ostreambuf_iterator@GU?$char_traits@G@std@@@std@@@std@@AEBAPEADPEADDH@Z 00000001800804e4 f i libcpmt:wlocale.obj
 0001:0007f4e4       ?_Ffmt@?$num_put@_WV?$ostreambuf_iterator@_WU?$char_traits@_W@std@@@std@@@std@@AEBAPEADPEADDH@Z 00000001800804e4 f i libcpmt:wlocale.obj
 0001:0007f578       ?_Fput@?$num_put@GV?$ostreambuf_iterator@GU?$char_traits@G@std@@@std@@@std@@AEBA?AV?$ostreambuf_iterator@GU?$char_traits@G@std@@@2@V32@AEAVios_base@2@GPEBD_K@Z 0000000180080578 f i libcpmt:wlocale.obj
 0001:0007fa1c       ?_Fput@?$num_put@_WV?$ostreambuf_iterator@_WU?$char_traits@_W@std@@@std@@@std@@AEBA?AV?$ostreambuf_iterator@_WU?$char_traits@_W@std@@@2@V32@AEAVios_base@2@_WPEBD_K@Z 0000000180080a1c f i libcpmt:wlocale.obj
 0001:0007fec0       ?_Getcat@?$codecvt@GDU_Mbstatet@@@std@@SA_KPEAPEBVfacet@locale@2@PEBV42@@Z 0000000180080ec0 f i libcpmt:wlocale.obj
 0001:0007ffac       ?_Getcat@?$codecvt@_WDU_Mbstatet@@@std@@SA_KPEAPEBVfacet@locale@2@PEBV42@@Z 0000000180080fac f i libcpmt:wlocale.obj
 0001:00080098       ?_Getcat@?$collate@G@std@@SA_KPEAPEBVfacet@locale@2@PEBV42@@Z 0000000180081098 f i libcpmt:wlocale.obj
 0001:000801d0       ?_Getcat@?$collate@_W@std@@SA_KPEAPEBVfacet@locale@2@PEBV42@@Z 00000001800811d0 f i libcpmt:wlocale.obj
 0001:00080308       ?_Getcat@?$ctype@G@std@@SA_KPEAPEBVfacet@locale@2@PEBV42@@Z 0000000180081308 f i libcpmt:wlocale.obj
 0001:00080410       ?_Getcat@?$ctype@_W@std@@SA_KPEAPEBVfacet@locale@2@PEBV42@@Z 0000000180081410 f i libcpmt:wlocale.obj
 0001:00080518       ?_Getcat@?$messages@G@std@@SA_KPEAPEBVfacet@locale@2@PEBV42@@Z 0000000180081518 f i libcpmt:wlocale.obj
 0001:000805d4       ?_Getcat@?$messages@_W@std@@SA_KPEAPEBVfacet@locale@2@PEBV42@@Z 00000001800815d4 f i libcpmt:wlocale.obj
 0001:00080690       ?_Getcat@?$money_get@GV?$istreambuf_iterator@GU?$char_traits@G@std@@@std@@@std@@SA_KPEAPEBVfacet@locale@2@PEBV42@@Z 0000000180081690 f i libcpmt:wlocale.obj
 0001:0008074c       ?_Getcat@?$money_get@_WV?$istreambuf_iterator@_WU?$char_traits@_W@std@@@std@@@std@@SA_KPEAPEBVfacet@locale@2@PEBV42@@Z 000000018008174c f i libcpmt:wlocale.obj
 0001:00080808       ?_Getcat@?$money_put@GV?$ostreambuf_iterator@GU?$char_traits@G@std@@@std@@@std@@SA_KPEAPEBVfacet@locale@2@PEBV42@@Z 0000000180081808 f i libcpmt:wlocale.obj
 0001:000808c4       ?_Getcat@?$money_put@_WV?$ostreambuf_iterator@_WU?$char_traits@_W@std@@@std@@@std@@SA_KPEAPEBVfacet@locale@2@PEBV42@@Z 00000001800818c4 f i libcpmt:wlocale.obj
 0001:00080980       ?_Getcat@?$moneypunct@G$00@std@@SA_KPEAPEBVfacet@locale@2@PEBV42@@Z 0000000180081980 f i libcpmt:wlocale.obj
 0001:00080a58       ?_Getcat@?$moneypunct@G$0A@@std@@SA_KPEAPEBVfacet@locale@2@PEBV42@@Z 0000000180081a58 f i libcpmt:wlocale.obj
 0001:00080b30       ?_Getcat@?$moneypunct@_W$00@std@@SA_KPEAPEBVfacet@locale@2@PEBV42@@Z 0000000180081b30 f i libcpmt:wlocale.obj
 0001:00080c08       ?_Getcat@?$moneypunct@_W$0A@@std@@SA_KPEAPEBVfacet@locale@2@PEBV42@@Z 0000000180081c08 f i libcpmt:wlocale.obj
 0001:00080ce0       ?_Getcat@?$num_get@GV?$istreambuf_iterator@GU?$char_traits@G@std@@@std@@@std@@SA_KPEAPEBVfacet@locale@2@PEBV42@@Z 0000000180081ce0 f i libcpmt:wlocale.obj
 0001:00080d9c       ?_Getcat@?$num_get@_WV?$istreambuf_iterator@_WU?$char_traits@_W@std@@@std@@@std@@SA_KPEAPEBVfacet@locale@2@PEBV42@@Z 0000000180081d9c f i libcpmt:wlocale.obj
 0001:00080e58       ?_Getcat@?$num_put@GV?$ostreambuf_iterator@GU?$char_traits@G@std@@@std@@@std@@SA_KPEAPEBVfacet@locale@2@PEBV42@@Z 0000000180081e58 f i libcpmt:wlocale.obj
 0001:00080f14       ?_Getcat@?$num_put@_WV?$ostreambuf_iterator@_WU?$char_traits@_W@std@@@std@@@std@@SA_KPEAPEBVfacet@locale@2@PEBV42@@Z 0000000180081f14 f i libcpmt:wlocale.obj
 0001:00080fd0       ?_Getcat@?$numpunct@G@std@@SA_KPEAPEBVfacet@locale@2@PEBV42@@Z 0000000180081fd0 f i libcpmt:wlocale.obj
 0001:00081098       ?_Getcat@?$numpunct@_W@std@@SA_KPEAPEBVfacet@locale@2@PEBV42@@Z 0000000180082098 f i libcpmt:wlocale.obj
 0001:00081160       ?_Getcat@?$time_get@GV?$istreambuf_iterator@GU?$char_traits@G@std@@@std@@@std@@SA_KPEAPEBVfacet@locale@2@PEBV42@@Z 0000000180082160 f i libcpmt:wlocale.obj
 0001:00081248       ?_Getcat@?$time_get@_WV?$istreambuf_iterator@_WU?$char_traits@_W@std@@@std@@@std@@SA_KPEAPEBVfacet@locale@2@PEBV42@@Z 0000000180082248 f i libcpmt:wlocale.obj
 0001:00081330       ?_Getcat@?$time_put@GV?$ostreambuf_iterator@GU?$char_traits@G@std@@@std@@@std@@SA_KPEAPEBVfacet@locale@2@PEBV42@@Z 0000000180082330 f i libcpmt:wlocale.obj
 0001:00081420       ?_Getcat@?$time_put@_WV?$ostreambuf_iterator@_WU?$char_traits@_W@std@@@std@@@std@@SA_KPEAPEBVfacet@locale@2@PEBV42@@Z 0000000180082420 f i libcpmt:wlocale.obj
 0001:00081510       ?_Getffld@?$num_get@GV?$istreambuf_iterator@GU?$char_traits@G@std@@@std@@@std@@AEBAHPEADAEAV?$istreambuf_iterator@GU?$char_traits@G@std@@@2@1AEAVios_base@2@PEAH@Z 0000000180082510 f i libcpmt:wlocale.obj
 0001:00082628       ?_Getffld@?$num_get@_WV?$istreambuf_iterator@_WU?$char_traits@_W@std@@@std@@@std@@AEBAHPEADAEAV?$istreambuf_iterator@_WU?$char_traits@_W@std@@@2@1AEAVios_base@2@PEAH@Z 0000000180083628 f i libcpmt:wlocale.obj
 0001:00083740       ?_Getffldx@?$num_get@GV?$istreambuf_iterator@GU?$char_traits@G@std@@@std@@@std@@AEBAHPEADAEAV?$istreambuf_iterator@GU?$char_traits@G@std@@@2@1AEAVios_base@2@PEAH@Z 0000000180084740 f i libcpmt:wlocale.obj
 0001:0008485c       ?_Getffldx@?$num_get@_WV?$istreambuf_iterator@_WU?$char_traits@_W@std@@@std@@@std@@AEBAHPEADAEAV?$istreambuf_iterator@_WU?$char_traits@_W@std@@@2@1AEAVios_base@2@PEAH@Z 000000018008585c f i libcpmt:wlocale.obj
 0001:00085978       ?_Getfmt@?$time_get@GV?$istreambuf_iterator@GU?$char_traits@G@std@@@std@@@std@@IEBA?AV?$istreambuf_iterator@GU?$char_traits@G@std@@@2@V32@0AEAVios_base@2@AEAHPEAUtm@@PEBD@Z 0000000180086978 f i libcpmt:wlocale.obj
 0001:00085c94       ?_Getfmt@?$time_get@_WV?$istreambuf_iterator@_WU?$char_traits@_W@std@@@std@@@std@@IEBA?AV?$istreambuf_iterator@_WU?$char_traits@_W@std@@@2@V32@0AEAVios_base@2@AEAHPEAUtm@@PEBD@Z 0000000180086c94 f i libcpmt:wlocale.obj
 0001:00085fb0       ?_Getifld@?$num_get@GV?$istreambuf_iterator@GU?$char_traits@G@std@@@std@@@std@@AEBAHPEADAEAV?$istreambuf_iterator@GU?$char_traits@G@std@@@2@1HAEBVlocale@2@@Z 0000000180086fb0 f i libcpmt:wlocale.obj
 0001:00086800       ?_Getifld@?$num_get@_WV?$istreambuf_iterator@_WU?$char_traits@_W@std@@@std@@@std@@AEBAHPEADAEAV?$istreambuf_iterator@_WU?$char_traits@_W@std@@@2@1HAEBVlocale@2@@Z 0000000180087800 f i libcpmt:wlocale.obj
 0001:00087050       ?_Getint@?$time_get@_WV?$istreambuf_iterator@_WU?$char_traits@_W@std@@@std@@@std@@AEBAHAEAV?$istreambuf_iterator@_WU?$char_traits@_W@std@@@2@0HHAEAHAEBV?$ctype@_W@2@@Z 0000000180088050 f i libcpmt:wlocale.obj
 0001:00087050       ?_Getint@?$time_get@GV?$istreambuf_iterator@GU?$char_traits@G@std@@@std@@@std@@AEBAHAEAV?$istreambuf_iterator@GU?$char_traits@G@std@@@2@0HHAEAHAEBV?$ctype@G@2@@Z 0000000180088050 f i libcpmt:wlocale.obj
 0001:000875a0       ?_Getmfld@?$money_get@GV?$istreambuf_iterator@GU?$char_traits@G@std@@@std@@@std@@AEBA?AV?$basic_string@DU?$char_traits@D@std@@V?$allocator@D@2@@2@AEAV?$istreambuf_iterator@GU?$char_traits@G@std@@@2@0_NAEAVios_base@2@AEAY0M@G@Z 00000001800885a0 f i libcpmt:wlocale.obj
 0001:00088b40       ?_Getmfld@?$money_get@_WV?$istreambuf_iterator@_WU?$char_traits@_W@std@@@std@@@std@@AEBA?AV?$basic_string@DU?$char_traits@D@std@@V?$allocator@D@2@@2@AEAV?$istreambuf_iterator@_WU?$char_traits@_W@std@@@2@0_NAEAVios_base@2@AEAY0M@_W@Z 0000000180089b40 f i libcpmt:wlocale.obj
 0001:0008a0e0       ?_Getvals@?$_Mpunct@_W@std@@IEAAX_WPEBUlconv@@@Z 000000018008b0e0 f i libcpmt:wlocale.obj
 0001:0008a168       ?_Inc@?$istreambuf_iterator@GU?$char_traits@G@std@@@std@@AEAAXXZ 000000018008b168 f i libcpmt:wlocale.obj
 0001:0008a168       ?_Inc@?$istreambuf_iterator@_WU?$char_traits@_W@std@@@std@@AEAAXXZ 000000018008b168 f i libcpmt:wlocale.obj
 0001:0008a1d0       ?_Init@?$_Mpunct@G@std@@IEAAXAEBV_Locinfo@2@_N@Z 000000018008b1d0 f i libcpmt:wlocale.obj
 0001:0008a314       ?_Init@?$_Mpunct@_W@std@@IEAAXAEBV_Locinfo@2@_N@Z 000000018008b314 f i libcpmt:wlocale.obj
 0001:0008a458       ?_Init@?$numpunct@G@std@@IEAAXAEBV_Locinfo@2@_N@Z 000000018008b458 f i libcpmt:wlocale.obj
 0001:0008a5e4       ?_Init@?$numpunct@_W@std@@IEAAXAEBV_Locinfo@2@_N@Z 000000018008b5e4 f i libcpmt:wlocale.obj
 0001:0008a754       ?_Iput@?$num_put@GV?$ostreambuf_iterator@GU?$char_traits@G@std@@@std@@@std@@AEBA?AV?$ostreambuf_iterator@GU?$char_traits@G@std@@@2@V32@AEAVios_base@2@GPEAD_K@Z 000000018008b754 f i libcpmt:wlocale.obj
 0001:0008ab84       ?_Iput@?$num_put@_WV?$ostreambuf_iterator@_WU?$char_traits@_W@std@@@std@@@std@@AEBA?AV?$ostreambuf_iterator@_WU?$char_traits@_W@std@@@2@V32@AEAVios_base@2@_WPEAD_K@Z 000000018008bb84 f i libcpmt:wlocale.obj
 0001:0008afb4       ?_Makeushloc@_Locimp@locale@std@@CAXAEBV_Locinfo@3@HPEAV123@PEBV23@@Z 000000018008bfb4 f   libcpmt:wlocale.obj
 0001:0008bc9c       ?_Makewloc@_Locimp@locale@std@@CAXAEBV_Locinfo@3@HPEAV123@PEBV23@@Z 000000018008cc9c f   libcpmt:wlocale.obj
 0001:0008c984       ?_Maklocwcs@std@@YAPEA_WPEB_W@Z 000000018008d984 f i libcpmt:wlocale.obj
 0001:0008c9f0       ?_Put@?$money_put@GV?$ostreambuf_iterator@GU?$char_traits@G@std@@@std@@@std@@CA?AV?$ostreambuf_iterator@GU?$char_traits@G@std@@@2@V32@V?$_String_const_iterator@V?$_String_val@U?$_Simple_types@G@std@@@std@@@2@_K@Z 000000018008d9f0 f i libcpmt:wlocale.obj
 0001:0008c9f0       ?_Put@?$money_put@_WV?$ostreambuf_iterator@_WU?$char_traits@_W@std@@@std@@@std@@CA?AV?$ostreambuf_iterator@_WU?$char_traits@_W@std@@@2@V32@V?$_String_const_iterator@V?$_String_val@U?$_Simple_types@_W@std@@@std@@@2@_K@Z 000000018008d9f0 f i libcpmt:wlocale.obj
 0001:0008caa8       ?_Put@?$num_put@GV?$ostreambuf_iterator@GU?$char_traits@G@std@@@std@@@std@@AEBA?AV?$ostreambuf_iterator@GU?$char_traits@G@std@@@2@V32@PEBG_K@Z 000000018008daa8 f i libcpmt:wlocale.obj
 0001:0008caa8       ?_Put@?$num_put@_WV?$ostreambuf_iterator@_WU?$char_traits@_W@std@@@std@@@std@@AEBA?AV?$ostreambuf_iterator@_WU?$char_traits@_W@std@@@2@V32@PEB_W_K@Z 000000018008daa8 f i libcpmt:wlocale.obj
 0001:0008cb60       ?_Putmfld@?$money_put@GV?$ostreambuf_iterator@GU?$char_traits@G@std@@@std@@@std@@AEBA?AV?$ostreambuf_iterator@GU?$char_traits@G@std@@@2@V32@_NAEAVios_base@2@G1V?$basic_string@GU?$char_traits@G@std@@V?$allocator@G@2@@2@G@Z 000000018008db60 f i libcpmt:wlocale.obj
 0001:0008d4b8       ?_Putmfld@?$money_put@_WV?$ostreambuf_iterator@_WU?$char_traits@_W@std@@@std@@@std@@AEBA?AV?$ostreambuf_iterator@_WU?$char_traits@_W@std@@@2@V32@_NAEAVios_base@2@_W1V?$basic_string@_WU?$char_traits@_W@std@@V?$allocator@_W@2@@2@3@Z 000000018008e4b8 f i libcpmt:wlocale.obj
 0001:0008de10       ?_Rep@?$money_put@GV?$ostreambuf_iterator@GU?$char_traits@G@std@@@std@@@std@@CA?AV?$ostreambuf_iterator@GU?$char_traits@G@std@@@2@V32@G_K@Z 000000018008ee10 f i libcpmt:wlocale.obj
 0001:0008de10       ?_Rep@?$money_put@_WV?$ostreambuf_iterator@_WU?$char_traits@_W@std@@@std@@@std@@CA?AV?$ostreambuf_iterator@_WU?$char_traits@_W@std@@@2@V32@_W_K@Z 000000018008ee10 f i libcpmt:wlocale.obj
 0001:0008dec0       ?_Rep@?$num_put@GV?$ostreambuf_iterator@GU?$char_traits@G@std@@@std@@@std@@AEBA?AV?$ostreambuf_iterator@GU?$char_traits@G@std@@@2@V32@G_K@Z 000000018008eec0 f i libcpmt:wlocale.obj
 0001:0008dec0       ?_Rep@?$num_put@_WV?$ostreambuf_iterator@_WU?$char_traits@_W@std@@@std@@@std@@AEBA?AV?$ostreambuf_iterator@_WU?$char_traits@_W@std@@@2@V32@_W_K@Z 000000018008eec0 f i libcpmt:wlocale.obj
 0001:0008df70       ?append@?$basic_string@GU?$char_traits@G@std@@V?$allocator@G@2@@std@@QEAAAEAV12@QEBG_K@Z 000000018008ef70 f i libcpmt:wlocale.obj
 0001:0008dfec       ?append@?$basic_string@GU?$char_traits@G@std@@V?$allocator@G@2@@std@@QEAAAEAV12@_KG@Z 000000018008efec f i libcpmt:wlocale.obj
 0001:0008e064       ?assign@?$basic_string@GU?$char_traits@G@std@@V?$allocator@G@2@@std@@QEAAAEAV12@QEBG@Z 000000018008f064 f i libcpmt:wlocale.obj
 0001:0008e0ec       ?do_compare@?$collate@G@std@@MEBAHPEBG000@Z 000000018008f0ec f i libcpmt:wlocale.obj
 0001:0008e130       ?do_compare@?$collate@_W@std@@MEBAHPEB_W000@Z 000000018008f130 f i libcpmt:wlocale.obj
 0001:0008e174       ?do_falsename@?$numpunct@G@std@@MEBA?AV?$basic_string@GU?$char_traits@G@std@@V?$allocator@G@2@@2@XZ 000000018008f174 f i libcpmt:wlocale.obj
 0001:0008e174       ?do_curr_symbol@?$_Mpunct@G@std@@MEBA?AV?$basic_string@GU?$char_traits@G@std@@V?$allocator@G@2@@2@XZ 000000018008f174 f i libcpmt:wlocale.obj
 0001:0008e1a8       ?do_curr_symbol@?$_Mpunct@_W@std@@MEBA?AV?$basic_string@_WU?$char_traits@_W@std@@V?$allocator@_W@2@@2@XZ 000000018008f1a8 f i libcpmt:wlocale.obj
 0001:0008e1a8       ?do_falsename@?$numpunct@_W@std@@MEBA?AV?$basic_string@_WU?$char_traits@_W@std@@V?$allocator@_W@2@@2@XZ 000000018008f1a8 f i libcpmt:wlocale.obj
 0001:0008e1dc       ?do_date_order@?$time_get@_WV?$istreambuf_iterator@_WU?$char_traits@_W@std@@@std@@@std@@MEBA?AW4dateorder@time_base@2@XZ 000000018008f1dc f i libcpmt:wlocale.obj
 0001:0008e1dc       ?do_date_order@?$time_get@DV?$istreambuf_iterator@DU?$char_traits@D@std@@@std@@@std@@MEBA?AW4dateorder@time_base@2@XZ 000000018008f1dc f i libcpmt:xlocale.obj
 0001:0008e1dc       ?do_date_order@?$time_get@GV?$istreambuf_iterator@GU?$char_traits@G@std@@@std@@@std@@MEBA?AW4dateorder@time_base@2@XZ 000000018008f1dc f i libcpmt:wlocale.obj
 0001:0008e1e0       ?do_decimal_point@?$numpunct@_W@std@@MEBA_WXZ 000000018008f1e0 f i libcpmt:wlocale.obj
 0001:0008e1e0       ?do_decimal_point@?$_Mpunct@G@std@@MEBAGXZ 000000018008f1e0 f i libcpmt:wlocale.obj
 0001:0008e1e0       ?do_decimal_point@?$_Mpunct@_W@std@@MEBA_WXZ 000000018008f1e0 f i libcpmt:wlocale.obj
 0001:0008e1e0       ?do_decimal_point@?$numpunct@G@std@@MEBAGXZ 000000018008f1e0 f i libcpmt:wlocale.obj
 0001:0008e1e8       ?do_frac_digits@?$_Mpunct@G@std@@MEBAHXZ 000000018008f1e8 f i libcpmt:wlocale.obj
 0001:0008e1e8       ?do_frac_digits@?$_Mpunct@D@std@@MEBAHXZ 000000018008f1e8 f i libcpmt:xlocale.obj
 0001:0008e1e8       ?do_frac_digits@?$_Mpunct@_W@std@@MEBAHXZ 000000018008f1e8 f i libcpmt:wlocale.obj
 0001:0008e1ec       ?do_get@?$messages@G@std@@MEBA?AV?$basic_string@GU?$char_traits@G@std@@V?$allocator@G@2@@2@HHHAEBV32@@Z 000000018008f1ec f i libcpmt:wlocale.obj
 0001:0008e218       ?do_get@?$messages@_W@std@@MEBA?AV?$basic_string@_WU?$char_traits@_W@std@@V?$allocator@_W@2@@2@HHHAEBV32@@Z 000000018008f218 f i libcpmt:wlocale.obj
 0001:0008e244       ?do_get@?$money_get@GV?$istreambuf_iterator@GU?$char_traits@G@std@@@std@@@std@@MEBA?AV?$istreambuf_iterator@GU?$char_traits@G@std@@@2@V32@0_NAEAVios_base@2@AEAHAEAO@Z 000000018008f244 f i libcpmt:wlocale.obj
 0001:0008e37c       ?do_get@?$money_get@GV?$istreambuf_iterator@GU?$char_traits@G@std@@@std@@@std@@MEBA?AV?$istreambuf_iterator@GU?$char_traits@G@std@@@2@V32@0_NAEAVios_base@2@AEAHAEAV?$basic_string@GU?$char_traits@G@std@@V?$allocator@G@2@@2@@Z 000000018008f37c f i libcpmt:wlocale.obj
 0001:0008e4f0       ?do_get@?$money_get@_WV?$istreambuf_iterator@_WU?$char_traits@_W@std@@@std@@@std@@MEBA?AV?$istreambuf_iterator@_WU?$char_traits@_W@std@@@2@V32@0_NAEAVios_base@2@AEAHAEAO@Z 000000018008f4f0 f i libcpmt:wlocale.obj
 0001:0008e628       ?do_get@?$money_get@_WV?$istreambuf_iterator@_WU?$char_traits@_W@std@@@std@@@std@@MEBA?AV?$istreambuf_iterator@_WU?$char_traits@_W@std@@@2@V32@0_NAEAVios_base@2@AEAHAEAV?$basic_string@_WU?$char_traits@_W@std@@V?$allocator@_W@2@@2@@Z 000000018008f628 f i libcpmt:wlocale.obj
 0001:0008e79c       ?do_get@?$num_get@GV?$istreambuf_iterator@GU?$char_traits@G@std@@@std@@@std@@MEBA?AV?$istreambuf_iterator@GU?$char_traits@G@std@@@2@V32@0AEAVios_base@2@AEAHAEAG@Z 000000018008f79c f i libcpmt:wlocale.obj
 0001:0008e8f0       ?do_get@?$num_get@GV?$istreambuf_iterator@GU?$char_traits@G@std@@@std@@@std@@MEBA?AV?$istreambuf_iterator@GU?$char_traits@G@std@@@2@V32@0AEAVios_base@2@AEAHAEAI@Z 000000018008f8f0 f i libcpmt:wlocale.obj
 0001:0008e970       ?do_get@?$num_get@GV?$istreambuf_iterator@GU?$char_traits@G@std@@@std@@@std@@MEBA?AV?$istreambuf_iterator@GU?$char_traits@G@std@@@2@V32@0AEAVios_base@2@AEAHAEAJ@Z 000000018008f970 f i libcpmt:wlocale.obj
 0001:0008ea94       ?do_get@?$num_get@GV?$istreambuf_iterator@GU?$char_traits@G@std@@@std@@@std@@MEBA?AV?$istreambuf_iterator@GU?$char_traits@G@std@@@2@V32@0AEAVios_base@2@AEAHAEAK@Z 000000018008fa94 f i libcpmt:wlocale.obj
 0001:0008ebb8       ?do_get@?$num_get@GV?$istreambuf_iterator@GU?$char_traits@G@std@@@std@@@std@@MEBA?AV?$istreambuf_iterator@GU?$char_traits@G@std@@@2@V32@0AEAVios_base@2@AEAHAEAM@Z 000000018008fbb8 f i libcpmt:wlocale.obj
 0001:0008ecd0       ?do_get@?$num_get@GV?$istreambuf_iterator@GU?$char_traits@G@std@@@std@@@std@@MEBA?AV?$istreambuf_iterator@GU?$char_traits@G@std@@@2@V32@0AEAVios_base@2@AEAHAEAN@Z 000000018008fcd0 f i libcpmt:wlocale.obj
 0001:0008eddc       ?do_get@?$num_get@GV?$istreambuf_iterator@GU?$char_traits@G@std@@@std@@@std@@MEBA?AV?$istreambuf_iterator@GU?$char_traits@G@std@@@2@V32@0AEAVios_base@2@AEAHAEAO@Z 000000018008fddc f i libcpmt:wlocale.obj
 0001:0008ee60       ?do_get@?$num_get@GV?$istreambuf_iterator@GU?$char_traits@G@std@@@std@@@std@@MEBA?AV?$istreambuf_iterator@GU?$char_traits@G@std@@@2@V32@0AEAVios_base@2@AEAHAEAPEAX@Z 000000018008fe60 f i libcpmt:wlocale.obj
 0001:0008ef78       ?do_get@?$num_get@GV?$istreambuf_iterator@GU?$char_traits@G@std@@@std@@@std@@MEBA?AV?$istreambuf_iterator@GU?$char_traits@G@std@@@2@V32@0AEAVios_base@2@AEAHAEA_J@Z 000000018008ff78 f i libcpmt:wlocale.obj
 0001:0008f09c       ?do_get@?$num_get@GV?$istreambuf_iterator@GU?$char_traits@G@std@@@std@@@std@@MEBA?AV?$istreambuf_iterator@GU?$char_traits@G@std@@@2@V32@0AEAVios_base@2@AEAHAEA_K@Z 000000018009009c f i libcpmt:wlocale.obj
 0001:0008f1c0       ?do_get@?$num_get@GV?$istreambuf_iterator@GU?$char_traits@G@std@@@std@@@std@@MEBA?AV?$istreambuf_iterator@GU?$char_traits@G@std@@@2@V32@0AEAVios_base@2@AEAHAEA_N@Z 00000001800901c0 f i libcpmt:wlocale.obj
 0001:0008f4bc       ?do_get@?$num_get@_WV?$istreambuf_iterator@_WU?$char_traits@_W@std@@@std@@@std@@MEBA?AV?$istreambuf_iterator@_WU?$char_traits@_W@std@@@2@V32@0AEAVios_base@2@AEAHAEAG@Z 00000001800904bc f i libcpmt:wlocale.obj
 0001:0008f610       ?do_get@?$num_get@_WV?$istreambuf_iterator@_WU?$char_traits@_W@std@@@std@@@std@@MEBA?AV?$istreambuf_iterator@_WU?$char_traits@_W@std@@@2@V32@0AEAVios_base@2@AEAHAEAI@Z 0000000180090610 f i libcpmt:wlocale.obj
 0001:0008f690       ?do_get@?$num_get@_WV?$istreambuf_iterator@_WU?$char_traits@_W@std@@@std@@@std@@MEBA?AV?$istreambuf_iterator@_WU?$char_traits@_W@std@@@2@V32@0AEAVios_base@2@AEAHAEAJ@Z 0000000180090690 f i libcpmt:wlocale.obj
 0001:0008f7b4       ?do_get@?$num_get@_WV?$istreambuf_iterator@_WU?$char_traits@_W@std@@@std@@@std@@MEBA?AV?$istreambuf_iterator@_WU?$char_traits@_W@std@@@2@V32@0AEAVios_base@2@AEAHAEAK@Z 00000001800907b4 f i libcpmt:wlocale.obj
 0001:0008f8d8       ?do_get@?$num_get@_WV?$istreambuf_iterator@_WU?$char_traits@_W@std@@@std@@@std@@MEBA?AV?$istreambuf_iterator@_WU?$char_traits@_W@std@@@2@V32@0AEAVios_base@2@AEAHAEAM@Z 00000001800908d8 f i libcpmt:wlocale.obj
 0001:0008f9f0       ?do_get@?$num_get@_WV?$istreambuf_iterator@_WU?$char_traits@_W@std@@@std@@@std@@MEBA?AV?$istreambuf_iterator@_WU?$char_traits@_W@std@@@2@V32@0AEAVios_base@2@AEAHAEAN@Z 00000001800909f0 f i libcpmt:wlocale.obj
 0001:0008fafc       ?do_get@?$num_get@_WV?$istreambuf_iterator@_WU?$char_traits@_W@std@@@std@@@std@@MEBA?AV?$istreambuf_iterator@_WU?$char_traits@_W@std@@@2@V32@0AEAVios_base@2@AEAHAEAO@Z 0000000180090afc f i libcpmt:wlocale.obj
 0001:0008fb80       ?do_get@?$num_get@_WV?$istreambuf_iterator@_WU?$char_traits@_W@std@@@std@@@std@@MEBA?AV?$istreambuf_iterator@_WU?$char_traits@_W@std@@@2@V32@0AEAVios_base@2@AEAHAEAPEAX@Z 0000000180090b80 f i libcpmt:wlocale.obj
 0001:0008fc98       ?do_get@?$num_get@_WV?$istreambuf_iterator@_WU?$char_traits@_W@std@@@std@@@std@@MEBA?AV?$istreambuf_iterator@_WU?$char_traits@_W@std@@@2@V32@0AEAVios_base@2@AEAHAEA_J@Z 0000000180090c98 f i libcpmt:wlocale.obj
 0001:0008fdbc       ?do_get@?$num_get@_WV?$istreambuf_iterator@_WU?$char_traits@_W@std@@@std@@@std@@MEBA?AV?$istreambuf_iterator@_WU?$char_traits@_W@std@@@2@V32@0AEAVios_base@2@AEAHAEA_K@Z 0000000180090dbc f i libcpmt:wlocale.obj
 0001:0008fee0       ?do_get@?$num_get@_WV?$istreambuf_iterator@_WU?$char_traits@_W@std@@@std@@@std@@MEBA?AV?$istreambuf_iterator@_WU?$char_traits@_W@std@@@2@V32@0AEAVios_base@2@AEAHAEA_N@Z 0000000180090ee0 f i libcpmt:wlocale.obj
 0001:000901dc       ?do_get@?$time_get@GV?$istreambuf_iterator@GU?$char_traits@G@std@@@std@@@std@@MEBA?AV?$istreambuf_iterator@GU?$char_traits@G@std@@@2@V32@0AEAVios_base@2@AEAHPEAUtm@@DD@Z 00000001800911dc f i libcpmt:wlocale.obj
 0001:00090744       ?do_get@?$time_get@_WV?$istreambuf_iterator@_WU?$char_traits@_W@std@@@std@@@std@@MEBA?AV?$istreambuf_iterator@_WU?$char_traits@_W@std@@@2@V32@0AEAVios_base@2@AEAHPEAUtm@@DD@Z 0000000180091744 f i libcpmt:wlocale.obj
 0001:00090cac       ?do_get_date@?$time_get@GV?$istreambuf_iterator@GU?$char_traits@G@std@@@std@@@std@@MEBA?AV?$istreambuf_iterator@GU?$char_traits@G@std@@@2@V32@0AEAVios_base@2@AEAHPEAUtm@@@Z 0000000180091cac f i libcpmt:wlocale.obj
 0001:00091708       ?do_get_date@?$time_get@_WV?$istreambuf_iterator@_WU?$char_traits@_W@std@@@std@@@std@@MEBA?AV?$istreambuf_iterator@_WU?$char_traits@_W@std@@@2@V32@0AEAVios_base@2@AEAHPEAUtm@@@Z 0000000180092708 f i libcpmt:wlocale.obj
 0001:00092164       ?do_get_monthname@?$time_get@GV?$istreambuf_iterator@GU?$char_traits@G@std@@@std@@@std@@MEBA?AV?$istreambuf_iterator@GU?$char_traits@G@std@@@2@V32@0AEAVios_base@2@AEAHPEAUtm@@@Z 0000000180093164 f i libcpmt:wlocale.obj
 0001:000921c0       ?do_get_monthname@?$time_get@_WV?$istreambuf_iterator@_WU?$char_traits@_W@std@@@std@@@std@@MEBA?AV?$istreambuf_iterator@_WU?$char_traits@_W@std@@@2@V32@0AEAVios_base@2@AEAHPEAUtm@@@Z 00000001800931c0 f i libcpmt:wlocale.obj
 0001:0009221c       ?do_get_time@?$time_get@GV?$istreambuf_iterator@GU?$char_traits@G@std@@@std@@@std@@MEBA?AV?$istreambuf_iterator@GU?$char_traits@G@std@@@2@V32@0AEAVios_base@2@AEAHPEAUtm@@@Z 000000018009321c f i libcpmt:wlocale.obj
 0001:000924dc       ?do_get_time@?$time_get@_WV?$istreambuf_iterator@_WU?$char_traits@_W@std@@@std@@@std@@MEBA?AV?$istreambuf_iterator@_WU?$char_traits@_W@std@@@2@V32@0AEAVios_base@2@AEAHPEAUtm@@@Z 00000001800934dc f i libcpmt:wlocale.obj
 0001:0009279c       ?do_get_weekday@?$time_get@GV?$istreambuf_iterator@GU?$char_traits@G@std@@@std@@@std@@MEBA?AV?$istreambuf_iterator@GU?$char_traits@G@std@@@2@V32@0AEAVios_base@2@AEAHPEAUtm@@@Z 000000018009379c f i libcpmt:wlocale.obj
 0001:000927f8       ?do_get_weekday@?$time_get@_WV?$istreambuf_iterator@_WU?$char_traits@_W@std@@@std@@@std@@MEBA?AV?$istreambuf_iterator@_WU?$char_traits@_W@std@@@2@V32@0AEAVios_base@2@AEAHPEAUtm@@@Z 00000001800937f8 f i libcpmt:wlocale.obj
 0001:00092854       ?do_get_year@?$time_get@GV?$istreambuf_iterator@GU?$char_traits@G@std@@@std@@@std@@MEBA?AV?$istreambuf_iterator@GU?$char_traits@G@std@@@2@V32@0AEAVios_base@2@AEAHPEAUtm@@@Z 0000000180093854 f i libcpmt:wlocale.obj
 0001:00092968       ?do_get_year@?$time_get@_WV?$istreambuf_iterator@_WU?$char_traits@_W@std@@@std@@@std@@MEBA?AV?$istreambuf_iterator@_WU?$char_traits@_W@std@@@2@V32@0AEAVios_base@2@AEAHPEAUtm@@@Z 0000000180093968 f i libcpmt:wlocale.obj
 0001:00092a7c       ?do_grouping@?$numpunct@G@std@@MEBA?AV?$basic_string@DU?$char_traits@D@std@@V?$allocator@D@2@@2@XZ 0000000180093a7c f i libcpmt:wlocale.obj
 0001:00092a7c       ?do_grouping@?$numpunct@_W@std@@MEBA?AV?$basic_string@DU?$char_traits@D@std@@V?$allocator@D@2@@2@XZ 0000000180093a7c f i libcpmt:wlocale.obj
 0001:00092a7c       ?do_grouping@?$_Mpunct@_W@std@@MEBA?AV?$basic_string@DU?$char_traits@D@std@@V?$allocator@D@2@@2@XZ 0000000180093a7c f i libcpmt:wlocale.obj
 0001:00092a7c       ?do_grouping@?$_Mpunct@D@std@@MEBA?AV?$basic_string@DU?$char_traits@D@std@@V?$allocator@D@2@@2@XZ 0000000180093a7c f i libcpmt:xlocale.obj
 0001:00092a7c       ?do_grouping@?$_Mpunct@G@std@@MEBA?AV?$basic_string@DU?$char_traits@D@std@@V?$allocator@D@2@@2@XZ 0000000180093a7c f i libcpmt:wlocale.obj
 0001:00092ab0       ?do_hash@?$collate@G@std@@MEBAJPEBG0@Z 0000000180093ab0 f i libcpmt:wlocale.obj
 0001:00092ab0       ?do_hash@?$collate@_W@std@@MEBAJPEB_W0@Z 0000000180093ab0 f i libcpmt:wlocale.obj
 0001:00092ac4       ?do_in@?$codecvt@GDU_Mbstatet@@@std@@MEBAHAEAU_Mbstatet@@PEBD1AEAPEBDPEAG3AEAPEAG@Z 0000000180093ac4 f i libcpmt:wlocale.obj
 0001:00092b70       ?do_is@?$ctype@_W@std@@MEBAPEB_WPEB_W0PEAF@Z 0000000180093b70 f i libcpmt:wlocale.obj
 0001:00092b70       ?do_is@?$ctype@G@std@@MEBAPEBGPEBG0PEAF@Z 0000000180093b70 f i libcpmt:wlocale.obj
 0001:00092b8c       ?do_is@?$ctype@G@std@@MEBA_NFG@Z 0000000180093b8c f i libcpmt:wlocale.obj
 0001:00092b8c       ?do_is@?$ctype@_W@std@@MEBA_NF_W@Z 0000000180093b8c f i libcpmt:wlocale.obj
 0001:00092bb0       ?do_length@?$codecvt@GDU_Mbstatet@@@std@@MEBAHAEAU_Mbstatet@@PEBD1_K@Z 0000000180093bb0 f i libcpmt:wlocale.obj
 0001:00092c50       ?do_narrow@?$ctype@_W@std@@MEBAD_WD@Z 0000000180093c50 f i libcpmt:wlocale.obj
 0001:00092c50       ?do_narrow@?$ctype@G@std@@MEBADGD@Z 0000000180093c50 f i libcpmt:wlocale.obj
 0001:00092ca4       ?do_narrow@?$ctype@_W@std@@MEBAPEB_WPEB_W0DPEAD@Z 0000000180093ca4 f i libcpmt:wlocale.obj
 0001:00092ca4       ?do_narrow@?$ctype@G@std@@MEBAPEBGPEBG0DPEAD@Z 0000000180093ca4 f i libcpmt:wlocale.obj
 0001:00092d38       ?do_neg_format@?$_Mpunct@G@std@@MEBA?AUpattern@money_base@2@XZ 0000000180093d38 f i libcpmt:wlocale.obj
 0001:00092d38       ?do_neg_format@?$_Mpunct@_W@std@@MEBA?AUpattern@money_base@2@XZ 0000000180093d38 f i libcpmt:wlocale.obj
 0001:00092d38       ?do_neg_format@?$_Mpunct@D@std@@MEBA?AUpattern@money_base@2@XZ 0000000180093d38 f i libcpmt:xlocale.obj
 0001:00092d44       ?do_negative_sign@?$_Mpunct@G@std@@MEBA?AV?$basic_string@GU?$char_traits@G@std@@V?$allocator@G@2@@2@XZ 0000000180093d44 f i libcpmt:wlocale.obj
 0001:00092d78       ?do_negative_sign@?$_Mpunct@_W@std@@MEBA?AV?$basic_string@_WU?$char_traits@_W@std@@V?$allocator@_W@2@@2@XZ 0000000180093d78 f i libcpmt:wlocale.obj
 0001:00092dac       ?do_open@?$messages@D@std@@MEBAHAEBV?$basic_string@DU?$char_traits@D@std@@V?$allocator@D@2@@2@AEBVlocale@2@@Z 0000000180093dac f i libcpmt:xlocale.obj
 0001:00092dac       ?do_open@?$messages@_W@std@@MEBAHAEBV?$basic_string@DU?$char_traits@D@std@@V?$allocator@D@2@@2@AEBVlocale@2@@Z 0000000180093dac f i libcpmt:wlocale.obj
 0001:00092dac       ?do_open@?$messages@G@std@@MEBAHAEBV?$basic_string@DU?$char_traits@D@std@@V?$allocator@D@2@@2@AEBVlocale@2@@Z 0000000180093dac f i libcpmt:wlocale.obj
 0001:00092db0       ?do_out@?$codecvt@GDU_Mbstatet@@@std@@MEBAHAEAU_Mbstatet@@PEBG1AEAPEBGPEAD3AEAPEAD@Z 0000000180093db0 f i libcpmt:wlocale.obj
 0001:00092ee0       ?do_pos_format@?$_Mpunct@D@std@@MEBA?AUpattern@money_base@2@XZ 0000000180093ee0 f i libcpmt:xlocale.obj
 0001:00092ee0       ?do_pos_format@?$_Mpunct@_W@std@@MEBA?AUpattern@money_base@2@XZ 0000000180093ee0 f i libcpmt:wlocale.obj
 0001:00092ee0       ?do_pos_format@?$_Mpunct@G@std@@MEBA?AUpattern@money_base@2@XZ 0000000180093ee0 f i libcpmt:wlocale.obj
 0001:00092eec       ?do_positive_sign@?$_Mpunct@G@std@@MEBA?AV?$basic_string@GU?$char_traits@G@std@@V?$allocator@G@2@@2@XZ 0000000180093eec f i libcpmt:wlocale.obj
 0001:00092eec       ?do_truename@?$numpunct@G@std@@MEBA?AV?$basic_string@GU?$char_traits@G@std@@V?$allocator@G@2@@2@XZ 0000000180093eec f i libcpmt:wlocale.obj
 0001:00092f20       ?do_positive_sign@?$_Mpunct@_W@std@@MEBA?AV?$basic_string@_WU?$char_traits@_W@std@@V?$allocator@_W@2@@2@XZ 0000000180093f20 f i libcpmt:wlocale.obj
 0001:00092f20       ?do_truename@?$numpunct@_W@std@@MEBA?AV?$basic_string@_WU?$char_traits@_W@std@@V?$allocator@_W@2@@2@XZ 0000000180093f20 f i libcpmt:wlocale.obj
 0001:00092f54       ?do_put@?$money_put@GV?$ostreambuf_iterator@GU?$char_traits@G@std@@@std@@@std@@MEBA?AV?$ostreambuf_iterator@GU?$char_traits@G@std@@@2@V32@_NAEAVios_base@2@GAEBV?$basic_string@GU?$char_traits@G@std@@V?$allocator@G@2@@2@@Z 0000000180093f54 f i libcpmt:wlocale.obj
 0001:000931e4       ?do_put@?$money_put@GV?$ostreambuf_iterator@GU?$char_traits@G@std@@@std@@@std@@MEBA?AV?$ostreambuf_iterator@GU?$char_traits@G@std@@@2@V32@_NAEAVios_base@2@GO@Z 00000001800941e4 f i libcpmt:wlocale.obj
 0001:0009346c       ?do_put@?$money_put@_WV?$ostreambuf_iterator@_WU?$char_traits@_W@std@@@std@@@std@@MEBA?AV?$ostreambuf_iterator@_WU?$char_traits@_W@std@@@2@V32@_NAEAVios_base@2@_WAEBV?$basic_string@_WU?$char_traits@_W@std@@V?$allocator@_W@2@@2@@Z 000000018009446c f i libcpmt:wlocale.obj
 0001:000936fc       ?do_put@?$money_put@_WV?$ostreambuf_iterator@_WU?$char_traits@_W@std@@@std@@@std@@MEBA?AV?$ostreambuf_iterator@_WU?$char_traits@_W@std@@@2@V32@_NAEAVios_base@2@_WO@Z 00000001800946fc f i libcpmt:wlocale.obj
 0001:00093984       ?do_put@?$num_put@GV?$ostreambuf_iterator@GU?$char_traits@G@std@@@std@@@std@@MEBA?AV?$ostreambuf_iterator@GU?$char_traits@G@std@@@2@V32@AEAVios_base@2@GJ@Z 0000000180094984 f i libcpmt:wlocale.obj
 0001:00093a98       ?do_put@?$num_put@GV?$ostreambuf_iterator@GU?$char_traits@G@std@@@std@@@std@@MEBA?AV?$ostreambuf_iterator@GU?$char_traits@G@std@@@2@V32@AEAVios_base@2@GK@Z 0000000180094a98 f i libcpmt:wlocale.obj
 0001:00093bac       ?do_put@?$num_put@GV?$ostreambuf_iterator@GU?$char_traits@G@std@@@std@@@std@@MEBA?AV?$ostreambuf_iterator@GU?$char_traits@G@std@@@2@V32@AEAVios_base@2@GN@Z 0000000180094bac f i libcpmt:wlocale.obj
 0001:00093d9c       ?do_put@?$num_put@GV?$ostreambuf_iterator@GU?$char_traits@G@std@@@std@@@std@@MEBA?AV?$ostreambuf_iterator@GU?$char_traits@G@std@@@2@V32@AEAVios_base@2@GO@Z 0000000180094d9c f i libcpmt:wlocale.obj
 0001:00093f8c       ?do_put@?$num_put@GV?$ostreambuf_iterator@GU?$char_traits@G@std@@@std@@@std@@MEBA?AV?$ostreambuf_iterator@GU?$char_traits@G@std@@@2@V32@AEAVios_base@2@GPEBX@Z 0000000180094f8c f i libcpmt:wlocale.obj
 0001:00094030       ?do_put@?$num_put@GV?$ostreambuf_iterator@GU?$char_traits@G@std@@@std@@@std@@MEBA?AV?$ostreambuf_iterator@GU?$char_traits@G@std@@@2@V32@AEAVios_base@2@G_J@Z 0000000180095030 f i libcpmt:wlocale.obj
 0001:0009414c       ?do_put@?$num_put@GV?$ostreambuf_iterator@GU?$char_traits@G@std@@@std@@@std@@MEBA?AV?$ostreambuf_iterator@GU?$char_traits@G@std@@@2@V32@AEAVios_base@2@G_K@Z 000000018009514c f i libcpmt:wlocale.obj
 0001:00094268       ?do_put@?$num_put@GV?$ostreambuf_iterator@GU?$char_traits@G@std@@@std@@@std@@MEBA?AV?$ostreambuf_iterator@GU?$char_traits@G@std@@@2@V32@AEAVios_base@2@G_N@Z 0000000180095268 f i libcpmt:wlocale.obj
 0001:000944e0       ?do_put@?$num_put@_WV?$ostreambuf_iterator@_WU?$char_traits@_W@std@@@std@@@std@@MEBA?AV?$ostreambuf_iterator@_WU?$char_traits@_W@std@@@2@V32@AEAVios_base@2@_WJ@Z 00000001800954e0 f i libcpmt:wlocale.obj
 0001:000945f4       ?do_put@?$num_put@_WV?$ostreambuf_iterator@_WU?$char_traits@_W@std@@@std@@@std@@MEBA?AV?$ostreambuf_iterator@_WU?$char_traits@_W@std@@@2@V32@AEAVios_base@2@_WK@Z 00000001800955f4 f i libcpmt:wlocale.obj
 0001:00094708       ?do_put@?$num_put@_WV?$ostreambuf_iterator@_WU?$char_traits@_W@std@@@std@@@std@@MEBA?AV?$ostreambuf_iterator@_WU?$char_traits@_W@std@@@2@V32@AEAVios_base@2@_WN@Z 0000000180095708 f i libcpmt:wlocale.obj
 0001:000948f8       ?do_put@?$num_put@_WV?$ostreambuf_iterator@_WU?$char_traits@_W@std@@@std@@@std@@MEBA?AV?$ostreambuf_iterator@_WU?$char_traits@_W@std@@@2@V32@AEAVios_base@2@_WO@Z 00000001800958f8 f i libcpmt:wlocale.obj
 0001:00094ae8       ?do_put@?$num_put@_WV?$ostreambuf_iterator@_WU?$char_traits@_W@std@@@std@@@std@@MEBA?AV?$ostreambuf_iterator@_WU?$char_traits@_W@std@@@2@V32@AEAVios_base@2@_WPEBX@Z 0000000180095ae8 f i libcpmt:wlocale.obj
 0001:00094b8c       ?do_put@?$num_put@_WV?$ostreambuf_iterator@_WU?$char_traits@_W@std@@@std@@@std@@MEBA?AV?$ostreambuf_iterator@_WU?$char_traits@_W@std@@@2@V32@AEAVios_base@2@_W_J@Z 0000000180095b8c f i libcpmt:wlocale.obj
 0001:00094ca8       ?do_put@?$num_put@_WV?$ostreambuf_iterator@_WU?$char_traits@_W@std@@@std@@@std@@MEBA?AV?$ostreambuf_iterator@_WU?$char_traits@_W@std@@@2@V32@AEAVios_base@2@_W_K@Z 0000000180095ca8 f i libcpmt:wlocale.obj
 0001:00094dc4       ?do_put@?$num_put@_WV?$ostreambuf_iterator@_WU?$char_traits@_W@std@@@std@@@std@@MEBA?AV?$ostreambuf_iterator@_WU?$char_traits@_W@std@@@2@V32@AEAVios_base@2@_W_N@Z 0000000180095dc4 f i libcpmt:wlocale.obj
 0001:0009503c       ?do_put@?$time_put@GV?$ostreambuf_iterator@GU?$char_traits@G@std@@@std@@@std@@MEBA?AV?$ostreambuf_iterator@GU?$char_traits@G@std@@@2@V32@AEAVios_base@2@GPEBUtm@@DD@Z 000000018009603c f i libcpmt:wlocale.obj
 0001:0009503c       ?do_put@?$time_put@_WV?$ostreambuf_iterator@_WU?$char_traits@_W@std@@@std@@@std@@MEBA?AV?$ostreambuf_iterator@_WU?$char_traits@_W@std@@@2@V32@AEAVios_base@2@_WPEBUtm@@DD@Z 000000018009603c f i libcpmt:wlocale.obj
 0001:000951a4       ?do_scan_is@?$ctype@_W@std@@MEBAPEB_WFPEB_W0@Z 00000001800961a4 f i libcpmt:wlocale.obj
 0001:000951a4       ?do_scan_is@?$ctype@G@std@@MEBAPEBGFPEBG0@Z 00000001800961a4 f i libcpmt:wlocale.obj
 0001:00095208       ?do_scan_not@?$ctype@G@std@@MEBAPEBGFPEBG0@Z 0000000180096208 f i libcpmt:wlocale.obj
 0001:00095208       ?do_scan_not@?$ctype@_W@std@@MEBAPEB_WFPEB_W0@Z 0000000180096208 f i libcpmt:wlocale.obj
 0001:0009526c       ?do_thousands_sep@?$numpunct@_W@std@@MEBA_WXZ 000000018009626c f i libcpmt:wlocale.obj
 0001:0009526c       ?do_thousands_sep@?$_Mpunct@_W@std@@MEBA_WXZ 000000018009626c f i libcpmt:wlocale.obj
 0001:0009526c       ?do_thousands_sep@?$numpunct@G@std@@MEBAGXZ 000000018009626c f i libcpmt:wlocale.obj
 0001:0009526c       ?do_thousands_sep@?$_Mpunct@G@std@@MEBAGXZ 000000018009626c f i libcpmt:wlocale.obj
 0001:00095274       ?do_tolower@?$ctype@G@std@@MEBAGG@Z 0000000180096274 f i libcpmt:wlocale.obj
 0001:00095274       ?do_tolower@?$ctype@_W@std@@MEBA_W_W@Z 0000000180096274 f i libcpmt:wlocale.obj
 0001:00095284       ?do_tolower@?$ctype@_W@std@@MEBAPEB_WPEA_WPEB_W@Z 0000000180096284 f i libcpmt:wlocale.obj
 0001:00095284       ?do_tolower@?$ctype@G@std@@MEBAPEBGPEAGPEBG@Z 0000000180096284 f i libcpmt:wlocale.obj
 0001:000952cc       ?do_toupper@?$ctype@G@std@@MEBAGG@Z 00000001800962cc f i libcpmt:wlocale.obj
 0001:000952cc       ?do_toupper@?$ctype@_W@std@@MEBA_W_W@Z 00000001800962cc f i libcpmt:wlocale.obj
 0001:000952dc       ?do_toupper@?$ctype@G@std@@MEBAPEBGPEAGPEBG@Z 00000001800962dc f i libcpmt:wlocale.obj
 0001:000952dc       ?do_toupper@?$ctype@_W@std@@MEBAPEB_WPEA_WPEB_W@Z 00000001800962dc f i libcpmt:wlocale.obj
 0001:00095324       ?do_transform@?$collate@G@std@@MEBA?AV?$basic_string@GU?$char_traits@G@std@@V?$allocator@G@2@@2@PEBG0@Z 0000000180096324 f i libcpmt:wlocale.obj
 0001:0009542c       ?do_transform@?$collate@_W@std@@MEBA?AV?$basic_string@_WU?$char_traits@_W@std@@V?$allocator@_W@2@@2@PEB_W0@Z 000000018009642c f i libcpmt:wlocale.obj
 0001:00095534       ?do_unshift@?$codecvt@GDU_Mbstatet@@@std@@MEBAHAEAU_Mbstatet@@PEAD1AEAPEAD@Z 0000000180096534 f i libcpmt:wlocale.obj
 0001:000955d8       ?do_widen@?$ctype@G@std@@MEBAGD@Z 00000001800965d8 f i libcpmt:wlocale.obj
 0001:0009561c       ?do_widen@?$ctype@G@std@@MEBAPEBDPEBD0PEAG@Z 000000018009661c f i libcpmt:wlocale.obj
 0001:00095694       ?do_widen@?$ctype@_W@std@@MEBAPEBDPEBD0PEA_W@Z 0000000180096694 f i libcpmt:wlocale.obj
 0001:0009570c       ?do_widen@?$ctype@_W@std@@MEBA_WD@Z 000000018009670c f i libcpmt:wlocale.obj
 0001:00095754       ?equal@?$istreambuf_iterator@_WU?$char_traits@_W@std@@@std@@QEBA_NAEBV12@@Z 0000000180096754 f i libcpmt:wlocale.obj
 0001:00095754       ?equal@?$istreambuf_iterator@GU?$char_traits@G@std@@@std@@QEBA_NAEBV12@@Z 0000000180096754 f i libcpmt:wlocale.obj
 0001:0009583c       ?insert@?$basic_string@GU?$char_traits@G@std@@V?$allocator@G@2@@std@@QEAAAEAV12@_K0G@Z 000000018009683c f i libcpmt:wlocale.obj
 0001:0009583c       ?insert@?$basic_string@_WU?$char_traits@_W@std@@V?$allocator@_W@2@@std@@QEAAAEAV12@_K0_W@Z 000000018009683c f i libcpmt:wlocale.obj
 0001:000958f0       ?name@locale@std@@QEBA?AV?$basic_string@DU?$char_traits@D@std@@V?$allocator@D@2@@2@XZ 00000001800968f0 f i libcpmt:wlocale.obj
 0001:00095a2c       ??$_Copy_unchecked@PEADV?$ostreambuf_iterator@DU?$char_traits@D@std@@@std@@@std@@YA?AV?$ostreambuf_iterator@DU?$char_traits@D@std@@@0@PEAD0V10@@Z 0000000180096a2c f i libcpmt:xlocale.obj
 0001:00095adc       ??$_Getvals@D@?$_Mpunct@D@std@@IEAAXDPEBUlconv@@@Z 0000000180096adc f i libcpmt:xlocale.obj
 0001:00095b74       ??$_Getvals@D@?$time_get@DV?$istreambuf_iterator@DU?$char_traits@D@std@@@std@@@std@@IEAAXDAEBV_Locinfo@1@@Z 0000000180096b74 f i libcpmt:xlocale.obj
 0001:00095c64       ??$use_facet@V?$collate@D@std@@@std@@YAAEBV?$collate@D@0@AEBVlocale@0@@Z 0000000180096c64 f i libcpmt:xlocale.obj
 0001:00095d74       ??$use_facet@V?$messages@D@std@@@std@@YAAEBV?$messages@D@0@AEBVlocale@0@@Z 0000000180096d74 f i libcpmt:xlocale.obj
 0001:00095e84       ??$use_facet@V?$money_get@DV?$istreambuf_iterator@DU?$char_traits@D@std@@@std@@@std@@@std@@YAAEBV?$money_get@DV?$istreambuf_iterator@DU?$char_traits@D@std@@@std@@@0@AEBVlocale@0@@Z 0000000180096e84 f i libcpmt:xlocale.obj
 0001:00095f94       ??$use_facet@V?$money_put@DV?$ostreambuf_iterator@DU?$char_traits@D@std@@@std@@@std@@@std@@YAAEBV?$money_put@DV?$ostreambuf_iterator@DU?$char_traits@D@std@@@std@@@0@AEBVlocale@0@@Z 0000000180096f94 f i libcpmt:xlocale.obj
 0001:000960a4       ??$use_facet@V?$moneypunct@D$00@std@@@std@@YAAEBV?$moneypunct@D$00@0@AEBVlocale@0@@Z 00000001800970a4 f i libcpmt:xlocale.obj
 0001:000961b4       ??$use_facet@V?$moneypunct@D$0A@@std@@@std@@YAAEBV?$moneypunct@D$0A@@0@AEBVlocale@0@@Z 00000001800971b4 f i libcpmt:xlocale.obj
 0001:000962c4       ??$use_facet@V?$time_get@DV?$istreambuf_iterator@DU?$char_traits@D@std@@@std@@@std@@@std@@YAAEBV?$time_get@DV?$istreambuf_iterator@DU?$char_traits@D@std@@@std@@@0@AEBVlocale@0@@Z 00000001800972c4 f i libcpmt:xlocale.obj
 0001:000963d4       ??$use_facet@V?$time_put@DV?$ostreambuf_iterator@DU?$char_traits@D@std@@@std@@@std@@@std@@YAAEBV?$time_put@DV?$ostreambuf_iterator@DU?$char_traits@D@std@@@std@@@0@AEBVlocale@0@@Z 00000001800973d4 f i libcpmt:xlocale.obj
 0001:000964e4       ??_E?$moneypunct@D$00@std@@MEAAPEAXI@Z 00000001800974e4 f i libcpmt:xlocale.obj
 0001:000964e4       ??_E?$moneypunct@D$0A@@std@@MEAAPEAXI@Z 00000001800974e4 f i libcpmt:xlocale.obj
 0001:000964e4       ??_G?$moneypunct@D$0A@@std@@MEAAPEAXI@Z 00000001800974e4 f i libcpmt:xlocale.obj
 0001:000964e4       ??_G?$moneypunct@D$00@std@@MEAAPEAXI@Z 00000001800974e4 f i libcpmt:xlocale.obj
 0001:000964e4       ??_E?$_Mpunct@D@std@@MEAAPEAXI@Z 00000001800974e4 f i libcpmt:xlocale.obj
 0001:000964e4       ??_G?$_Mpunct@D@std@@MEAAPEAXI@Z 00000001800974e4 f i libcpmt:xlocale.obj
 0001:0009654c       ??_G?$collate@D@std@@MEAAPEAXI@Z 000000018009754c f i libcpmt:xlocale.obj
 0001:0009654c       ??_E?$collate@D@std@@MEAAPEAXI@Z 000000018009754c f i libcpmt:xlocale.obj
 0001:00096598       ??_E?$time_get@DV?$istreambuf_iterator@DU?$char_traits@D@std@@@std@@@std@@MEAAPEAXI@Z 0000000180097598 f i libcpmt:xlocale.obj
 0001:00096598       ??_G?$time_get@DV?$istreambuf_iterator@DU?$char_traits@D@std@@@std@@@std@@MEAAPEAXI@Z 0000000180097598 f i libcpmt:xlocale.obj
 0001:000965f8       ??_E?$time_put@DV?$ostreambuf_iterator@DU?$char_traits@D@std@@@std@@@std@@MEAAPEAXI@Z 00000001800975f8 f i libcpmt:xlocale.obj
 0001:000965f8       ??_G?$time_put@DV?$ostreambuf_iterator@DU?$char_traits@D@std@@@std@@@std@@MEAAPEAXI@Z 00000001800975f8 f i libcpmt:xlocale.obj
 0001:00096644       ?_Getcat@?$collate@D@std@@SA_KPEAPEBVfacet@locale@2@PEBV42@@Z 0000000180097644 f i libcpmt:xlocale.obj
 0001:0009677c       ?_Getcat@?$messages@D@std@@SA_KPEAPEBVfacet@locale@2@PEBV42@@Z 000000018009777c f i libcpmt:xlocale.obj
 0001:00096838       ?_Getcat@?$money_get@DV?$istreambuf_iterator@DU?$char_traits@D@std@@@std@@@std@@SA_KPEAPEBVfacet@locale@2@PEBV42@@Z 0000000180097838 f i libcpmt:xlocale.obj
 0001:000968f4       ?_Getcat@?$money_put@DV?$ostreambuf_iterator@DU?$char_traits@D@std@@@std@@@std@@SA_KPEAPEBVfacet@locale@2@PEBV42@@Z 00000001800978f4 f i libcpmt:xlocale.obj
 0001:000969b0       ?_Getcat@?$moneypunct@D$00@std@@SA_KPEAPEBVfacet@locale@2@PEBV42@@Z 00000001800979b0 f i libcpmt:xlocale.obj
 0001:00096a88       ?_Getcat@?$moneypunct@D$0A@@std@@SA_KPEAPEBVfacet@locale@2@PEBV42@@Z 0000000180097a88 f i libcpmt:xlocale.obj
 0001:00096b60       ?_Getcat@?$time_get@DV?$istreambuf_iterator@DU?$char_traits@D@std@@@std@@@std@@SA_KPEAPEBVfacet@locale@2@PEBV42@@Z 0000000180097b60 f i libcpmt:xlocale.obj
 0001:00096c48       ?_Getcat@?$time_put@DV?$ostreambuf_iterator@DU?$char_traits@D@std@@@std@@@std@@SA_KPEAPEBVfacet@locale@2@PEBV42@@Z 0000000180097c48 f i libcpmt:xlocale.obj
 0001:00096d38       ?_Getfmt@?$time_get@DV?$istreambuf_iterator@DU?$char_traits@D@std@@@std@@@std@@IEBA?AV?$istreambuf_iterator@DU?$char_traits@D@std@@@2@V32@0AEAVios_base@2@AEAHPEAUtm@@PEBD@Z 0000000180097d38 f i libcpmt:xlocale.obj
 0001:0009702c       ?_Getint@?$time_get@DV?$istreambuf_iterator@DU?$char_traits@D@std@@@std@@@std@@AEBAHAEAV?$istreambuf_iterator@DU?$char_traits@D@std@@@2@0HHAEAHAEBV?$ctype@D@2@@Z 000000018009802c f i libcpmt:xlocale.obj
 0001:0009751c       ?_Getmfld@?$money_get@DV?$istreambuf_iterator@DU?$char_traits@D@std@@@std@@@std@@AEBA?AV?$basic_string@DU?$char_traits@D@std@@V?$allocator@D@2@@2@AEAV?$istreambuf_iterator@DU?$char_traits@D@std@@@2@0_NAEAVios_base@2@AEAY0M@D@Z 000000018009851c f i libcpmt:xlocale.obj
 0001:00098aac       ?_Init@?$_Mpunct@D@std@@IEAAXAEBV_Locinfo@2@_N@Z 0000000180099aac f i libcpmt:xlocale.obj
 0001:00098bf0       ?_Makexloc@_Locimp@locale@std@@CAXAEBV_Locinfo@3@HPEAV123@PEBV23@@Z 0000000180099bf0 f   libcpmt:xlocale.obj
 0001:000993f0       ?_Put@?$money_put@DV?$ostreambuf_iterator@DU?$char_traits@D@std@@@std@@@std@@CA?AV?$ostreambuf_iterator@DU?$char_traits@D@std@@@2@V32@V?$_String_const_iterator@V?$_String_val@U?$_Simple_types@D@std@@@std@@@2@_K@Z 000000018009a3f0 f i libcpmt:xlocale.obj
 0001:000994a4       ?_Putmfld@?$money_put@DV?$ostreambuf_iterator@DU?$char_traits@D@std@@@std@@@std@@AEBA?AV?$ostreambuf_iterator@DU?$char_traits@D@std@@@2@V32@_NAEAVios_base@2@D1V?$basic_string@DU?$char_traits@D@std@@V?$allocator@D@2@@2@D@Z 000000018009a4a4 f i libcpmt:xlocale.obj
 0001:00099da8       ?_Rep@?$money_put@DV?$ostreambuf_iterator@DU?$char_traits@D@std@@@std@@@std@@CA?AV?$ostreambuf_iterator@DU?$char_traits@D@std@@@2@V32@D_K@Z 000000018009ada8 f i libcpmt:xlocale.obj
 0001:00099e54       ?do_compare@?$collate@D@std@@MEBAHPEBD000@Z 000000018009ae54 f i libcpmt:xlocale.obj
 0001:00099e98       ?do_curr_symbol@?$_Mpunct@D@std@@MEBA?AV?$basic_string@DU?$char_traits@D@std@@V?$allocator@D@2@@2@XZ 000000018009ae98 f i libcpmt:xlocale.obj
 0001:00099ecc       ?do_decimal_point@?$_Mpunct@D@std@@MEBADXZ 000000018009aecc f i libcpmt:xlocale.obj
 0001:00099ed0       ?do_get@?$messages@D@std@@MEBA?AV?$basic_string@DU?$char_traits@D@std@@V?$allocator@D@2@@2@HHHAEBV32@@Z 000000018009aed0 f i libcpmt:xlocale.obj
 0001:00099efc       ?do_get@?$money_get@DV?$istreambuf_iterator@DU?$char_traits@D@std@@@std@@@std@@MEBA?AV?$istreambuf_iterator@DU?$char_traits@D@std@@@2@V32@0_NAEAVios_base@2@AEAHAEAO@Z 000000018009aefc f i libcpmt:xlocale.obj
 0001:0009a030       ?do_get@?$money_get@DV?$istreambuf_iterator@DU?$char_traits@D@std@@@std@@@std@@MEBA?AV?$istreambuf_iterator@DU?$char_traits@D@std@@@2@V32@0_NAEAVios_base@2@AEAHAEAV?$basic_string@DU?$char_traits@D@std@@V?$allocator@D@2@@2@@Z 000000018009b030 f i libcpmt:xlocale.obj
 0001:0009a1a0       ?do_get@?$time_get@DV?$istreambuf_iterator@DU?$char_traits@D@std@@@std@@@std@@MEBA?AV?$istreambuf_iterator@DU?$char_traits@D@std@@@2@V32@0AEAVios_base@2@AEAHPEAUtm@@DD@Z 000000018009b1a0 f i libcpmt:xlocale.obj
 0001:0009a708       ?do_get_date@?$time_get@DV?$istreambuf_iterator@DU?$char_traits@D@std@@@std@@@std@@MEBA?AV?$istreambuf_iterator@DU?$char_traits@D@std@@@2@V32@0AEAVios_base@2@AEAHPEAUtm@@@Z 000000018009b708 f i libcpmt:xlocale.obj
 0001:0009b088       ?do_get_monthname@?$time_get@DV?$istreambuf_iterator@DU?$char_traits@D@std@@@std@@@std@@MEBA?AV?$istreambuf_iterator@DU?$char_traits@D@std@@@2@V32@0AEAVios_base@2@AEAHPEAUtm@@@Z 000000018009c088 f i libcpmt:xlocale.obj
 0001:0009b0e4       ?do_get_time@?$time_get@DV?$istreambuf_iterator@DU?$char_traits@D@std@@@std@@@std@@MEBA?AV?$istreambuf_iterator@DU?$char_traits@D@std@@@2@V32@0AEAVios_base@2@AEAHPEAUtm@@@Z 000000018009c0e4 f i libcpmt:xlocale.obj
 0001:0009b38c       ?do_get_weekday@?$time_get@DV?$istreambuf_iterator@DU?$char_traits@D@std@@@std@@@std@@MEBA?AV?$istreambuf_iterator@DU?$char_traits@D@std@@@2@V32@0AEAVios_base@2@AEAHPEAUtm@@@Z 000000018009c38c f i libcpmt:xlocale.obj
 0001:0009b3e8       ?do_get_year@?$time_get@DV?$istreambuf_iterator@DU?$char_traits@D@std@@@std@@@std@@MEBA?AV?$istreambuf_iterator@DU?$char_traits@D@std@@@2@V32@0AEAVios_base@2@AEAHPEAUtm@@@Z 000000018009c3e8 f i libcpmt:xlocale.obj
 0001:0009b4fc       ?do_hash@?$collate@D@std@@MEBAJPEBD0@Z 000000018009c4fc f i libcpmt:xlocale.obj
 0001:0009b50c       ?do_negative_sign@?$_Mpunct@D@std@@MEBA?AV?$basic_string@DU?$char_traits@D@std@@V?$allocator@D@2@@2@XZ 000000018009c50c f i libcpmt:xlocale.obj
 0001:0009b540       ?do_positive_sign@?$_Mpunct@D@std@@MEBA?AV?$basic_string@DU?$char_traits@D@std@@V?$allocator@D@2@@2@XZ 000000018009c540 f i libcpmt:xlocale.obj
 0001:0009b574       ?do_put@?$money_put@DV?$ostreambuf_iterator@DU?$char_traits@D@std@@@std@@@std@@MEBA?AV?$ostreambuf_iterator@DU?$char_traits@D@std@@@2@V32@_NAEAVios_base@2@DAEBV?$basic_string@DU?$char_traits@D@std@@V?$allocator@D@2@@2@@Z 000000018009c574 f i libcpmt:xlocale.obj
 0001:0009b7ec       ?do_put@?$money_put@DV?$ostreambuf_iterator@DU?$char_traits@D@std@@@std@@@std@@MEBA?AV?$ostreambuf_iterator@DU?$char_traits@D@std@@@2@V32@_NAEAVios_base@2@DO@Z 000000018009c7ec f i libcpmt:xlocale.obj
 0001:0009ba5c       ?do_put@?$time_put@DV?$ostreambuf_iterator@DU?$char_traits@D@std@@@std@@@std@@MEBA?AV?$ostreambuf_iterator@DU?$char_traits@D@std@@@2@V32@AEAVios_base@2@DPEBUtm@@DD@Z 000000018009ca5c f i libcpmt:xlocale.obj
 0001:0009bbc4       ?do_thousands_sep@?$_Mpunct@D@std@@MEBADXZ 000000018009cbc4 f i libcpmt:xlocale.obj
 0001:0009bbc8       ?do_transform@?$collate@D@std@@MEBA?AV?$basic_string@DU?$char_traits@D@std@@V?$allocator@D@2@@2@PEBD0@Z 000000018009cbc8 f i libcpmt:xlocale.obj
 0001:0009bcd0       _Stolx                     000000018009ccd0 f   libcpmt:xstol.obj
 0001:0009bdb0       _Stoulx                    000000018009cdb0 f   libcpmt:xstoul.obj
 0001:0009bfa0       _Stollx                    000000018009cfa0 f   libcpmt:xstoll.obj
 0001:0009c090       _Stoullx                   000000018009d090 f   libcpmt:xstoull.obj
 0001:0009c288       __crtLCMapStringA          000000018009d288 f   libcpmt:StlLCMapStringA.obj
 0001:0009c940       _Getcoll                   000000018009d940 f   libcpmt:xstrcoll.obj
 0001:0009c974       _Strcoll                   000000018009d974 f   libcpmt:xstrcoll.obj
 0001:0009ca44       _Getdateorder              000000018009da44 f   libcpmt:xdateord.obj
 0001:0009ca9c       _Wcscoll                   000000018009da9c f   libcpmt:xwcscoll.obj
 0001:0009cb80       _Wcsxfrm                   000000018009db80 f   libcpmt:xwcsxfrm.obj
 0001:0009cc90       _Getwctype                 000000018009dc90 f   libcpmt:xgetwctype.obj
 0001:0009ccc0       _Getwctypes                000000018009dcc0 f   libcpmt:xgetwctype.obj
 0001:0009ccf0       _Towlower                  000000018009dcf0 f   libcpmt:xtowlower.obj
 0001:0009cd64       _Towupper                  000000018009dd64 f   libcpmt:xtowupper.obj
 0001:0009cddc       _Strxfrm                   000000018009dddc f   libcpmt:xstrxfrm.obj
 0001:0009cedc       __crtCompareStringA        000000018009dedc f   libcpmt:StlCompareStringA.obj
 0001:0009d250       __crtCompareStringW        000000018009e250 f   libcpmt:StlCompareStringW.obj
 0001:0009d310       __crtLCMapStringW          000000018009e310 f   libcpmt:StlLCMapStringW.obj
 0001:0009d3b0       __security_check_cookie    000000018009e3b0 f   LIBCMT:amdsecgs.obj
 0001:0009d3d0       ??2@YAPEAX_K@Z             000000018009e3d0 f   LIBCMT:new_scalar.obj
 0001:0009d40c       ??3@YAXPEAX_K@Z            000000018009e40c f   LIBCMT:delete_scalar_size.obj
 0001:0009d40c       ??_V@YAXPEAX@Z             000000018009e40c f   LIBCMT:delete_array.obj
 0001:0009d414       ??_Etype_info@@UEAAPEAXI@Z 000000018009e414 f i LIBCMT:std_type_info_static.obj
 0001:0009d414       ??_Gtype_info@@UEAAPEAXI@Z 000000018009e414 f i LIBCMT:std_type_info_static.obj
 0001:0009d538       _Init_thread_abort         000000018009e538 f   LIBCMT:thread_safe_statics.obj
 0001:0009d568       _Init_thread_footer        000000018009e568 f   LIBCMT:thread_safe_statics.obj
 0001:0009d5c8       _Init_thread_header        000000018009e5c8 f   LIBCMT:thread_safe_statics.obj
 0001:0009d630       _Init_thread_notify        000000018009e630 f   LIBCMT:thread_safe_statics.obj
 0001:0009d674       _Init_thread_wait          000000018009e674 f   LIBCMT:thread_safe_statics.obj
 0001:0009d6d8       ?__scrt_initialize_type_info@@YAXXZ 000000018009e6d8 f   LIBCMT:tncleanup.obj
 0001:0009d6e8       ?__scrt_uninitialize_type_info@@YAXXZ 000000018009e6e8 f   LIBCMT:tncleanup.obj
 0001:0009d6f4       ??_M@YAXPEAX_K1P6AX0@Z@Z   000000018009e6f4 f   LIBCMT:ehvecdtr.obj
 0001:0009d760       ?__ArrayUnwind@@YAXPEAX_K1P6AX0@Z@Z 000000018009e760 f   LIBCMT:ehvecdtr.obj
 0001:0009d7c4       __scrt_acquire_startup_lock 000000018009e7c4 f   LIBCMT:utility.obj
 0001:0009d800       __scrt_dllmain_after_initialize_c 000000018009e800 f   LIBCMT:utility.obj
 0001:0009d834       __scrt_dllmain_before_initialize_c 000000018009e834 f   LIBCMT:utility.obj
 0001:0009d84c       __scrt_dllmain_crt_thread_attach 000000018009e84c f   LIBCMT:utility.obj
 0001:0009d874       __scrt_dllmain_crt_thread_detach 000000018009e874 f   LIBCMT:utility.obj
 0001:0009d88c       __scrt_dllmain_exception_filter 000000018009e88c f   LIBCMT:utility.obj
 0001:0009d8ec       __scrt_dllmain_uninitialize_c 000000018009e8ec f   LIBCMT:utility.obj
 0001:0009d91c       __scrt_dllmain_uninitialize_critical 000000018009e91c f   LIBCMT:utility.obj
 0001:0009d930       __scrt_initialize_crt      000000018009e930 f   LIBCMT:utility.obj
 0001:0009d97c       __scrt_initialize_onexit_tables 000000018009e97c f   LIBCMT:utility.obj
 0001:0009da08       __scrt_is_nonwritable_in_current_image 000000018009ea08 f   LIBCMT:utility.obj
 0001:0009daa0       __scrt_release_startup_lock 000000018009eaa0 f   LIBCMT:utility.obj
 0001:0009dac4       __scrt_uninitialize_crt    000000018009eac4 f   LIBCMT:utility.obj
 0001:0009daf0       _onexit                    000000018009eaf0 f   LIBCMT:utility.obj
 0001:0009db2c       atexit                     000000018009eb2c f   LIBCMT:utility.obj
 0001:0009db44       ??_U@YAPEAX_K@Z            000000018009eb44 f   LIBCMT:new_array.obj
 0001:0009de6c       _DllMainCRTStartup         000000018009ee6c f   LIBCMT:dll_dllmain.obj
 0001:0009deac       __GSHandlerCheck           000000018009eeac f   LIBCMT:gshandler.obj
 0001:0009decc       __GSHandlerCheckCommon     000000018009eecc f   LIBCMT:gshandler.obj
 0001:0009df28       __GSHandlerCheck_EH4       000000018009ef28 f   LIBCMT:gshandlereh4.obj
 0001:0009dfa8       __isa_available_init       000000018009efa8 f   LIBCMT:cpu_disp.obj
 0001:0009e160       _alloca_probe              000000018009f160 f   LIBCMT:chkstk.obj
 0001:0009e160       __chkstk                   000000018009f160 f   LIBCMT:chkstk.obj
 0001:0009e1b0       __raise_securityfailure    000000018009f1b0 f   LIBCMT:gs_report.obj
 0001:0009e1e4       __report_gsfailure         000000018009f1e4 f   LIBCMT:gs_report.obj
 0001:0009e2b8       __report_rangecheckfailure 000000018009f2b8 f   LIBCMT:gs_report.obj
 0001:0009e2cc       __report_securityfailure   000000018009f2cc f   LIBCMT:gs_report.obj
 0001:0009e44c       __crt_debugger_hook        000000018009f44c f   LIBCMT:utility_desktop.obj
 0001:0009e454       __scrt_fastfail            000000018009f454 f   LIBCMT:utility_desktop.obj
 0001:0009e5a0       __scrt_is_ucrt_dll_in_use  000000018009f5a0 f   LIBCMT:ucrt_detection.obj
 0001:0009e5ac       __security_init_cookie     000000018009f5ac f   LIBCMT:gs_support.obj
 0001:0009e658       __local_stdio_scanf_options 000000018009f658 f i LIBCMT:default_local_stdio_options.obj
 0001:0009e660       __scrt_initialize_default_local_stdio_options 000000018009f660 f   LIBCMT:default_local_stdio_options.obj
 0001:0009e67c       __scrt_get_dyn_tls_init_callback 000000018009f67c f   LIBCMT:dyn_tls_init.obj
 0001:0009e684       _RTC_Initialize            000000018009f684 f   LIBCMT:initsect.obj
 0001:0009e6c0       _RTC_Terminate             000000018009f6c0 f   LIBCMT:initsect.obj
 0001:0009e700       ??$_CallSETranslator@V__FrameHandler3@@@@YAHPEAUEHExceptionRecord@@PEA_KPEAU_CONTEXT@@PEAU_xDISPATCHER_CONTEXT@@PEBU_s_FuncInfo@@K1H@Z 000000018009f700 f i libvcruntime:risctrnsctrl.obj
 0001:0009e754       ??$_CallSETranslator@V__FrameHandler4@@@@YAHPEAUEHExceptionRecord@@PEA_KPEAU_CONTEXT@@PEAU_xDISPATCHER_CONTEXT@@PEAUFuncInfo4@FH4@@K1H@Z 000000018009f754 f i libvcruntime:risctrnsctrl.obj
 0001:0009e7a8       ?CatchTryBlock@__FrameHandler3@@SAPEBU_s_TryBlockMapEntry@@PEBU_s_FuncInfo@@H@Z 000000018009f7a8 f   libvcruntime:risctrnsctrl.obj
 0001:0009e7fc       ?DecompFuncInfo@FH4@@YA_JPEAEAEAUFuncInfo4@1@_KH_N@Z 000000018009f7fc f i libvcruntime:risctrnsctrl.obj
 0001:0009e920       ?ExecutionInCatch@__FrameHandler3@@SA_NPEAU_xDISPATCHER_CONTEXT@@PEBU_s_FuncInfo@@@Z 000000018009f920 f   libvcruntime:risctrnsctrl.obj
 0001:0009e94c       ?ExecutionInCatch@__FrameHandler4@@SA_NPEAU_xDISPATCHER_CONTEXT@@PEAUFuncInfo4@FH4@@@Z 000000018009f94c f   libvcruntime:risctrnsctrl.obj
 0001:0009e954       ?FrameUnwindToEmptyState@__FrameHandler3@@SAXPEA_KPEAU_xDISPATCHER_CONTEXT@@PEBU_s_FuncInfo@@@Z 000000018009f954 f   libvcruntime:risctrnsctrl.obj
 0001:0009e9b8       ?FrameUnwindToEmptyState@__FrameHandler4@@SAXPEA_KPEAU_xDISPATCHER_CONTEXT@@PEAUFuncInfo4@FH4@@@Z 000000018009f9b8 f   libvcruntime:risctrnsctrl.obj
 0001:0009e9ec       ?GetEstablisherFrame@__FrameHandler3@@SAPEA_KPEA_KPEAU_xDISPATCHER_CONTEXT@@PEBU_s_FuncInfo@@0@Z 000000018009f9ec f   libvcruntime:risctrnsctrl.obj
 0001:0009eab8       ?GetEstablisherFrame@__FrameHandler4@@SAPEA_KPEA_KPEAU_xDISPATCHER_CONTEXT@@PEAUFuncInfo4@FH4@@0@Z 000000018009fab8 f   libvcruntime:risctrnsctrl.obj
 0001:0009eadc       ?GetRangeOfTrysToCheck@__FrameHandler3@@SA?AU?$pair@Viterator@TryBlockMap@__FrameHandler3@@V123@@std@@AEAVTryBlockMap@1@HPEAU_xDISPATCHER_CONTEXT@@PEBU_s_FuncInfo@@H@Z 000000018009fadc f   libvcruntime:risctrnsctrl.obj
 0001:0009ec1c       ?GetRangeOfTrysToCheck@__FrameHandler4@@SA?AU?$pair@Viterator@TryBlockMap4@FH4@@V123@@std@@AEAVTryBlockMap4@FH4@@HPEAU_xDISPATCHER_CONTEXT@@PEAUFuncInfo4@5@H@Z 000000018009fc1c f   libvcruntime:risctrnsctrl.obj
 0001:0009ed84       ?UnwindNestedFrames@__FrameHandler3@@SAXPEA_KPEAUEHExceptionRecord@@PEAU_CONTEXT@@0PEAXPEBU_s_FuncInfo@@HHPEBU_s_HandlerType@@PEAU_xDISPATCHER_CONTEXT@@E@Z 000000018009fd84 f   libvcruntime:risctrnsctrl.obj
 0001:0009ee88       ?UnwindNestedFrames@__FrameHandler4@@SAXPEA_KPEAUEHExceptionRecord@@PEAU_CONTEXT@@0PEAXPEAUFuncInfo4@FH4@@HHPEAUHandlerType4@5@PEAU_xDISPATCHER_CONTEXT@@E@Z 000000018009fe88 f   libvcruntime:risctrnsctrl.obj
 0001:0009efa8       ?setBuffer@TryBlockMap4@FH4@@QEAAXViterator@12@@Z 000000018009ffa8 f i libvcruntime:risctrnsctrl.obj
 0001:0009f168       _CreateFrameInfo           00000001800a0168 f   libvcruntime:risctrnsctrl.obj
 0001:0009f1a4       _FindAndUnlinkFrame        00000001800a01a4 f   libvcruntime:risctrnsctrl.obj
 0001:0009f1f8       _GetImageBase              00000001800a01f8 f   libvcruntime:risctrnsctrl.obj
 0001:0009f20c       _GetThrowImageBase         00000001800a020c f   libvcruntime:risctrnsctrl.obj
 0001:0009f220       _SetImageBase              00000001800a0220 f   libvcruntime:risctrnsctrl.obj
 0001:0009f238       _SetThrowImageBase         00000001800a0238 f   libvcruntime:risctrnsctrl.obj
 0001:0009f250       __CxxFrameHandler3         00000001800a0250 f   libvcruntime:risctrnsctrl.obj
 0001:0009f2d8       __CxxFrameHandler4         00000001800a02d8 f   libvcruntime:risctrnsctrl.obj
 0001:0009f398       __DestructExceptionObject  00000001800a0398 f   libvcruntime:ehhelpers.obj
 0001:0009f408       _IsExceptionObjectToBeDestroyed 00000001800a0408 f   libvcruntime:ehhelpers.obj
 0001:0009f438       __AdjustPointer            00000001800a0438 f   libvcruntime:ehhelpers.obj
 0001:0009f45c       __FrameUnwindFilter        00000001800a045c f   libvcruntime:ehhelpers.obj
 0001:0009f4c4       __current_exception        00000001800a04c4 f   libvcruntime:ehhelpers.obj
 0001:0009f4d8       __current_exception_context 00000001800a04d8 f   libvcruntime:ehhelpers.obj
 0001:0009f4ec       __std_terminate            00000001800a04ec f   libvcruntime:ehhelpers.obj
 0001:0009f4f8       __std_exception_copy       00000001800a04f8 f   libvcruntime:std_exception.obj
 0001:0009f588       __std_exception_destroy    00000001800a0588 f   libvcruntime:std_exception.obj
 0001:0009f5b0       __C_specific_handler       00000001800a05b0 f   libvcruntime:riscchandler.obj
 0001:0009f7bc       __std_type_info_compare    00000001800a07bc f   libvcruntime:std_type_info.obj
 0001:0009f7e4       __std_type_info_destroy_list 00000001800a07e4 f   libvcruntime:std_type_info.obj
 0001:0009f810       _get_purecall_handler      00000001800a0810 f   libvcruntime:purevirt.obj
 0001:0009f81c       _purecall                  00000001800a081c f   libvcruntime:purevirt.obj
 0001:0009f850       memcpy_repmovs             00000001800a0850 f   libvcruntime:memcpy.obj
 0001:0009f870       memmove                    00000001800a0870 f   libvcruntime:memcpy.obj
 0001:0009f870       memcpy                     00000001800a0870 f   libvcruntime:memcpy.obj
 0001:0009ff00       memset_repmovs             00000001800a0f00 f   libvcruntime:memset.obj
 0001:0009ff20       memset                     00000001800a0f20 f   libvcruntime:memset.obj
 0001:000a00b0       _CxxThrowException         00000001800a10b0 f   libvcruntime:throw.obj
 0001:000a0160       memcmp                     00000001800a1160 f   libvcruntime:memcmp.obj
 0001:000a0228       __uncaught_exceptions      00000001800a1228 f   libvcruntime:uncaught_exceptions.obj
 0001:000a0260       memchr                     00000001800a1260 f   libvcruntime:memchr.obj
 0001:000a02d0       __vcrt_initialize          00000001800a12d0 f   libvcruntime:initialization.obj
 0001:000a02f8       __vcrt_thread_attach       00000001800a12f8 f   libvcruntime:initialization.obj
 0001:000a030c       __vcrt_thread_detach       00000001800a130c f   libvcruntime:initialization.obj
 0001:000a0320       __vcrt_uninitialize        00000001800a1320 f   libvcruntime:initialization.obj
 0001:000a033c       __vcrt_uninitialize_critical 00000001800a133c f   libvcruntime:initialization.obj
 0001:000a034c       __vcrt_freefls             00000001800a134c f   libvcruntime:per_thread_data.obj
 0001:000a036c       __vcrt_freeptd             00000001800a136c f   libvcruntime:per_thread_data.obj
 0001:000a03bc       __vcrt_getptd              00000001800a13bc f   libvcruntime:per_thread_data.obj
 0001:000a03d8       __vcrt_getptd_noexit       00000001800a13d8 f   libvcruntime:per_thread_data.obj
 0001:000a0498       __vcrt_getptd_noinit       00000001800a1498 f   libvcruntime:per_thread_data.obj
 0001:000a04e8       __vcrt_initialize_ptd      00000001800a14e8 f   libvcruntime:per_thread_data.obj
 0001:000a0530       __vcrt_uninitialize_ptd    00000001800a1530 f   libvcruntime:per_thread_data.obj
 0001:000a0554       ?GetCurrentState@__FrameHandler3@@SAHPEA_KPEAU_xDISPATCHER_CONTEXT@@PEBU_s_FuncInfo@@@Z 00000001800a1554 f   libvcruntime:ehstate.obj
 0001:000a057c       ?GetUnwindTryBlock@__FrameHandler3@@SAHPEA_KPEAU_xDISPATCHER_CONTEXT@@PEBU_s_FuncInfo@@@Z 00000001800a157c f   libvcruntime:ehstate.obj
 0001:000a05a8       ?SetState@__FrameHandler3@@SAXPEA_KPEBU_s_FuncInfo@@H@Z 00000001800a15a8 f   libvcruntime:ehstate.obj
 0001:000a05b4       ?SetUnwindTryBlock@__FrameHandler3@@SAXPEA_KPEAU_xDISPATCHER_CONTEXT@@PEBU_s_FuncInfo@@H@Z 00000001800a15b4 f   libvcruntime:ehstate.obj
 0001:000a05f0       ?StateFromControlPc@__FrameHandler3@@SAHPEBU_s_FuncInfo@@PEAU_xDISPATCHER_CONTEXT@@@Z 00000001800a15f0 f   libvcruntime:ehstate.obj
 0001:000a05f8       ?StateFromControlPc@__FrameHandler4@@SAHPEAUFuncInfo4@FH4@@PEAU_xDISPATCHER_CONTEXT@@@Z 00000001800a15f8 f   libvcruntime:ehstate.obj
 0001:000a0600       ?StateFromIp@__FrameHandler3@@SAHPEBU_s_FuncInfo@@PEAU_xDISPATCHER_CONTEXT@@_K@Z 00000001800a1600 f   libvcruntime:ehstate.obj
 0001:000a0668       ?StateFromIp@__FrameHandler4@@SAHPEAUFuncInfo4@FH4@@PEAU_xDISPATCHER_CONTEXT@@_K@Z 00000001800a1668 f   libvcruntime:ehstate.obj
 0001:000a1d4c       ??$TypeMatchHelper@V__FrameHandler3@@@@YAHPEBU_s_HandlerType@@PEBU_s_CatchableType@@PEBU_s_ThrowInfo@@@Z 00000001800a2d4c f i libvcruntime:frame.obj
 0001:000a1e8c       ??$TypeMatchHelper@V__FrameHandler4@@@@YAHPEAUHandlerType4@FH4@@PEBU_s_CatchableType@@PEBU_s_ThrowInfo@@@Z 00000001800a2e8c f i libvcruntime:frame.obj
 0001:000a1fd0       ??$__InternalCxxFrameHandler@V__FrameHandler3@@@@YA?AW4_EXCEPTION_DISPOSITION@@PEAUEHExceptionRecord@@PEA_KPEAU_CONTEXT@@PEAU_xDISPATCHER_CONTEXT@@PEBU_s_FuncInfo@@H1E@Z 00000001800a2fd0 f i libvcruntime:frame.obj
 0001:000a2208       ??$__InternalCxxFrameHandler@V__FrameHandler4@@@@YA?AW4_EXCEPTION_DISPOSITION@@PEAUEHExceptionRecord@@PEA_KPEAU_CONTEXT@@PEAU_xDISPATCHER_CONTEXT@@PEAUFuncInfo4@FH4@@H1E@Z 00000001800a3208 f i libvcruntime:frame.obj
 0001:000a249c       ??0HandlerMap4@FH4@@QEAA@PEBUTryBlockMapEntry4@1@_KH@Z 00000001800a349c f i libvcruntime:frame.obj
 0001:000a2518       ??0TryBlockMap4@FH4@@QEAA@PEBUFuncInfo4@1@_K@Z 00000001800a3518 f i libvcruntime:frame.obj
 0001:000a25f0       ?CxxCallCatchBlock@__FrameHandler3@@SAPEAXPEAU_EXCEPTION_RECORD@@@Z 00000001800a35f0 f   libvcruntime:frame.obj
 0001:000a27dc       ?CxxCallCatchBlock@__FrameHandler4@@SAPEAXPEAU_EXCEPTION_RECORD@@@Z 00000001800a37dc f   libvcruntime:frame.obj
 0001:000a2a2c       ?DecompHandler@HandlerMap4@FH4@@AEAAXXZ 00000001800a3a2c f i libvcruntime:frame.obj
 0001:000a2c6c       ?FrameUnwindToState@__FrameHandler3@@SAXPEA_KPEAU_xDISPATCHER_CONTEXT@@PEBU_s_FuncInfo@@H@Z 00000001800a3c6c f   libvcruntime:frame.obj
 0001:000a2df8       ?FrameUnwindToState@__FrameHandler4@@SAXPEA_KPEAU_xDISPATCHER_CONTEXT@@PEAUFuncInfo4@FH4@@H@Z 00000001800a3df8 f   libvcruntime:frame.obj
 0001:000a30e0       ?GetHandlerSearchState@__FrameHandler3@@SAHPEA_KPEAU_xDISPATCHER_CONTEXT@@PEBU_s_FuncInfo@@@Z 00000001800a40e0 f i libvcruntime:frame.obj
 0001:000a32f0       ?ReadEntry@UWMap4@FH4@@AEAAXPEAPEAE@Z 00000001800a42f0 f i libvcruntime:frame.obj
 0001:000a3390       ?getStartStop@UWMap4@FH4@@QEAAXHHAEAViterator@12@0@Z 00000001800a4390 f i libvcruntime:frame.obj
 0001:000a3460       ?getStateFromIterators@UWMap4@FH4@@SAHAEBViterator@12@H0H0@Z 00000001800a4460 f i libvcruntime:frame.obj
 0001:000a3540       _NLG_Notify                00000001800a4540 f   libvcruntime:notify.obj
 0001:000a3560       __NLG_Dispatch2            00000001800a4560 f   libvcruntime:notify.obj
 0001:000a3570       __NLG_Return2              00000001800a4570 f   libvcruntime:notify.obj
 0001:000a3574       __except_validate_context_record 00000001800a4574 f   libvcruntime:jbcxrval.obj
 0001:000a35ac       __vcrt_initialize_locks    00000001800a45ac f   libvcruntime:locks.obj
 0001:000a35e0       __vcrt_uninitialize_locks  00000001800a45e0 f   libvcruntime:locks.obj
 0001:000a3768       __vcrt_FlsAlloc            00000001800a4768 f   libvcruntime:winapi_downlevel.obj
 0001:000a37b0       __vcrt_FlsFree             00000001800a47b0 f   libvcruntime:winapi_downlevel.obj
 0001:000a37f8       __vcrt_FlsGetValue         00000001800a47f8 f   libvcruntime:winapi_downlevel.obj
 0001:000a3840       __vcrt_FlsSetValue         00000001800a4840 f   libvcruntime:winapi_downlevel.obj
 0001:000a3894       __vcrt_InitializeCriticalSectionEx 00000001800a4894 f   libvcruntime:winapi_downlevel.obj
 0001:000a3910       _CallSettingFrame          00000001800a4910 f   libvcruntime:handlers.obj
 0001:000a3960       _CallSettingFrame_LookupContinuationIndex 00000001800a4960 f   libvcruntime:handlers.obj
 0001:000a3990       _CallSettingFrame_NotifyContinuationAddr 00000001800a4990 f   libvcruntime:handlers.obj
 0001:000a39c0       _CallSettingFrameEncoded   00000001800a49c0 f   libvcruntime:handlers.obj
 0001:000a3a08       ??0_LocaleUpdate@@QEAA@QEAU__crt_locale_pointers@@@Z 00000001800a4a08 f i libucrt:tolower_toupper.obj
 0001:000a3aa4       ??1_LocaleUpdate@@QEAA@XZ  00000001800a4aa4 f i libucrt:tolower_toupper.obj
 0001:000a3ab8       _tolower_l                 00000001800a4ab8 f   libucrt:tolower_toupper.obj
 0001:000a3bf4       _toupper_l                 00000001800a4bf4 f   libucrt:tolower_toupper.obj
 0001:000a3d30       tolower                    00000001800a4d30 f   libucrt:tolower_toupper.obj
 0001:000a3d5c       toupper                    00000001800a4d5c f   libucrt:tolower_toupper.obj
 0001:000a3d88       __acrt_call_reportfault    00000001800a4d88 f   libucrt:invalid_parameter.obj
 0001:000a3ee4       __acrt_initialize_invalid_parameter_handler 00000001800a4ee4 f   libucrt:invalid_parameter.obj
 0001:000a3eec       _invalid_parameter         00000001800a4eec f   libucrt:invalid_parameter.obj
 0001:000a3f9c       _invalid_parameter_noinfo  00000001800a4f9c f   libucrt:invalid_parameter.obj
 0001:000a3fbc       _invalid_parameter_noinfo_noreturn 00000001800a4fbc f   libucrt:invalid_parameter.obj
 0001:000a3fec       _invoke_watson             00000001800a4fec f   libucrt:invalid_parameter.obj
 0001:000a4034       fputc                      00000001800a5034 f   libucrt:fputc.obj
 0001:000a4158       __acrt_initialize_stdio    00000001800a5158 f   libucrt:_file.obj
 0001:000a4278       __acrt_iob_func            00000001800a5278 f   libucrt:_file.obj
 0001:000a428c       __acrt_uninitialize_stdio  00000001800a528c f   libucrt:_file.obj
 0001:000a42e8       _get_stream_buffer_pointers 00000001800a52e8 f   libucrt:_file.obj
 0001:000a4330       _lock_file                 00000001800a5330 f   libucrt:_file.obj
 0001:000a433c       _unlock_file               00000001800a533c f   libucrt:_file.obj
 0001:000a4564       __acrt_stdio_flush_nolock  00000001800a5564 f   libucrt:fflush.obj
 0001:000a45e0       _fflush_nolock             00000001800a55e0 f   libucrt:fflush.obj
 0001:000a462c       _flushall                  00000001800a562c f   libucrt:fflush.obj
 0001:000a4634       fflush                     00000001800a5634 f   libucrt:fflush.obj
 0001:000a469c       _fclose_nolock             00000001800a569c f   libucrt:fclose.obj
 0001:000a4720       fclose                     00000001800a5720 f   libucrt:fclose.obj
 0001:000a4784       rand                       00000001800a5784 f   libucrt:rand.obj
 0001:000a47b0       _fgetc_nolock              00000001800a57b0 f   libucrt:fgetc.obj
 0001:000a47f4       fgetc                      00000001800a57f4 f   libucrt:fgetc.obj
 0001:000a4e68       ??$ensure_buffer_is_big_enough@D@formatting_buffer@__crt_stdio_output@@QEAA_N_K@Z 00000001800a5e68 f i libucrt:output.obj
 0001:000a4f10       ??$ensure_buffer_is_big_enough@_W@formatting_buffer@__crt_stdio_output@@QEAA_N_K@Z 00000001800a5f10 f i libucrt:output.obj
 0001:000a4fbc       ??$is_wide_character_specifier@_W@__crt_stdio_output@@YA_N_K_WW4length_modifier@0@@Z 00000001800a5fbc f i libucrt:output.obj
 0001:000a4ffc       ??$type_case_integer_parse_into_buffer@I@?$output_processor@DV?$string_output_adapter@D@__crt_stdio_output@@V?$standard_base@DV?$string_output_adapter@D@__crt_stdio_output@@@2@@__crt_stdio_output@@AEAAXII_N@Z 00000001800a5ffc f i libucrt:output.obj
 0001:000a4ffc       ??$type_case_integer_parse_into_buffer@I@?$output_processor@DV?$string_output_adapter@D@__crt_stdio_output@@V?$format_validation_base@DV?$string_output_adapter@D@__crt_stdio_output@@@2@@__crt_stdio_output@@AEAAXII_N@Z 00000001800a5ffc f i libucrt:output.obj
 0001:000a5084       ??$type_case_integer_parse_into_buffer@I@?$output_processor@_WV?$string_output_adapter@_W@__crt_stdio_output@@V?$standard_base@_WV?$string_output_adapter@_W@__crt_stdio_output@@@2@@__crt_stdio_output@@AEAAXII_N@Z 00000001800a6084 f i libucrt:output.obj
 0001:000a5128       ??$type_case_integer_parse_into_buffer@_K@?$output_processor@DV?$string_output_adapter@D@__crt_stdio_output@@V?$standard_base@DV?$string_output_adapter@D@__crt_stdio_output@@@2@@__crt_stdio_output@@AEAAX_KI_N@Z 00000001800a6128 f i libucrt:output.obj
 0001:000a5128       ??$type_case_integer_parse_into_buffer@_K@?$output_processor@DV?$string_output_adapter@D@__crt_stdio_output@@V?$format_validation_base@DV?$string_output_adapter@D@__crt_stdio_output@@@2@@__crt_stdio_output@@AEAAX_KI_N@Z 00000001800a6128 f i libucrt:output.obj
 0001:000a51b8       ??$type_case_integer_parse_into_buffer@_K@?$output_processor@_WV?$string_output_adapter@_W@__crt_stdio_output@@V?$standard_base@_WV?$string_output_adapter@_W@__crt_stdio_output@@@2@@__crt_stdio_output@@AEAAX_KI_N@Z 00000001800a61b8 f i libucrt:output.obj
 0001:000a525c       ??$write_multiple_characters@V?$string_output_adapter@D@__crt_stdio_output@@D@__crt_stdio_output@@YAXAEBV?$string_output_adapter@D@0@DHQEAH@Z 00000001800a625c f i libucrt:output.obj
 0001:000a52d4       ??$write_multiple_characters@V?$string_output_adapter@_W@__crt_stdio_output@@D@__crt_stdio_output@@YAXAEBV?$string_output_adapter@_W@0@DHQEAH@Z 00000001800a62d4 f i libucrt:output.obj
 0001:000a5350       ?crop_zeroes@__crt_stdio_output@@YAXPEADQEAU__crt_locale_pointers@@@Z 00000001800a6350 f i libucrt:output.obj
 0001:000a53f0       ?force_decimal_point@__crt_stdio_output@@YAXPEADQEAU__crt_locale_pointers@@@Z 00000001800a63f0 f i libucrt:output.obj
 0001:000a5468       ?parse_int_from_format_string@?$output_processor@DV?$string_output_adapter@D@__crt_stdio_output@@V?$format_validation_base@DV?$string_output_adapter@D@__crt_stdio_output@@@2@@__crt_stdio_output@@AEAA_NQEAH@Z 00000001800a6468 f i libucrt:output.obj
 0001:000a5468       ?parse_int_from_format_string@?$output_processor@DV?$string_output_adapter@D@__crt_stdio_output@@V?$standard_base@DV?$string_output_adapter@D@__crt_stdio_output@@@2@@__crt_stdio_output@@AEAA_NQEAH@Z 00000001800a6468 f i libucrt:output.obj
 0001:000a550c       ?parse_int_from_format_string@?$output_processor@_WV?$string_output_adapter@_W@__crt_stdio_output@@V?$standard_base@_WV?$string_output_adapter@_W@__crt_stdio_output@@@2@@__crt_stdio_output@@AEAA_NQEAH@Z 00000001800a650c f i libucrt:output.obj
 0001:000a55b0       ?process@?$output_processor@DV?$string_output_adapter@D@__crt_stdio_output@@V?$format_validation_base@DV?$string_output_adapter@D@__crt_stdio_output@@@2@@__crt_stdio_output@@QEAAHXZ 00000001800a65b0 f i libucrt:output.obj
 0001:000a57c4       ?process@?$output_processor@DV?$string_output_adapter@D@__crt_stdio_output@@V?$standard_base@DV?$string_output_adapter@D@__crt_stdio_output@@@2@@__crt_stdio_output@@QEAAHXZ 00000001800a67c4 f i libucrt:output.obj
 0001:000a59cc       ?process@?$output_processor@_WV?$string_output_adapter@_W@__crt_stdio_output@@V?$standard_base@_WV?$string_output_adapter@_W@__crt_stdio_output@@@2@@__crt_stdio_output@@QEAAHXZ 00000001800a69cc f i libucrt:output.obj
 0001:000a5c38       ?state_case_normal@?$output_processor@DV?$string_output_adapter@D@__crt_stdio_output@@V?$format_validation_base@DV?$string_output_adapter@D@__crt_stdio_output@@@2@@__crt_stdio_output@@AEAA_NXZ 00000001800a6c38 f i libucrt:output.obj
 0001:000a5c38       ?state_case_normal@?$output_processor@DV?$string_output_adapter@D@__crt_stdio_output@@V?$standard_base@DV?$string_output_adapter@D@__crt_stdio_output@@@2@@__crt_stdio_output@@AEAA_NXZ 00000001800a6c38 f i libucrt:output.obj
 0001:000a5cac       ?state_case_normal_tchar@?$output_processor@DV?$string_output_adapter@D@__crt_stdio_output@@V?$standard_base@DV?$string_output_adapter@D@__crt_stdio_output@@@2@@__crt_stdio_output@@AEAA_ND@Z 00000001800a6cac f i libucrt:output.obj
 0001:000a5cac       ?state_case_normal_tchar@?$output_processor@DV?$string_output_adapter@D@__crt_stdio_output@@V?$format_validation_base@DV?$string_output_adapter@D@__crt_stdio_output@@@2@@__crt_stdio_output@@AEAA_ND@Z 00000001800a6cac f i libucrt:output.obj
 0001:000a5d54       ?state_case_size@?$output_processor@DV?$string_output_adapter@D@__crt_stdio_output@@V?$format_validation_base@DV?$string_output_adapter@D@__crt_stdio_output@@@2@@__crt_stdio_output@@AEAA_NXZ 00000001800a6d54 f i libucrt:output.obj
 0001:000a5d54       ?state_case_size@?$output_processor@DV?$string_output_adapter@D@__crt_stdio_output@@V?$standard_base@DV?$string_output_adapter@D@__crt_stdio_output@@@2@@__crt_stdio_output@@AEAA_NXZ 00000001800a6d54 f i libucrt:output.obj
 0001:000a5ec4       ?state_case_size@?$output_processor@_WV?$string_output_adapter@_W@__crt_stdio_output@@V?$standard_base@_WV?$string_output_adapter@_W@__crt_stdio_output@@@2@@__crt_stdio_output@@AEAA_NXZ 00000001800a6ec4 f i libucrt:output.obj
 0001:000a6058       ?state_case_type@?$output_processor@DV?$string_output_adapter@D@__crt_stdio_output@@V?$standard_base@DV?$string_output_adapter@D@__crt_stdio_output@@@2@@__crt_stdio_output@@AEAA_NXZ 00000001800a7058 f i libucrt:output.obj
 0001:000a6058       ?state_case_type@?$output_processor@DV?$string_output_adapter@D@__crt_stdio_output@@V?$format_validation_base@DV?$string_output_adapter@D@__crt_stdio_output@@@2@@__crt_stdio_output@@AEAA_NXZ 00000001800a7058 f i libucrt:output.obj
 0001:000a62c0       ?state_case_type@?$output_processor@_WV?$string_output_adapter@_W@__crt_stdio_output@@V?$standard_base@_WV?$string_output_adapter@_W@__crt_stdio_output@@@2@@__crt_stdio_output@@AEAA_NXZ 00000001800a72c0 f i libucrt:output.obj
 0001:000a6590       ?to_integer_size@__crt_stdio_output@@YA_KW4length_modifier@1@@Z 00000001800a7590 f i libucrt:output.obj
 0001:000a65f8       ?type_case_Z@?$output_processor@DV?$string_output_adapter@D@__crt_stdio_output@@V?$format_validation_base@DV?$string_output_adapter@D@__crt_stdio_output@@@2@@__crt_stdio_output@@AEAA_NXZ 00000001800a75f8 f i libucrt:output.obj
 0001:000a65f8       ?type_case_Z@?$output_processor@DV?$string_output_adapter@D@__crt_stdio_output@@V?$standard_base@DV?$string_output_adapter@D@__crt_stdio_output@@@2@@__crt_stdio_output@@AEAA_NXZ 00000001800a75f8 f i libucrt:output.obj
 0001:000a666c       ?type_case_Z@?$output_processor@_WV?$string_output_adapter@_W@__crt_stdio_output@@V?$standard_base@_WV?$string_output_adapter@_W@__crt_stdio_output@@@2@@__crt_stdio_output@@AEAA_NXZ 00000001800a766c f i libucrt:output.obj
 0001:000a66e8       ?type_case_a@?$output_processor@DV?$string_output_adapter@D@__crt_stdio_output@@V?$standard_base@DV?$string_output_adapter@D@__crt_stdio_output@@@2@@__crt_stdio_output@@AEAA_NXZ 00000001800a76e8 f i libucrt:output.obj
 0001:000a66e8       ?type_case_a@?$output_processor@DV?$string_output_adapter@D@__crt_stdio_output@@V?$format_validation_base@DV?$string_output_adapter@D@__crt_stdio_output@@@2@@__crt_stdio_output@@AEAA_NXZ 00000001800a76e8 f i libucrt:output.obj
 0001:000a68a4       ?type_case_a@?$output_processor@_WV?$string_output_adapter@_W@__crt_stdio_output@@V?$standard_base@_WV?$string_output_adapter@_W@__crt_stdio_output@@@2@@__crt_stdio_output@@AEAA_NXZ 00000001800a78a4 f i libucrt:output.obj
 0001:000a6a84       ?type_case_c_tchar@?$output_processor@DV?$string_output_adapter@D@__crt_stdio_output@@V?$format_validation_base@DV?$string_output_adapter@D@__crt_stdio_output@@@2@@__crt_stdio_output@@AEAA_ND@Z 00000001800a7a84 f i libucrt:output.obj
 0001:000a6a84       ?type_case_c_tchar@?$output_processor@DV?$string_output_adapter@D@__crt_stdio_output@@V?$standard_base@DV?$string_output_adapter@D@__crt_stdio_output@@@2@@__crt_stdio_output@@AEAA_ND@Z 00000001800a7a84 f i libucrt:output.obj
 0001:000a6b4c       ?type_case_c_tchar@?$output_processor@_WV?$string_output_adapter@_W@__crt_stdio_output@@V?$standard_base@_WV?$string_output_adapter@_W@__crt_stdio_output@@@2@@__crt_stdio_output@@AEAA_N_W@Z 00000001800a7b4c f i libucrt:output.obj
 0001:000a6bf4       ?type_case_integer@?$output_processor@DV?$string_output_adapter@D@__crt_stdio_output@@V?$standard_base@DV?$string_output_adapter@D@__crt_stdio_output@@@2@@__crt_stdio_output@@AEAA_NI_N@Z 00000001800a7bf4 f i libucrt:output.obj
 0001:000a6bf4       ?type_case_integer@?$output_processor@DV?$string_output_adapter@D@__crt_stdio_output@@V?$format_validation_base@DV?$string_output_adapter@D@__crt_stdio_output@@@2@@__crt_stdio_output@@AEAA_NI_N@Z 00000001800a7bf4 f i libucrt:output.obj
 0001:000a6d74       ?type_case_integer@?$output_processor@_WV?$string_output_adapter@_W@__crt_stdio_output@@V?$standard_base@_WV?$string_output_adapter@_W@__crt_stdio_output@@@2@@__crt_stdio_output@@AEAA_NI_N@Z 00000001800a7d74 f i libucrt:output.obj
 0001:000a6efc       ?type_case_n@?$output_processor@DV?$string_output_adapter@D@__crt_stdio_output@@V?$standard_base@DV?$string_output_adapter@D@__crt_stdio_output@@@2@@__crt_stdio_output@@AEAA_NXZ 00000001800a7efc f i libucrt:output.obj
 0001:000a6efc       ?type_case_n@?$output_processor@DV?$string_output_adapter@D@__crt_stdio_output@@V?$format_validation_base@DV?$string_output_adapter@D@__crt_stdio_output@@@2@@__crt_stdio_output@@AEAA_NXZ 00000001800a7efc f i libucrt:output.obj
 0001:000a6efc       ?type_case_n@?$output_processor@_WV?$string_output_adapter@_W@__crt_stdio_output@@V?$standard_base@_WV?$string_output_adapter@_W@__crt_stdio_output@@@2@@__crt_stdio_output@@AEAA_NXZ 00000001800a7efc f i libucrt:output.obj
 0001:000a6f84       ?type_case_s@?$output_processor@DV?$string_output_adapter@D@__crt_stdio_output@@V?$format_validation_base@DV?$string_output_adapter@D@__crt_stdio_output@@@2@@__crt_stdio_output@@AEAA_NXZ 00000001800a7f84 f i libucrt:output.obj
 0001:000a6f84       ?type_case_s@?$output_processor@DV?$string_output_adapter@D@__crt_stdio_output@@V?$standard_base@DV?$string_output_adapter@D@__crt_stdio_output@@@2@@__crt_stdio_output@@AEAA_NXZ 00000001800a7f84 f i libucrt:output.obj
 0001:000a701c       ?type_case_s@?$output_processor@_WV?$string_output_adapter@_W@__crt_stdio_output@@V?$standard_base@_WV?$string_output_adapter@_W@__crt_stdio_output@@@2@@__crt_stdio_output@@AEAA_NXZ 00000001800a801c f i libucrt:output.obj
 0001:000a70e4       ?write_stored_string_tchar@?$output_processor@DV?$string_output_adapter@D@__crt_stdio_output@@V?$format_validation_base@DV?$string_output_adapter@D@__crt_stdio_output@@@2@@__crt_stdio_output@@AEAA_ND@Z 00000001800a80e4 f i libucrt:output.obj
 0001:000a70e4       ?write_stored_string_tchar@?$output_processor@DV?$string_output_adapter@D@__crt_stdio_output@@V?$standard_base@DV?$string_output_adapter@D@__crt_stdio_output@@@2@@__crt_stdio_output@@AEAA_ND@Z 00000001800a80e4 f i libucrt:output.obj
 0001:000a71c0       ?write_stored_string_tchar@?$output_processor@_WV?$string_output_adapter@_W@__crt_stdio_output@@V?$standard_base@_WV?$string_output_adapter@_W@__crt_stdio_output@@@2@@__crt_stdio_output@@AEAA_N_W@Z 00000001800a81c0 f i libucrt:output.obj
 0001:000a72a8       ?write_string@?$string_output_adapter@D@__crt_stdio_output@@QEBAXQEBDHQEAHAEAV__crt_deferred_errno_cache@@@Z 00000001800a82a8 f i libucrt:output.obj
 0001:000a734c       ?write_string@?$string_output_adapter@_W@__crt_stdio_output@@QEBAXQEB_WHQEAHAEAV__crt_deferred_errno_cache@@@Z 00000001800a834c f i libucrt:output.obj
 0001:000a73f4       __stdio_common_vsprintf    00000001800a83f4 f   libucrt:output.obj
 0001:000a73fc       __stdio_common_vsprintf_s  00000001800a83fc f   libucrt:output.obj
 0001:000a7460       __stdio_common_vswprintf   00000001800a8460 f   libucrt:output.obj
 0001:000a750c       _fwrite_nolock             00000001800a850c f   libucrt:fwrite.obj
 0001:000a76b8       fwrite                     00000001800a86b8 f   libucrt:fwrite.obj
 0001:000a7750       strlen                     00000001800a8750 f   libucrt:strlen.obj
 0001:000a77f8       __acrt_errno_from_os_error 00000001800a87f8 f   libucrt:errno.obj
 0001:000a7840       __acrt_errno_map_os_error  00000001800a8840 f   libucrt:errno.obj
 0001:000a7890       __doserrno                 00000001800a8890 f   libucrt:errno.obj
 0001:000a78b0       _errno                     00000001800a88b0 f   libucrt:errno.obj
 0001:000a78d0       fgetpos                    00000001800a88d0 f   libucrt:fgetpos.obj
 0001:000a7a40       setvbuf                    00000001800a8a40 f   libucrt:setvbuf.obj
 0001:000a7adc       free                       00000001800a8adc f   libucrt:free.obj
 0001:000a7af0       _ungetc_nolock             00000001800a8af0 f   libucrt:ungetc.obj
 0001:000a7c18       ungetc                     00000001800a8c18 f   libucrt:ungetc.obj
 0001:000a7c70       fsetpos                    00000001800a8c70 f   libucrt:fsetpos.obj
 0001:000a7ca8       _fread_nolock_s            00000001800a8ca8 f   libucrt:fread.obj
 0001:000a7f08       fread                      00000001800a8f08 f   libucrt:fread.obj
 0001:000a7f28       fread_s                    00000001800a8f28 f   libucrt:fread.obj
 0001:000a81d8       _fseeki64                  00000001800a91d8 f   libucrt:fseek.obj
 0001:000a81e0       fseek                      00000001800a91e0 f   libucrt:fseek.obj
 0001:000a81e8       malloc                     00000001800a91e8 f   libucrt:malloc.obj
 0001:000a81f0       fmaxf                      00000001800a91f0 f   libucrt:fmaxf.obj
 0001:000a8254       fminf                      00000001800a9254 f   libucrt:fminf.obj
 0001:000a82b8       _dclass                    00000001800a92b8 f   libucrt:nan.obj
 0001:000a82d4       _dsign                     00000001800a92d4 f   libucrt:nan.obj
 0001:000a843c       ??$parse_floating_point@V?$c_string_character_source@D@__crt_strtox@@M@__crt_strtox@@YA?AW4SLD_STATUS@@QEAU__crt_locale_pointers@@V?$c_string_character_source@D@0@QEAM@Z 00000001800a943c f i libucrt:strtod.obj
 0001:000a84dc       ??$parse_floating_point@V?$c_string_character_source@D@__crt_strtox@@N@__crt_strtox@@YA?AW4SLD_STATUS@@QEAU__crt_locale_pointers@@V?$c_string_character_source@D@0@QEAN@Z 00000001800a94dc f i libucrt:strtod.obj
 0001:000a857c       ??$parse_floating_point_from_source@V?$c_string_character_source@D@__crt_strtox@@@__crt_strtox@@YA?AW4floating_point_parse_result@0@QEAU__crt_locale_pointers@@AEAV?$c_string_character_source@D@0@AEAUfloating_point_string@0@@Z 00000001800a957c f i libucrt:strtod.obj
 0001:000a8a2c       ??$parse_floating_point_possible_infinity@DV?$c_string_character_source@D@__crt_strtox@@PEBD@__crt_strtox@@YA?AW4floating_point_parse_result@0@AEADAEAV?$c_string_character_source@D@0@PEBD@Z 00000001800a9a2c f i libucrt:strtod.obj
 0001:000a8b88       ??$parse_floating_point_possible_nan@DV?$c_string_character_source@D@__crt_strtox@@PEBD@__crt_strtox@@YA?AW4floating_point_parse_result@0@AEADAEAV?$c_string_character_source@D@0@PEBD@Z 00000001800a9b88 f i libucrt:strtod.obj
 0001:000a8d74       ??$parse_floating_point_possible_nan_is_ind@DV?$c_string_character_source@D@__crt_strtox@@@__crt_strtox@@YA_NAEADAEAV?$c_string_character_source@D@0@@Z 00000001800a9d74 f i libucrt:strtod.obj
 0001:000a8db8       ??$parse_floating_point_possible_nan_is_snan@DV?$c_string_character_source@D@__crt_strtox@@@__crt_strtox@@YA_NAEADAEAV?$c_string_character_source@D@0@@Z 00000001800a9db8 f i libucrt:strtod.obj
 0001:000a8dfc       ??$parse_floating_point_write_result@M@__crt_strtox@@YA?AW4SLD_STATUS@@W4floating_point_parse_result@0@AEBUfloating_point_string@0@QEAM@Z 00000001800a9dfc f i libucrt:strtod.obj
 0001:000a8f6c       ??$parse_floating_point_write_result@N@__crt_strtox@@YA?AW4SLD_STATUS@@W4floating_point_parse_result@0@AEBUfloating_point_string@0@QEAN@Z 00000001800a9f6c f i libucrt:strtod.obj
 0001:000a914c       ?as_double@floating_point_value@__crt_strtox@@QEBAAEANXZ 00000001800aa14c f i libucrt:strtod.obj
 0001:000a9188       ?as_float@floating_point_value@__crt_strtox@@QEBAAEAMXZ 00000001800aa188 f i libucrt:strtod.obj
 0001:000a91c4       ?assemble_floating_point_value@__crt_strtox@@YA?AW4SLD_STATUS@@_KH_N1AEBVfloating_point_value@1@@Z 00000001800aa1c4 f i libucrt:strtod.obj
 0001:000a9564       ?assemble_floating_point_value_from_big_integer@__crt_strtox@@YA?AW4SLD_STATUS@@AEBUbig_integer@1@I_N1AEBVfloating_point_value@1@@Z 00000001800aa564 f i libucrt:strtod.obj
 0001:000a96c4       ?convert_decimal_string_to_floating_type_common@__crt_strtox@@YA?AW4SLD_STATUS@@AEBUfloating_point_string@1@AEBVfloating_point_value@1@@Z 00000001800aa6c4 f i libucrt:strtod.obj
 0001:000ab514       ?convert_hexadecimal_string_to_floating_type_common@__crt_strtox@@YA?AW4SLD_STATUS@@AEBUfloating_point_string@1@AEBVfloating_point_value@1@@Z 00000001800ac514 f i libucrt:strtod.obj
 0001:000ab5c0       ?divide@__crt_strtox@@YA_KAEAUbig_integer@1@AEBU21@@Z 00000001800ac5c0 f i libucrt:strtod.obj
 0001:000ab9ec       _ischartype_l              00000001800ac9ec f i libucrt:strtod.obj
 0001:000abaec       strtod                     00000001800acaec f   libucrt:strtod.obj
 0001:000abaf4       strtof                     00000001800acaf4 f   libucrt:strtod.obj
 0001:000abafc       ??$is_overflow_condition@_K@__crt_strtox@@YA_NI_K@Z 00000001800acafc f i libucrt:strtox.obj
 0001:000abb2c       ??$parse_integer@KV?$c_string_character_source@D@__crt_strtox@@@__crt_strtox@@YAKQEAU__crt_locale_pointers@@V?$c_string_character_source@D@0@H_N@Z 00000001800acb2c f i libucrt:strtox.obj
 0001:000abe30       ??$parse_integer@KV?$c_string_character_source@_W@__crt_strtox@@@__crt_strtox@@YAKQEAU__crt_locale_pointers@@V?$c_string_character_source@_W@0@H_N@Z 00000001800ace30 f i libucrt:strtox.obj
 0001:000ac4d8       ??$parse_integer@_KV?$c_string_character_source@D@__crt_strtox@@@__crt_strtox@@YA_KQEAU__crt_locale_pointers@@V?$c_string_character_source@D@0@H_N@Z 00000001800ad4d8 f i libucrt:strtox.obj
 0001:000ac7c8       strtol                     00000001800ad7c8 f   libucrt:strtox.obj
 0001:000ac7f4       strtoll                    00000001800ad7f4 f   libucrt:strtox.obj
 0001:000ac820       strtoull                   00000001800ad820 f   libucrt:strtox.obj
 0001:000ac84c       wcstol                     00000001800ad84c f   libucrt:strtox.obj
 0001:000ac878       localeconv                 00000001800ad878 f   libucrt:localeconv.obj
 0001:000ac8ac       _isleadbyte_l              00000001800ad8ac f i libucrt:_wctype.obj
 0001:000ac8f8       iswspace                   00000001800ad8f8 f i libucrt:_wctype.obj
 0001:000ac920       strcmp                     00000001800ad920 f   libucrt:strcmp.obj
 0001:000ac988       _aligned_free              00000001800ad988 f   libucrt:align.obj
 0001:000ac9a4       _aligned_malloc            00000001800ad9a4 f   libucrt:align.obj
 0001:000aca30       islower                    00000001800ada30 f   libucrt:_ctype.obj
 0001:000acae0       isspace                    00000001800adae0 f   libucrt:_ctype.obj
 0001:000acb90       isupper                    00000001800adb90 f   libucrt:_ctype.obj
 0001:000ace38       _mbstowcs_s_l              00000001800ade38 f   libucrt:mbstowcs.obj
 0001:000acf6c       mbstowcs_s                 00000001800adf6c f   libucrt:mbstowcs.obj
 0001:000ad2e8       _wcstombs_s_l              00000001800ae2e8 f   libucrt:wcstombs.obj
 0001:000ad3e0       strncmp                    00000001800ae3e0 f   libucrt:strncmp.obj
 0001:000ad460       log                        00000001800ae460 f   libucrt:log.obj
 0001:000ad990       pow                        00000001800ae990 f   libucrt:pow.obj
 0001:000af0d0       strcspn                    00000001800b00d0 f   libucrt:strcspn.obj
 0001:000af4a0       frexp                      00000001800b04a0 f   libucrt:frexp.obj
 0001:000af598       calloc                     00000001800b0598 f   libucrt:calloc.obj
 0001:000af5a0       __acrt_initialize_clock    00000001800b05a0 f   libucrt:clock.obj
 0001:000af5f4       ___lc_codepage_func        00000001800b05f4 f   libucrt:initctype.obj
 0001:000af624       ___lc_collate_cp_func      00000001800b0624 f   libucrt:initctype.obj
 0001:000af654       ___lc_locale_name_func     00000001800b0654 f   libucrt:initctype.obj
 0001:000af688       ___mb_cur_max_func         00000001800b0688 f   libucrt:initctype.obj
 0001:000af6b8       __acrt_locale_initialize_ctype 00000001800b06b8 f   libucrt:initctype.obj
 0001:000afd1c       terminate                  00000001800b0d1c f   libucrt:terminate.obj
 0001:000afd3c       __acrt_initialize_locks    00000001800b0d3c f   libucrt:locks.obj
 0001:000afd84       __acrt_lock                00000001800b0d84 f   libucrt:locks.obj
 0001:000afda0       __acrt_uninitialize_locks  00000001800b0da0 f   libucrt:locks.obj
 0001:000afdd8       __acrt_unlock              00000001800b0dd8 f   libucrt:locks.obj
 0001:000afdf4       _lock_locales              00000001800b0df4 f   libucrt:locks.obj
 0001:000afe10       _unlock_locales            00000001800b0e10 f   libucrt:locks.obj
 0001:000afe20       ldexp                      00000001800b0e20 f   libucrt:ldexp.obj
 0001:000aff90       realloc                    00000001800b0f90 f   libucrt:realloc.obj
 0001:000b0274       setlocale                  00000001800b1274 f   libucrt:setlocale.obj
 0001:000b02c0       powf                       00000001800b12c0 f   libucrt:powf.obj
 0001:000b1244       _fsopen                    00000001800b2244 f   libucrt:fopen.obj
 0001:000b124c       rand_s                     00000001800b224c f   libucrt:rand_s.obj
 0001:000b1298       __pctype_func              00000001800b2298 f   libucrt:ctype.obj
 0001:000b12c8       _wcsdup                    00000001800b22c8 f   libucrt:wcsdup.obj
 0001:000b134c       abort                      00000001800b234c f   libucrt:abort.obj
 0001:000b13a4       __acrt_initialize_new_handler 00000001800b23a4 f   libucrt:new_handler.obj
 0001:000b13ac       _callnewh                  00000001800b23ac f   libucrt:new_handler.obj
 0001:000b13dc       _query_new_handler         00000001800b23dc f   libucrt:new_handler.obj
 0001:000b1410       _set_new_handler           00000001800b2410 f   libucrt:new_handler.obj
 0001:000b146c       ??$__acrt_mbs_to_wcs_cp@U__crt_win32_buffer_internal_dynamic_resizing@@@@YAHQEBDAEAV?$__crt_win32_buffer@_WU__crt_win32_buffer_internal_dynamic_resizing@@@@I@Z 00000001800b246c f i libucrt:strftime.obj
 0001:000b15e4       ??$__acrt_wcs_to_mbs_cp@U__crt_win32_buffer_no_resizing@@@@YAHQEB_WAEAV?$__crt_win32_buffer@DU__crt_win32_buffer_no_resizing@@@@I@Z 00000001800b25e4 f i libucrt:strftime.obj
 0001:000b16f8       _Getdays                   00000001800b26f8 f   libucrt:strftime.obj
 0001:000b1700       _Getdays_l                 00000001800b2700 f   libucrt:strftime.obj
 0001:000b1844       _Getmonths                 00000001800b2844 f   libucrt:strftime.obj
 0001:000b184c       _Getmonths_l               00000001800b284c f   libucrt:strftime.obj
 0001:000b19a4       _Gettnames                 00000001800b29a4 f   libucrt:strftime.obj
 0001:000b19ac       _Strftime                  00000001800b29ac f   libucrt:strftime.obj
 0001:000b19cc       _Strftime_l                00000001800b29cc f   libucrt:strftime.obj
 0001:000b1b30       ??$__crt_time_is_leap_year@H@@YA_NH@Z 00000001800b2b30 f i libucrt:wcsftime.obj
 0001:000b31d4       _W_Getdays                 00000001800b41d4 f   libucrt:wcsftime.obj
 0001:000b3360       _W_Getmonths               00000001800b4360 f   libucrt:wcsftime.obj
 0001:000b34ec       _W_Gettnames               00000001800b44ec f   libucrt:wcsftime.obj
 0001:000b3bac       _Wcsftime                  00000001800b4bac f   libucrt:wcsftime.obj
 0001:000b3bcc       _Wcsftime_l                00000001800b4bcc f   libucrt:wcsftime.obj
 0001:000b3d74       __strncnt                  00000001800b4d74 f   libucrt:strncnt.obj
 0001:000b3d8c       strnlen                    00000001800b4d8c f   libucrt:strnlen.obj
 0001:000b3edc       wcsnlen                    00000001800b4edc f   libucrt:strnlen.obj
 0001:000b40b4       _seh_filter_dll            00000001800b50b4 f   libucrt:exception_filter.obj
 0001:000b40c8       _seh_filter_exe            00000001800b50c8 f   libucrt:exception_filter.obj
 0001:000b44b8       __acrt_initialize_thread_local_exit_callback 00000001800b54b8 f   libucrt:exit.obj
 0001:000b44c0       _cexit                     00000001800b54c0 f   libucrt:exit.obj
 0001:000b44d0       _exit                      00000001800b54d0 f   libucrt:exit.obj
 0001:000b44dc       _is_c_termination_complete 00000001800b54dc f   libucrt:exit.obj
 0001:000b46a4       __acrt_allocate_buffer_for_argv 00000001800b56a4 f   libucrt:argv_parsing.obj
 0001:000b4704       _configure_narrow_argv     00000001800b5704 f   libucrt:argv_parsing.obj
 0001:000b4cac       __dcrt_get_or_create_wide_environment_nolock 00000001800b5cac f   libucrt:environment_initialization.obj
 0001:000b4ce8       __dcrt_uninitialize_environments_nolock 00000001800b5ce8 f   libucrt:environment_initialization.obj
 0001:000b4d20       _initialize_narrow_environment 00000001800b5d20 f   libucrt:environment_initialization.obj
 0001:000b5068       _crt_atexit                00000001800b6068 f   libucrt:onexit.obj
 0001:000b5078       _execute_onexit_table      00000001800b6078 f   libucrt:onexit.obj
 0001:000b50b4       _initialize_onexit_table   00000001800b60b4 f   libucrt:onexit.obj
 0001:000b50dc       _register_onexit_function  00000001800b60dc f   libucrt:onexit.obj
 0001:000b5250       __acrt_initialize          00000001800b6250 f   libucrt:initialization.obj
 0001:000b5264       __acrt_thread_attach       00000001800b6264 f   libucrt:initialization.obj
 0001:000b5278       __acrt_thread_detach       00000001800b6278 f   libucrt:initialization.obj
 0001:000b5288       __acrt_uninitialize        00000001800b6288 f   libucrt:initialization.obj
 0001:000b52c0       __acrt_uninitialize_critical 00000001800b62c0 f   libucrt:initialization.obj
 0001:000b52d0       _initterm                  00000001800b62d0 f   libucrt:initterm.obj
 0001:000b5334       _initterm_e                00000001800b6334 f   libucrt:initterm.obj
 0001:000b5374       strcpy_s                   00000001800b6374 f   libucrt:strcpy_s.obj
 0001:000b53d4       _wtol                      00000001800b63d4 f   libucrt:atox.obj
 0001:000b5400       wcsncmp                    00000001800b6400 f   libucrt:wcsncmp.obj
 0001:000b5744       __acrt_LCMapStringA        00000001800b6744 f   libucrt:lcmapstringa.obj
 0001:000b5b54       __acrt_freeptd             00000001800b6b54 f   libucrt:per_thread_data.obj
 0001:000b5b98       __acrt_getptd              00000001800b6b98 f   libucrt:per_thread_data.obj
 0001:000b5c6c       __acrt_getptd_head         00000001800b6c6c f   libucrt:per_thread_data.obj
 0001:000b5d14       __acrt_getptd_noexit       00000001800b6d14 f   libucrt:per_thread_data.obj
 0001:000b5de0       __acrt_initialize_ptd      00000001800b6de0 f   libucrt:per_thread_data.obj
 0001:000b5e1c       __acrt_uninitialize_ptd    00000001800b6e1c f   libucrt:per_thread_data.obj
 0001:000b5e40       __acrt_update_locale_info  00000001800b6e40 f   libucrt:locale_update.obj
 0001:000b5e74       __acrt_update_multibyte_info 00000001800b6e74 f   libucrt:locale_update.obj
 0001:000b6110       ?commit_locale_name@_expandlocale_locale_name_cache@@QEAAXQEB_W_K@Z 00000001800b7110 f i libucrt:wsetlocale.obj
 0001:000b6188       __acrt_copy_locale_name    00000001800b7188 f   libucrt:wsetlocale.obj
 0001:000b620c       __acrt_set_locale_changed  00000001800b720c f   libucrt:wsetlocale.obj
 0001:000b6218       __acrt_uninitialize_locale 00000001800b7218 f   libucrt:wsetlocale.obj
 0001:000b6248       __lc_lctowcs               00000001800b7248 f   libucrt:wsetlocale.obj
 0001:000b62ec       __lc_wcstolc               00000001800b72ec f   libucrt:wsetlocale.obj
 0001:000b6994       _wcscats                   00000001800b7994 f   libucrt:wsetlocale.obj
 0001:000b69fc       _wsetlocale                00000001800b79fc f   libucrt:wsetlocale.obj
 0001:000b774c       _fileno                    00000001800b874c f   libucrt:fileno.obj
 0001:000b78d4       __acrt_stdio_flush_and_write_narrow_nolock 00000001800b88d4 f   libucrt:_flsbuf.obj
 0001:000b7b88       __acrt_initialize_lowio    00000001800b8b88 f   libucrt:ioinit.obj
 0001:000b7bc4       __acrt_uninitialize_lowio  00000001800b8bc4 f   libucrt:ioinit.obj
 0001:000b7c04       _calloc_base               00000001800b8c04 f   libucrt:calloc_base.obj
 0001:000b7c7c       _free_base                 00000001800b8c7c f   libucrt:free_base.obj
 0001:000b7f38       __acrt_AppPolicyGetProcessTerminationMethodInternal 00000001800b8f38 f   libucrt:winapi_thunks.obj
 0001:000b7f88       __acrt_AreFileApisANSI     00000001800b8f88 f   libucrt:winapi_thunks.obj
 0001:000b7fc4       __acrt_CompareStringEx     00000001800b8fc4 f   libucrt:winapi_thunks.obj
 0001:000b80a0       __acrt_EnumSystemLocalesEx 00000001800b90a0 f   libucrt:winapi_thunks.obj
 0001:000b8138       __acrt_FlsAlloc            00000001800b9138 f   libucrt:winapi_thunks.obj
 0001:000b8180       __acrt_FlsFree             00000001800b9180 f   libucrt:winapi_thunks.obj
 0001:000b81c8       __acrt_FlsGetValue         00000001800b91c8 f   libucrt:winapi_thunks.obj
 0001:000b8210       __acrt_FlsSetValue         00000001800b9210 f   libucrt:winapi_thunks.obj
 0001:000b8264       __acrt_GetDateFormatEx     00000001800b9264 f   libucrt:winapi_thunks.obj
 0001:000b831c       __acrt_GetLocaleInfoEx     00000001800b931c f   libucrt:winapi_thunks.obj
 0001:000b83a0       __acrt_GetTimeFormatEx     00000001800b93a0 f   libucrt:winapi_thunks.obj
 0001:000b844c       __acrt_GetUserDefaultLocaleName 00000001800b944c f   libucrt:winapi_thunks.obj
 0001:000b84b0       __acrt_InitializeCriticalSectionEx 00000001800b94b0 f   libucrt:winapi_thunks.obj
 0001:000b8514       __acrt_IsValidLocaleName   00000001800b9514 f   libucrt:winapi_thunks.obj
 0001:000b856c       __acrt_LCIDToLocaleName    00000001800b956c f   libucrt:winapi_thunks.obj
 0001:000b85dc       __acrt_LCMapStringEx       00000001800b95dc f   libucrt:winapi_thunks.obj
 0001:000b86b8       __acrt_LocaleNameToLCID    00000001800b96b8 f   libucrt:winapi_thunks.obj
 0001:000b8708       __acrt_RtlGenRandom        00000001800b9708 f   libucrt:winapi_thunks.obj
 0001:000b8758       __acrt_can_use_vista_locale_apis 00000001800b9758 f   libucrt:winapi_thunks.obj
 0001:000b8788       __acrt_eagerly_load_locale_apis 00000001800b9788 f   libucrt:winapi_thunks.obj
 0001:000b88e4       __acrt_initialize_winapi_thunks 00000001800b98e4 f   libucrt:winapi_thunks.obj
 0001:000b8918       __acrt_uninitialize_winapi_thunks 00000001800b9918 f   libucrt:winapi_thunks.obj
 0001:000b895c       _fcloseall                 00000001800b995c f   libucrt:closeall.obj
 0001:000b8a10       __acrt_stdio_free_buffer_nolock 00000001800b9a10 f   libucrt:_freebuf.obj
 0001:000b8adc       _commit                    00000001800b9adc f   libucrt:commit.obj
 0001:000b93ec       _write                     00000001800ba3ec f   libucrt:write.obj
 0001:000b94d8       _write_nolock              00000001800ba4d8 f   libucrt:write.obj
 0001:000b9830       _close                     00000001800ba830 f   libucrt:close.obj
 0001:000b98d4       _close_nolock              00000001800ba8d4 f   libucrt:close.obj
 0001:000b9994       ?__acrt_stdio_allocate_stream@@YA?AV__crt_stdio_stream@@XZ 00000001800ba994 f   libucrt:stream.obj
 0001:000b99ec       ?__acrt_stdio_free_stream@@YAXV__crt_stdio_stream@@@Z 00000001800ba9ec f   libucrt:stream.obj
 0001:000b9af4       __acrt_stdio_refill_and_read_narrow_nolock 00000001800baaf4 f   libucrt:_filbuf.obj
 0001:000b9c60       _malloc_base               00000001800bac60 f   libucrt:malloc_base.obj
 0001:000b9cc0       _mbtowc_l                  00000001800bacc0 f   libucrt:mbtowc.obj
 0001:000b9e40       mbtowc                     00000001800bae40 f   libucrt:mbtowc.obj
 0001:000b9e48       _wctomb_s_l                00000001800bae48 f   libucrt:wctomb.obj
 0001:000ba9f0       __acrt_fp_format           00000001800bb9f0 f   libucrt:cvt.obj
 0001:000bad28       _get_printf_count_output   00000001800bbd28 f   libucrt:printf_count_output.obj
 0001:000bad40       __acrt_should_use_temporary_buffer 00000001800bbd40 f   libucrt:_sftbuf.obj
 0001:000bad88       __acrt_stdio_begin_temporary_buffering_nolock 00000001800bbd88 f   libucrt:_sftbuf.obj
 0001:000bae50       __acrt_stdio_end_temporary_buffering_nolock 00000001800bbe50 f   libucrt:_sftbuf.obj
 0001:000bb35c       _ftelli64                  00000001800bc35c f   libucrt:ftell.obj
 0001:000bb364       _ftelli64_nolock           00000001800bc364 f   libucrt:ftell.obj
 0001:000bb36c       __acrt_stdio_allocate_buffer_nolock 00000001800bc36c f   libucrt:_getbuf.obj
 0001:000bb940       _read                      00000001800bc940 f   libucrt:read.obj
 0001:000bba5c       _read_nolock               00000001800bca5c f   libucrt:read.obj
 0001:000bc040       _lseeki64                  00000001800bd040 f   libucrt:lseek.obj
 0001:000bc048       _lseeki64_nolock           00000001800bd048 f   libucrt:lseek.obj
 0001:000bc050       _dtest                     00000001800bd050 f   libucrt:_test.obj
 0001:000bc0b4       _fdtest                    00000001800bd0b4 f   libucrt:_test.obj
 0001:000bc100       iswctype                   00000001800bd100 f   libucrt:iswctype.obj
 0001:000bc16c       _isctype_l                 00000001800bd16c f   libucrt:isctype.obj
 0001:000bc274       fegetround                 00000001800bd274 f   libucrt:fegetround.obj
 0001:000bc288       _msize_base                00000001800bd288 f   libucrt:msize.obj
 0001:000bc2c4       __acrt_MultiByteToWideChar 00000001800bd2c4 f   libucrt:multibytetowidechar.obj
 0001:000bc320       ?__mbrtowc_utf8@__crt_mbstring@@YA_KPEA_WPEBD_KPEAU_Mbstatet@@@Z 00000001800bd320 f   libucrt:mbrtowc.obj
 0001:000bc35c       ?__mbsrtowcs_utf8@__crt_mbstring@@YA_KPEA_WPEAPEBD_KPEAU_Mbstatet@@@Z 00000001800bd35c f   libucrt:mbrtowc.obj
 0001:000bc4d4       __acrt_WideCharToMultiByte 00000001800bd4d4 f   libucrt:widechartomultibyte.obj
 0001:000bc584       ?__wcsrtombs_utf8@__crt_mbstring@@YA_KPEADPEAPEB_W_KPEAU_Mbstatet@@@Z 00000001800bd584 f   libucrt:wcrtomb.obj
 0001:000bc6a0       __acrt_initialize_fma3     00000001800bd6a0 f   libucrt:fma3_available.obj
 0001:000bc710       _log10_special             00000001800bd710 f   libucrt:log_special.obj
 0001:000bc730       _log_special               00000001800bd730 f   libucrt:log_special.obj
 0001:000bc7f0       _pow_special               00000001800bd7f0 f   libucrt:pow_special.obj
 0001:000bc914       _powf_special              00000001800bd914 f   libucrt:pow_special.obj
 0001:000bcaa0       _errcode                   00000001800bdaa0 f   libucrt:fpexcept.obj
 0001:000bcae4       _except1                   00000001800bdae4 f   libucrt:fpexcept.obj
 0001:000bcbd8       _except2                   00000001800bdbd8 f   libucrt:fpexcept.obj
 0001:000bcce0       _handle_exc                00000001800bdce0 f   libucrt:fpexcept.obj
 0001:000bcf48       _handle_qnan2              00000001800bdf48 f   libucrt:fpexcept.obj
 0001:000bcf50       _raise_exc                 00000001800bdf50 f   libucrt:fpexcept.obj
 0001:000bcf78       _raise_exc_ex              00000001800bdf78 f   libucrt:fpexcept.obj
 0001:000bd288       _raise_excf                00000001800be288 f   libucrt:fpexcept.obj
 0001:000bd2b4       _set_errno_from_matherr    00000001800be2b4 f   libucrt:fpexcept.obj
 0001:000bd2e4       _umatherr                  00000001800be2e4 f   libucrt:fpexcept.obj
 0001:000bd3b8       _decomp                    00000001800be3b8 f   libucrt:util.obj
 0001:000bd4e8       _set_exp                   00000001800be4e8 f   libucrt:util.obj
 0001:000bd520       _sptype                    00000001800be520 f   libucrt:util.obj
 0001:000bd594       _clrfp                     00000001800be594 f   libucrt:fpctrl.obj
 0001:000bd5b4       _ctrlfp                    00000001800be5b4 f   libucrt:fpctrl.obj
 0001:000bd630       _set_statfp                00000001800be630 f   libucrt:fpctrl.obj
 0001:000bd650       _statfp                    00000001800be650 f   libucrt:fpctrl.obj
 0001:000bd7e0       __acrt_GetLocaleInfoA      00000001800be7e0 f   libucrt:getlocaleinfoa.obj
 0001:000bd9a8       __acrt_GetStringTypeA      00000001800be9a8 f   libucrt:getstringtypea.obj
 0001:000bdb38       _copysign                  00000001800beb38 f   libucrt:_copysign.obj
 0001:000bdb6c       _realloc_base              00000001800beb6c f   libucrt:realloc_base.obj
 0001:000bdbf0       ??$__acrt_stdio_parse_mode@D@@YA?AU__acrt_stdio_stream_mode@@QEBD@Z 00000001800bebf0 f i libucrt:openfile.obj
 0001:000bdeb4       _openfile                  00000001800beeb4 f   libucrt:openfile.obj
 0001:000bdf50       wcscpy_s                   00000001800bef50 f   libucrt:wcscpy_s.obj
 0001:000be000       __acrt_get_sigabrt_handler 00000001800bf000 f   libucrt:signal.obj
 0001:000be030       __acrt_initialize_signal_handlers 00000001800bf030 f   libucrt:signal.obj
 0001:000be050       raise                      00000001800bf050 f   libucrt:signal.obj
 0001:000be2bc       __ascii_wcsicmp            00000001800bf2bc f   libucrt:wcsicmp.obj
 0001:000be2fc       _wcsicmp                   00000001800bf2fc f   libucrt:wcsicmp.obj
 0001:000be344       _wcsicmp_l                 00000001800bf344 f   libucrt:wcsicmp.obj
 0001:000be46c       __acrt_initialize_timeset  00000001800bf46c f   libucrt:timeset.obj
 0001:000be4bc       __daylight                 00000001800bf4bc f   libucrt:timeset.obj
 0001:000be4c4       __dstbias                  00000001800bf4c4 f   libucrt:timeset.obj
 0001:000be4cc       __timezone                 00000001800bf4cc f   libucrt:timeset.obj
 0001:000be4d4       __tzname                   00000001800bf4d4 f   libucrt:timeset.obj
 0001:000be4dc       __wide_tzname              00000001800bf4dc f   libucrt:timeset.obj
 0001:000be4e4       _get_daylight              00000001800bf4e4 f   libucrt:timeset.obj
 0001:000be514       _get_dstbias               00000001800bf514 f   libucrt:timeset.obj
 0001:000be544       _get_timezone              00000001800bf544 f   libucrt:timeset.obj
 0001:000bebfc       __tzset                    00000001800bfbfc f   libucrt:tzset.obj
 0001:000bec3c       __acrt_get_process_end_policy 00000001800bfc3c f   libucrt:win_policies.obj
 0001:000bec8c       ??$__acrt_wcs_to_mbs_cp@U__crt_win32_buffer_internal_dynamic_resizing@@@@YAHQEB_WAEAV?$__crt_win32_buffer@DU__crt_win32_buffer_internal_dynamic_resizing@@@@I@Z 00000001800bfc8c f i libucrt:argv_wildcards.obj
 0001:000bf4bc       __acrt_expand_narrow_argv_wildcards 00000001800c04bc f   libucrt:argv_wildcards.obj
 0001:000bf4c4       __acrt_GetModuleFileNameA  00000001800c04c4 f   libucrt:getmodulefilenamea.obj
 0001:000bfd0c       __acrt_initialize_multibyte 00000001800c0d0c f   libucrt:mbctype.obj
 0001:000bfd6c       __acrt_update_thread_multibyte_data 00000001800c0d6c f   libucrt:mbctype.obj
 0001:000bfd88       _setmbcp_nolock            00000001800c0d88 f   libucrt:mbctype.obj
 0001:000c00bc       _ismbblead                 00000001800c10bc f   libucrt:ismbbyte.obj
 0001:000c00d0       __acrt_initialize_command_line 00000001800c10d0 f   libucrt:argv_data.obj
 0001:000c00f8       __dcrt_get_narrow_environment_from_os 00000001800c10f8 f   libucrt:get_environment_from_os.obj
 0001:000c01fc       __dcrt_get_wide_environment_from_os 00000001800c11fc f   libucrt:get_environment_from_os.obj
 0001:000c06b0       __dcrt_set_variable_in_wide_environment_nolock 00000001800c16b0 f   libucrt:setenv.obj
 0001:000c06b8       _recalloc_base             00000001800c16b8 f   libucrt:recalloc.obj
 0001:000c0750       __acrt_initialize_heap     00000001800c1750 f   libucrt:heap_handle.obj
 0001:000c076c       __acrt_uninitialize_heap   00000001800c176c f   libucrt:heap_handle.obj
 0001:000c0778       __acrt_execute_initializers 00000001800c1778 f   libucrt:shared_initialization.obj
 0001:000c07f8       __acrt_execute_uninitializers 00000001800c17f8 f   libucrt:shared_initialization.obj
 0001:000c0834       __acrt_has_user_matherr    00000001800c1834 f   libucrt:matherr.obj
 0001:000c0854       __acrt_initialize_user_matherr 00000001800c1854 f   libucrt:matherr.obj
 0001:000c085c       __acrt_invoke_user_matherr 00000001800c185c f   libucrt:matherr.obj
 0001:000c088c       __acrt_add_locale_ref      00000001800c188c f   libucrt:locale_refcounting.obj
 0001:000c0918       __acrt_free_locale         00000001800c1918 f   libucrt:locale_refcounting.obj
 0001:000c0a90       __acrt_locale_add_lc_time_reference 00000001800c1a90 f   libucrt:locale_refcounting.obj
 0001:000c0ab8       __acrt_locale_free_lc_time_if_unreferenced 00000001800c1ab8 f   libucrt:locale_refcounting.obj
 0001:000c0af0       __acrt_locale_release_lc_time_reference 00000001800c1af0 f   libucrt:locale_refcounting.obj
 0001:000c0b18       __acrt_release_locale_ref  00000001800c1b18 f   libucrt:locale_refcounting.obj
 0001:000c0bc0       __acrt_update_thread_locale_data 00000001800c1bc0 f   libucrt:locale_refcounting.obj
 0001:000c0c30       _updatetlocinfoEx_nolock   00000001800c1c30 f   libucrt:locale_refcounting.obj
 0001:000c0c98       __acrt_locale_free_monetary 00000001800c1c98 f   libucrt:initmon.obj
 0001:000c0da4       __acrt_locale_initialize_monetary 00000001800c1da4 f   libucrt:initmon.obj
 0001:000c12d8       __acrt_locale_free_numeric 00000001800c22d8 f   libucrt:initnum.obj
 0001:000c1344       __acrt_locale_initialize_numeric 00000001800c2344 f   libucrt:initnum.obj
 0001:000c19c4       __acrt_locale_free_time    00000001800c29c4 f   libucrt:inittime.obj
 0001:000c1acc       __acrt_locale_initialize_time 00000001800c2acc f   libucrt:inittime.obj
 0001:000c1b68       wcscat_s                   00000001800c2b68 f   libucrt:wcscat_s.obj
 0001:000c1be8       wcsncat_s                  00000001800c2be8 f   libucrt:wcsncat_s.obj
 0001:000c1ce8       wcsncpy_s                  00000001800c2ce8 f   libucrt:wcsncpy_s.obj
 0001:000c1dcc       wcscspn                    00000001800c2dcc f   libucrt:wcscspn.obj
 0001:000c1e0c       wcspbrk                    00000001800c2e0c f   libucrt:wcspbrk.obj
 0001:000c25f4       __acrt_get_qualified_locale 00000001800c35f4 f   libucrt:get_qualified_locale.obj
 0001:000c3028       __acrt_get_qualified_locale_downlevel 00000001800c4028 f   libucrt:getqloc_downlevel.obj
 0001:000c32a8       __acrt_lowio_create_handle_array 00000001800c42a8 f   libucrt:osfinfo.obj
 0001:000c3350       __acrt_lowio_destroy_handle_array 00000001800c4350 f   libucrt:osfinfo.obj
 0001:000c33a0       __acrt_lowio_ensure_fh_exists 00000001800c43a0 f   libucrt:osfinfo.obj
 0001:000c3448       __acrt_lowio_lock_fh       00000001800c4448 f   libucrt:osfinfo.obj
 0001:000c3470       __acrt_lowio_set_os_handle 00000001800c4470 f   libucrt:osfinfo.obj
 0001:000c3530       __acrt_lowio_unlock_fh     00000001800c4530 f   libucrt:osfinfo.obj
 0001:000c3558       _alloc_osfhnd              00000001800c4558 f   libucrt:osfinfo.obj
 0001:000c3698       _free_osfhnd               00000001800c4698 f   libucrt:osfinfo.obj
 0001:000c3754       _get_osfhandle             00000001800c4754 f   libucrt:osfinfo.obj
 0001:000c37cc       _query_new_mode            00000001800c47cc f   libucrt:new_mode.obj
 0001:000c37d4       __acrt_DownlevelLCIDToLocaleName 00000001800c47d4 f   libucrt:lcidtoname_downlevel.obj
 0001:000c38c8       __acrt_DownlevelLocaleNameToLCID 00000001800c48c8 f   libucrt:lcidtoname_downlevel.obj
 0001:000c3978       _isatty                    00000001800c4978 f   libucrt:isatty.obj
 0001:000c39d8       _putwch_nolock             00000001800c49d8 f   libucrt:putwch.obj
 0001:000c3a14       ?__c32rtomb_utf8@__crt_mbstring@@YA_KPEAD_UPEAU_Mbstatet@@@Z 00000001800c4a14 f   libucrt:c32rtomb.obj
 0001:000c3ac8       c32rtomb                   00000001800c4ac8 f   libucrt:c32rtomb.obj
 0001:000c3ad0       __acrt_fp_strflt_to_string 00000001800c4ad0 f   libucrt:_fptostr.obj
 0001:000c3c2c       __acrt_fltout              00000001800c4c2c f   libucrt:cfout.obj
 0001:000c4e70       __acrt_fenv_get_common_round_control 00000001800c5e70 f   libucrt:_fenvutils.obj
 0001:000c4e7c       __acrt_fenv_get_control    00000001800c5e7c f   libucrt:_fenvutils.obj
 0001:000c4f70       __acrt_fenv_get_status     00000001800c5f70 f   libucrt:_fenvutils.obj
 0001:000c4fc4       __acrt_fenv_set_control    00000001800c5fc4 f   libucrt:_fenvutils.obj
 0001:000c510c       __acrt_fenv_set_status     00000001800c610c f   libucrt:_fenvutils.obj
 0001:000c5190       __acrt_GetStringTypeW      00000001800c6190 f   libucrt:getstringtypew.obj
 0001:000c5198       ?__mbrtoc32_utf8@__crt_mbstring@@YA_KPEA_UPEBD_KPEAU_Mbstatet@@@Z 00000001800c6198 f   libucrt:mbrtoc32.obj
 0001:000c5370       ?__c16rtomb_utf8@__crt_mbstring@@YA_KPEAD_SPEAU_Mbstatet@@@Z 00000001800c6370 f   libucrt:c16rtomb.obj
 0001:000c5538       _handle_error              00000001800c6538 f   libucrt:libm_error.obj
 0001:000c5660       _handle_errorf             00000001800c6660 f   libucrt:libm_error.obj
 0001:000c5794       _handle_nan                00000001800c6794 f   libucrt:libm_error.obj
 0001:000c57b0       _handle_nanf               00000001800c67b0 f   libucrt:libm_error.obj
 0001:000c57d0       _get_fpsr                  00000001800c67d0 f   libucrt:fpsr.obj
 0001:000c57e0       _set_fpsr                  00000001800c67e0 f   libucrt:fpsr.obj
 0001:000c57ea       _fclrf                     00000001800c67ea f   libucrt:fpsr.obj
 0001:000c57fe       _frnd                      00000001800c67fe f   libucrt:fpsr.obj
 0001:000c5820       strncpy_s                  00000001800c6820 f   libucrt:strncpy_s.obj
 0001:000c58f4       __ascii_wcsnicmp           00000001800c68f4 f   libucrt:wcsnicmp.obj
 0001:000c5940       _wcsnicmp                  00000001800c6940 f   libucrt:wcsnicmp.obj
 0001:000c5988       _wcsnicmp_l                00000001800c6988 f   libucrt:wcsnicmp.obj
 0001:000c5ad8       __ascii_strnicmp           00000001800c6ad8 f   libucrt:strnicmp.obj
 0001:000c5b24       _strnicmp                  00000001800c6b24 f   libucrt:strnicmp.obj
 0001:000c5b74       _strnicmp_l                00000001800c6b74 f   libucrt:strnicmp.obj
 0001:000c624c       _sopen_nolock              00000001800c724c f   libucrt:open.obj
 0001:000c6364       _sopen_s                   00000001800c7364 f   libucrt:open.obj
 0001:000c6398       _wsopen_nolock             00000001800c7398 f   libucrt:open.obj
 0001:000c6780       _towlower_l                00000001800c7780 f   libucrt:towlower.obj
 0001:000c69cc       _wgetenv_s                 00000001800c79cc f   libucrt:getenv.obj
 0001:000c69e0       qsort                      00000001800c79e0 f   libucrt:qsort.obj
 0001:000c6e20       strpbrk                    00000001800c7e20 f   libucrt:strpbrk.obj
 0001:000c71e8       _mbsdec                    00000001800c81e8 f   libucrt:mbsdec.obj
 0001:000c71f0       _mbsdec_l                  00000001800c81f0 f   libucrt:mbsdec.obj
 0001:000c729c       _wcsnicoll                 00000001800c829c f   libucrt:wcsnicol.obj
 0001:000c72ec       _wcsnicoll_l               00000001800c82ec f   libucrt:wcsnicol.obj
 0001:000c751c       _itow_s                    00000001800c851c f   libucrt:xtoa.obj
 0001:000c753c       wcscmp                     00000001800c853c f   libucrt:wcscmp.obj
 0001:000c7574       _query_app_type            00000001800c8574 f   libucrt:report_runtime_error.obj
 0001:000c757c       __dcrt_lowio_ensure_console_output_initialized 00000001800c857c f   libucrt:initcon.obj
 0001:000c75d0       __dcrt_terminate_console_output 00000001800c85d0 f   libucrt:initcon.obj
 0001:000c75ec       __dcrt_write_console       00000001800c85ec f   libucrt:initcon.obj
 0001:000c76ac       _controlfp_s               00000001800c86ac f   libucrt:contrlfp.obj
 0001:000c7710       fegetenv                   00000001800c8710 f   libucrt:fegetenv.obj
 0001:000c7730       fesetenv                   00000001800c8730 f   libucrt:fesetenv.obj
 0001:000c777c       feholdexcept               00000001800c877c f   libucrt:feholdexcept.obj
 0001:000c77cc       ceil                       00000001800c87cc f   libucrt:ceil.obj
 0001:000c7890       log10                      00000001800c8890 f   libucrt:log10.obj
 0001:000c7e3c       _get_fmode                 00000001800c8e3c f   libucrt:setmode.obj
 0001:000c7e6c       _setmode_nolock            00000001800c8e6c f   libucrt:setmode.obj
 0001:000c7f4c       _chsize_nolock             00000001800c8f4c f   libucrt:chsize.obj
 0001:000c80b8       __acrt_LCMapStringW        00000001800c90b8 f   libucrt:lcmapstringw.obj
 0001:000c8140       __acrt_CompareStringW      00000001800c9140 f   libucrt:comparestringw.obj
 0001:000c8200       _clearfp                   00000001800c9200 f   libucrt:ieee.obj
 0001:000c8270       _control87                 00000001800c9270 f   libucrt:ieee.obj
 0001:000c8540       __acrt_initialize_fmode    00000001800c9540 f   libucrt:txtmode.obj
 0001:000c8560       _FindPESection             00000001800c9560 f   LIBCMT:pesect.obj
 0001:000c85b0       _IsNonwritableInCurrentImage 00000001800c95b0 f   LIBCMT:pesect.obj
 0001:000c8600       _ValidateImageBase         00000001800c9600 f   LIBCMT:pesect.obj
 0001:000c8630       __GSHandlerCheck_SEH       00000001800c9630 f   LIBCMT:gshandlerseh.obj
 0001:000c86b8       __GSHandlerCheck_EH        00000001800c96b8 f   LIBCMT:gshandlereh.obj
 0001:000c8738       _local_unwind              00000001800c9738 f   libvcruntime:jmpuwind.obj
 0001:000c8764       strrchr                    00000001800c9764 f   libvcruntime:strrchr.obj
 0001:000c8890       wcschr                     00000001800c9890 f   libvcruntime:wcschr.obj
 0001:000c890c       asinf                      00000001800c990c f   libucrt:asinf.obj
 0001:000c8af8       atan2                      00000001800c9af8 f   libucrt:atan2.obj
 0001:000c91e0       atan2f                     00000001800ca1e0 f   libucrt:atan2f.obj
 0001:000c95d0       atanf                      00000001800ca5d0 f   libucrt:atanf.obj
 0001:000c97bc       ceilf                      00000001800ca7bc f   libucrt:ceilf.obj
 0001:000c9850       cos                        00000001800ca850 f   libucrt:cos.obj
 0001:000c9dd0       cosf                       00000001800cadd0 f   libucrt:cosf.obj
 0001:000ca2d0       sinf                       00000001800cb2d0 f   libucrt:sinf.obj
 0001:000ca9c8       sqrtf                      00000001800cb9c8 f   libucrt:sqrtf.obj
 0001:000caa70       __remainder_piby2_forAsm   00000001800cba70 f   libucrt:remainder_piby2_forasm.obj
 0001:000cac80       __remainder_piby2_cw_forAsm 00000001800cbc80 f   libucrt:remainder_piby2_forasm.obj
 0001:000cadc0       __remainder_piby2_fma3     00000001800cbdc0 f   libucrt:remainder_piby2_forfma3.obj
 0001:000cafb0       __remainder_piby2_fma3_bdl 00000001800cbfb0 f   libucrt:remainder_piby2_forfma3.obj
 0001:000cb028       _cos_special               00000001800cc028 f   libucrt:sincos_special.obj
 0001:000cb03c       _cosf_special              00000001800cc03c f   libucrt:sincos_special.obj
 0001:000cb180       _sinf_special              00000001800cc180 f   libucrt:sincos_special.obj
 0001:000cb1a0       __remainder_piby2d2f_forAsm 00000001800cc1a0 f   libucrt:remainder_piby2f_forasm.obj
 0001:000cb2f0       __remainder_piby2d2f_forC  00000001800cc2f0 f   libucrt:remainder_piby2f_forc.obj
 0001:000cb490       _guard_dispatch_icall_nop  00000001800cc490 f   LIBCMT:guard_dispatch.obj
 0001:000cb4b0       _guard_xfg_dispatch_icall_nop 00000001800cc4b0 f   LIBCMT:guard_xfg_dispatch.obj
 0002:00000000       __imp_DWriteCreateFactory  00000001800d2000     dwrite:DWrite.dll
 0002:00000008       \177DWrite_NULL_THUNK_DATA 00000001800d2008     dwrite:DWrite.dll
 0002:00000010       __imp_GetCurrentProcess    00000001800d2010     kernel32:KERNEL32.dll
 0002:00000018       __imp_GetCurrentThreadId   00000001800d2018     kernel32:KERNEL32.dll
 0002:00000020       __imp_SuspendThread        00000001800d2020     kernel32:KERNEL32.dll
 0002:00000028       __imp_ResumeThread         00000001800d2028     kernel32:KERNEL32.dll
 0002:00000030       __imp_GetThreadContext     00000001800d2030     kernel32:KERNEL32.dll
 0002:00000038       __imp_SetThreadContext     00000001800d2038     kernel32:KERNEL32.dll
 0002:00000040       __imp_FlushInstructionCache 00000001800d2040     kernel32:KERNEL32.dll
 0002:00000048       __imp_VirtualAlloc         00000001800d2048     kernel32:KERNEL32.dll
 0002:00000050       __imp_VirtualProtect       00000001800d2050     kernel32:KERNEL32.dll
 0002:00000058       __imp_VirtualFree          00000001800d2058     kernel32:KERNEL32.dll
 0002:00000060       __imp_VirtualQuery         00000001800d2060     kernel32:KERNEL32.dll
 0002:00000068       __imp_SetLastError         00000001800d2068     kernel32:KERNEL32.dll
 0002:00000070       __imp_FreeLibrary          00000001800d2070     kernel32:KERNEL32.dll
 0002:00000078       __imp_GetModuleHandleW     00000001800d2078     kernel32:KERNEL32.dll
 0002:00000080       __imp_LoadLibraryExW       00000001800d2080     kernel32:KERNEL32.dll
 0002:00000088       __imp_QueryPerformanceCounter 00000001800d2088     kernel32:KERNEL32.dll
 0002:00000090       __imp_QueryPerformanceFrequency 00000001800d2090     kernel32:KERNEL32.dll
 0002:00000098       __imp_GetLastError         00000001800d2098     kernel32:KERNEL32.dll
 0002:000000a0       __imp_SetStdHandle         00000001800d20a0     kernel32:KERNEL32.dll
 0002:000000a8       __imp_GetProcessHeap       00000001800d20a8     kernel32:KERNEL32.dll
 0002:000000b0       __imp_SetEnvironmentVariableW 00000001800d20b0     kernel32:KERNEL32.dll
 0002:000000b8       __imp_FreeEnvironmentStringsW 00000001800d20b8     kernel32:KERNEL32.dll
 0002:000000c0       __imp_GetProcAddress       00000001800d20c0     kernel32:KERNEL32.dll
 0002:000000c8       __imp_CreateThread         00000001800d20c8     kernel32:KERNEL32.dll
 0002:000000d0       __imp_CloseHandle          00000001800d20d0     kernel32:KERNEL32.dll
 0002:000000d8       __imp_GetCurrentThread     00000001800d20d8     kernel32:KERNEL32.dll
 0002:000000e0       __imp_GetEnvironmentStringsW 00000001800d20e0     kernel32:KERNEL32.dll
 0002:000000e8       __imp_GetCommandLineW      00000001800d20e8     kernel32:KERNEL32.dll
 0002:000000f0       __imp_GetCommandLineA      00000001800d20f0     kernel32:KERNEL32.dll
 0002:000000f8       __imp_GetOEMCP             00000001800d20f8     kernel32:KERNEL32.dll
 0002:00000100       __imp_GetACP               00000001800d2100     kernel32:KERNEL32.dll
 0002:00000108       __imp_IsValidCodePage      00000001800d2108     kernel32:KERNEL32.dll
 0002:00000110       __imp_GetTimeZoneInformation 00000001800d2110     kernel32:KERNEL32.dll
 0002:00000118       __imp_HeapSize             00000001800d2118     kernel32:KERNEL32.dll
 0002:00000120       __imp_HeapReAlloc          00000001800d2120     kernel32:KERNEL32.dll
 0002:00000128       __imp_ReadConsoleW         00000001800d2128     kernel32:KERNEL32.dll
 0002:00000130       __imp_ReadFile             00000001800d2130     kernel32:KERNEL32.dll
 0002:00000138       __imp_GetConsoleMode       00000001800d2138     kernel32:KERNEL32.dll
 0002:00000140       __imp_GetConsoleOutputCP   00000001800d2140     kernel32:KERNEL32.dll
 0002:00000148       __imp_WriteFile            00000001800d2148     kernel32:KERNEL32.dll
 0002:00000150       __imp_FlushFileBuffers     00000001800d2150     kernel32:KERNEL32.dll
 0002:00000158       __imp_EnumSystemLocalesW   00000001800d2158     kernel32:KERNEL32.dll
 0002:00000160       __imp_WriteConsoleW        00000001800d2160     kernel32:KERNEL32.dll
 0002:00000168       __imp_GetModuleHandleA     00000001800d2168     kernel32:KERNEL32.dll
 0002:00000170       __imp_MultiByteToWideChar  00000001800d2170     kernel32:KERNEL32.dll
 0002:00000178       __imp_LocalFree            00000001800d2178     kernel32:KERNEL32.dll
 0002:00000180       __imp_FormatMessageA       00000001800d2180     kernel32:KERNEL32.dll
 0002:00000188       __imp_CreateDirectoryW     00000001800d2188     kernel32:KERNEL32.dll
 0002:00000190       __imp_CreateFileW          00000001800d2190     kernel32:KERNEL32.dll
 0002:00000198       __imp_FindClose            00000001800d2198     kernel32:KERNEL32.dll
 0002:000001a0       __imp_FindFirstFileExW     00000001800d21a0     kernel32:KERNEL32.dll
 0002:000001a8       __imp_FindNextFileW        00000001800d21a8     kernel32:KERNEL32.dll
 0002:000001b0       __imp_GetFileAttributesExW 00000001800d21b0     kernel32:KERNEL32.dll
 0002:000001b8       __imp_SetEndOfFile         00000001800d21b8     kernel32:KERNEL32.dll
 0002:000001c0       __imp_SetFilePointerEx     00000001800d21c0     kernel32:KERNEL32.dll
 0002:000001c8       __imp_AreFileApisANSI      00000001800d21c8     kernel32:KERNEL32.dll
 0002:000001d0       __imp_GetFileInformationByHandleEx 00000001800d21d0     kernel32:KERNEL32.dll
 0002:000001d8       __imp_WideCharToMultiByte  00000001800d21d8     kernel32:KERNEL32.dll
 0002:000001e0       __imp_RaiseException       00000001800d21e0     kernel32:KERNEL32.dll
 0002:000001e8       __imp_EnterCriticalSection 00000001800d21e8     kernel32:KERNEL32.dll
 0002:000001f0       __imp_LeaveCriticalSection 00000001800d21f0     kernel32:KERNEL32.dll
 0002:000001f8       __imp_InitializeCriticalSectionEx 00000001800d21f8     kernel32:KERNEL32.dll
 0002:00000200       __imp_DeleteCriticalSection 00000001800d2200     kernel32:KERNEL32.dll
 0002:00000208       __imp_EncodePointer        00000001800d2208     kernel32:KERNEL32.dll
 0002:00000210       __imp_DecodePointer        00000001800d2210     kernel32:KERNEL32.dll
 0002:00000218       __imp_LCMapStringEx        00000001800d2218     kernel32:KERNEL32.dll
 0002:00000220       __imp_GetSystemTimeAsFileTime 00000001800d2220     kernel32:KERNEL32.dll
 0002:00000228       __imp_GetLocaleInfoEx      00000001800d2228     kernel32:KERNEL32.dll
 0002:00000230       __imp_GetStringTypeW       00000001800d2230     kernel32:KERNEL32.dll
 0002:00000238       __imp_CompareStringEx      00000001800d2238     kernel32:KERNEL32.dll
 0002:00000240       __imp_GetCPInfo            00000001800d2240     kernel32:KERNEL32.dll
 0002:00000248       __imp_InitializeCriticalSectionAndSpinCount 00000001800d2248     kernel32:KERNEL32.dll
 0002:00000250       __imp_SetEvent             00000001800d2250     kernel32:KERNEL32.dll
 0002:00000258       __imp_ResetEvent           00000001800d2258     kernel32:KERNEL32.dll
 0002:00000260       __imp_WaitForSingleObjectEx 00000001800d2260     kernel32:KERNEL32.dll
 0002:00000268       __imp_CreateEventW         00000001800d2268     kernel32:KERNEL32.dll
 0002:00000270       __imp_InitializeSListHead  00000001800d2270     kernel32:KERNEL32.dll
 0002:00000278       __imp_UnhandledExceptionFilter 00000001800d2278     kernel32:KERNEL32.dll
 0002:00000280       __imp_SetUnhandledExceptionFilter 00000001800d2280     kernel32:KERNEL32.dll
 0002:00000288       __imp_TerminateProcess     00000001800d2288     kernel32:KERNEL32.dll
 0002:00000290       __imp_IsProcessorFeaturePresent 00000001800d2290     kernel32:KERNEL32.dll
 0002:00000298       __imp_IsDebuggerPresent    00000001800d2298     kernel32:KERNEL32.dll
 0002:000002a0       __imp_GetStartupInfoW      00000001800d22a0     kernel32:KERNEL32.dll
 0002:000002a8       __imp_GetCurrentProcessId  00000001800d22a8     kernel32:KERNEL32.dll
 0002:000002b0       __imp_RtlUnwindEx          00000001800d22b0     kernel32:KERNEL32.dll
 0002:000002b8       __imp_InterlockedFlushSList 00000001800d22b8     kernel32:KERNEL32.dll
 0002:000002c0       __imp_TlsAlloc             00000001800d22c0     kernel32:KERNEL32.dll
 0002:000002c8       __imp_TlsGetValue          00000001800d22c8     kernel32:KERNEL32.dll
 0002:000002d0       __imp_TlsSetValue          00000001800d22d0     kernel32:KERNEL32.dll
 0002:000002d8       __imp_TlsFree              00000001800d22d8     kernel32:KERNEL32.dll
 0002:000002e0       __imp_ExitProcess          00000001800d22e0     kernel32:KERNEL32.dll
 0002:000002e8       __imp_GetModuleHandleExW   00000001800d22e8     kernel32:KERNEL32.dll
 0002:000002f0       __imp_GetModuleFileNameW   00000001800d22f0     kernel32:KERNEL32.dll
 0002:000002f8       __imp_GetFileSizeEx        00000001800d22f8     kernel32:KERNEL32.dll
 0002:00000300       __imp_GetStdHandle         00000001800d2300     kernel32:KERNEL32.dll
 0002:00000308       __imp_GetFileType          00000001800d2308     kernel32:KERNEL32.dll
 0002:00000310       __imp_HeapAlloc            00000001800d2310     kernel32:KERNEL32.dll
 0002:00000318       __imp_HeapFree             00000001800d2318     kernel32:KERNEL32.dll
 0002:00000320       __imp_GetDateFormatW       00000001800d2320     kernel32:KERNEL32.dll
 0002:00000328       __imp_GetTimeFormatW       00000001800d2328     kernel32:KERNEL32.dll
 0002:00000330       __imp_CompareStringW       00000001800d2330     kernel32:KERNEL32.dll
 0002:00000338       __imp_LCMapStringW         00000001800d2338     kernel32:KERNEL32.dll
 0002:00000340       __imp_GetLocaleInfoW       00000001800d2340     kernel32:KERNEL32.dll
 0002:00000348       __imp_IsValidLocale        00000001800d2348     kernel32:KERNEL32.dll
 0002:00000350       __imp_GetUserDefaultLCID   00000001800d2350     kernel32:KERNEL32.dll
 0002:00000358       __imp_RtlUnwind            00000001800d2358     kernel32:KERNEL32.dll
 0002:00000360       \177KERNEL32_NULL_THUNK_DATA 00000001800d2360     kernel32:KERNEL32.dll
 0002:00000368       __imp_SHGetKnownFolderPath 00000001800d2368     shell32:SHELL32.dll
 0002:00000370       \177SHELL32_NULL_THUNK_DATA 00000001800d2370     shell32:SHELL32.dll
 0002:00000378       __imp_GetAsyncKeyState     00000001800d2378     user32:USER32.dll
 0002:00000380       __imp_GetWindowTextA       00000001800d2380     user32:USER32.dll
 0002:00000388       __imp_GetCursorPos         00000001800d2388     user32:USER32.dll
 0002:00000390       __imp_GetForegroundWindow  00000001800d2390     user32:USER32.dll
 0002:00000398       \177USER32_NULL_THUNK_DATA 00000001800d2398     user32:USER32.dll
 0002:000003a0       __imp_D2D1CreateFactory    00000001800d23a0     d2d1:d2d1.dll
 0002:000003a8       \177d2d1_NULL_THUNK_DATA   00000001800d23a8     d2d1:d2d1.dll
 0002:000003b0       __imp_RtlLookupFunctionEntry 00000001800d23b0     ntdll:ntdll.dll
 0002:000003b8       __imp_RtlVirtualUnwind     00000001800d23b8     ntdll:ntdll.dll
 0002:000003c0       __imp_RtlCaptureContext    00000001800d23c0     ntdll:ntdll.dll
 0002:000003c8       __imp_RtlPcToFileHeader    00000001800d23c8     ntdll:ntdll.dll
 0002:000003d0       \177ntdll_NULL_THUNK_DATA  00000001800d23d0     ntdll:ntdll.dll
 0002:000003d8       __guard_check_icall_fptr   00000001800d23d8     LIBCMT:guard_support.obj
 0002:000003e0       __guard_xfg_check_icall_fptr 00000001800d23e0     LIBCMT:guard_support.obj
 0002:000003e8       __guard_dispatch_icall_fptr 00000001800d23e8     LIBCMT:guard_support.obj
 0002:000003f0       __guard_xfg_dispatch_icall_fptr 00000001800d23f0     LIBCMT:guard_support.obj
 0002:000003f8       __guard_xfg_table_dispatch_icall_fptr 00000001800d23f8     LIBCMT:guard_support.obj
 0002:00000400       __xc_a                     00000001800d2400     LIBCMT:initializers.obj
 0002:000005e8       __xc_z                     00000001800d25e8     LIBCMT:initializers.obj
 0002:000005f0       __xi_a                     00000001800d25f0     LIBCMT:initializers.obj
 0002:00000608       __acrt_stdio_initializer   00000001800d2608     libucrt:stdio_initializer.obj
 0002:00000610       __acrt_clock_initializer   00000001800d2610     libucrt:clock_initializer.obj
 0002:00000618       __acrt_tran_fma3_initializer 00000001800d2618     libucrt:fma3_initializer.obj
 0002:00000620       __acrt_timeset_initializer 00000001800d2620     libucrt:timeset_initializer.obj
 0002:00000628       __acrt_multibyte_initializer 00000001800d2628     libucrt:multibyte_initializer.obj
 0002:00000630       __acrt_fmode_initializer   00000001800d2630     libucrt:fmode_initializer.obj
 0002:00000638       __xi_z                     00000001800d2638     LIBCMT:initializers.obj
 0002:00000640       __xl_a                     00000001800d2640     LIBCMT:tlssup.obj
 0002:00000648       __xl_z                     00000001800d2648     LIBCMT:tlssup.obj
 0002:00000650       __xp_a                     00000001800d2650     LIBCMT:initializers.obj
 0002:00000658       __acrt_locale_terminator   00000001800d2658     libucrt:locale_initializer.obj
 0002:00000660       __dcrt_console_output_terminator 00000001800d2660     libucrt:console_output_initializer.obj
 0002:00000668       __acrt_stdio_terminator    00000001800d2668     libucrt:stdio_initializer.obj
 0002:00000670       __xp_z                     00000001800d2670     LIBCMT:initializers.obj
 0002:00000678       __xt_a                     00000001800d2678     LIBCMT:initializers.obj
 0002:00000680       __xt_z                     00000001800d2680     LIBCMT:initializers.obj
 0002:00000768       DETOUR_EXE_RESTORE_GUID    00000001800d2768     detours:modules.obj
 0002:00000788       ??_7NullNameValuePairs@CryptoPP@@6B@ 00000001800d2788     cryptlib:cryptlib.obj
 0002:00000798       ??_C@_03BIFOHCEN@AAD@      00000001800d2798     cryptlib:cryptlib.obj
 0002:000007a8       ??_7NameValuePairs@CryptoPP@@6B@ 00000001800d27a8     cryptlib:cryptlib.obj
 0002:000007c0       ??_7exception@std@@6B@     00000001800d27c0     cryptlib:cryptlib.obj
 0002:000007d8       ??_7bad_alloc@std@@6B@     00000001800d27d8     cryptlib:cryptlib.obj
 0002:000007f0       ??_7bad_array_new_length@std@@6B@ 00000001800d27f0     cryptlib:cryptlib.obj
 0002:00000808       ??_7Exception@CryptoPP@@6B@ 00000001800d2808     cryptlib:cryptlib.obj
 0002:00000820       ??_7InvalidArgument@CryptoPP@@6B@ 00000001800d2820     cryptlib:cryptlib.obj
 0002:00000838       ??_7NotImplemented@CryptoPP@@6B@ 00000001800d2838     cryptlib:cryptlib.obj
 0002:00000850       ??_7NoChannelSupport@BufferedTransformation@CryptoPP@@6B@ 00000001800d2850     cryptlib:cryptlib.obj
 0002:00000860       ??_C@_0DA@MBHFBJDK@?3?5this?5object?5doesn?8t?5support?5m@ 00000001800d2860     cryptlib:cryptlib.obj
 0002:00000898       ??_7BitBucket@CryptoPP@@6BAlgorithm@1@@ 00000001800d2898     cryptlib:cryptlib.obj
 0002:00000a08       ??_7BitBucket@CryptoPP@@6BWaitable@1@@ 00000001800d2a08     cryptlib:cryptlib.obj
 0002:00000a20       ??_C@_09OBGBNIAF@BitBucket@ 00000001800d2a20     cryptlib:cryptlib.obj
 0002:00000a38       ??_7ArraySink@CryptoPP@@6BAlgorithm@1@@ 00000001800d2a38     cryptlib:cryptlib.obj
 0002:00000ba8       ??_7ArraySink@CryptoPP@@6BWaitable@1@@ 00000001800d2ba8     cryptlib:cryptlib.obj
 0002:00000bc8       ??_7SelfTestFailure@CryptoPP@@6B@ 00000001800d2bc8     cryptlib:cryptlib.obj
 0002:00000be0       ??_C@_0FE@HFGECFBC@Cryptographic?5algorithms?5are?5di@ 00000001800d2be0     cryptlib:cryptlib.obj
 0002:00000c40       ??_C@_0EJ@ELGPILLH@Cryptographic?5algorithms?5are?5di@ 00000001800d2c40     cryptlib:cryptlib.obj
 0002:00001550       ?SHA256_K@CryptoPP@@3QBIB  00000001800d3550     cryptlib:sha.obj
 0002:00001650       ?SHA512_K@CryptoPP@@3QB_KB 00000001800d3650     cryptlib:sha.obj
 0002:000018d8       ??_C@_0N@CPFCHGLB@OutputBuffer@ 00000001800d38d8     cryptlib:filters.obj
 0002:000018e8       ??_C@_0CJ@LGDHCBMP@ArraySink?3?5missing?5OutputBuffer@ 00000001800d38e8     cryptlib:filters.obj
 0002:00001d60       ??_C@_0P@GHFPNOJB@bad?5allocation@ 00000001800d3d60     cryptlib:allocate.obj
 0002:00001db0       ??_7bad_cast@std@@6B@      00000001800d3db0     cryptlib:integer.obj
 0002:00001dc8       ??_7runtime_error@std@@6B@ 00000001800d3dc8     cryptlib:integer.obj
 0002:00001de0       ??_7_System_error@std@@6B@ 00000001800d3de0     cryptlib:integer.obj
 0002:00001df8       ??_7system_error@std@@6B@  00000001800d3df8     cryptlib:integer.obj
 0002:00001e10       ??_7_Iostream_error_category2@std@@6B@ 00000001800d3e10     cryptlib:integer.obj
 0002:00001e48       ??_7BERDecodeErr@CryptoPP@@6B@ 00000001800d3e48     cryptlib:integer.obj
 0002:00001e58       ??_C@_0BB@IFPBGMCB@BER?5decode?5error@ 00000001800d3e58     cryptlib:integer.obj
 0002:00001e78       ??_7InputRejected@?$InputRejecting@VBufferedTransformation@CryptoPP@@@CryptoPP@@6B@ 00000001800d3e78     cryptlib:integer.obj
 0002:00001e90       ??_7Integer@CryptoPP@@6B@  00000001800d3e90     cryptlib:integer.obj
 0002:00001eb8       ??_7_Facet_base@std@@6B@   00000001800d3eb8     cryptlib:integer.obj
 0002:00001ed8       ??_7?$ctype@D@std@@6B@     00000001800d3ed8     cryptlib:integer.obj
 0002:00001f38       ??_7failure@ios_base@std@@6B@ 00000001800d3f38     cryptlib:integer.obj
 0002:00001f48       ??_C@_0CD@BAANGAME@Integer?3?5input?5length?5is?5too?5sm@ 00000001800d3f48     cryptlib:integer.obj
 0002:00001f70       __xmm@00000000000000021fffffffffffffff 00000001800d3f70     cryptlib:integer.obj
 0002:00001f80       __xmm@ffffffffffffffffffffffffffffffff 00000001800d3f80     cryptlib:integer.obj
 0002:00001fa0       ??_7Walker@ByteQueue@CryptoPP@@6BAlgorithm@2@@ 00000001800d3fa0     cryptlib:queue.obj
 0002:00002110       ??_7Walker@ByteQueue@CryptoPP@@6BWaitable@2@@ 00000001800d4110     cryptlib:queue.obj
 0002:00002130       ??_7ByteQueue@CryptoPP@@6BAlgorithm@1@@ 00000001800d4130     cryptlib:queue.obj
 0002:000022a0       ??_7ByteQueue@CryptoPP@@6BWaitable@1@@ 00000001800d42a0     cryptlib:queue.obj
 0002:000022b8       ??_C@_08FJNMAIDK@NodeSize@ 00000001800d42b8     cryptlib:queue.obj
 0002:000022e0       ?SHA_SIMD_FNAME@@3QBDB     00000001800d42e0     cryptlib:sha_simd.obj
 0002:00002340       ?RIJNDAEL_SIMD_FNAME@@3QBDB 00000001800d4340     cryptlib:rijndael_simd.obj
 0002:000023e0       ?Se@Base@Rijndael@CryptoPP@@1QBEB 00000001800d43e0     cryptlib:rdtables.obj
 0002:000024e0       ?Sd@Base@Rijndael@CryptoPP@@1QBEB 00000001800d44e0     cryptlib:rdtables.obj
 0002:000025e0       ?rcon@Base@Rijndael@CryptoPP@@1QBIB 00000001800d45e0     cryptlib:rdtables.obj
 0002:00002618       ??_7ECPPoint@CryptoPP@@6B@ 00000001800d4618     cryptlib:dll.obj
 0002:00002628       ??_7EC2NPoint@CryptoPP@@6B@ 00000001800d4628     cryptlib:dll.obj
 0002:00002638       __real@3ff0000000000000    00000001800d4638     cryptlib:nbtheory.obj
 0002:00002640       __real@4000000000000000    00000001800d4640     cryptlib:nbtheory.obj
 0002:00002658       ??_7BERGeneralDecoder@CryptoPP@@6BAlgorithm@1@@ 00000001800d4658     cryptlib:asn.obj
 0002:000027d0       ??_7BERGeneralDecoder@CryptoPP@@6BWaitable@1@@ 00000001800d47d0     cryptlib:asn.obj
 0002:000027f0       ??_7DERGeneralEncoder@CryptoPP@@6BAlgorithm@1@@ 00000001800d47f0     cryptlib:asn.obj
 0002:00002960       ??_7DERGeneralEncoder@CryptoPP@@6BWaitable@1@@ 00000001800d4960     cryptlib:asn.obj
 0002:00002980       ??_7ios_base@std@@6B@      00000001800d4980     cryptlib:asn.obj
 0002:00002990       ??_7?$basic_ios@DU?$char_traits@D@std@@@std@@6B@ 00000001800d4990     cryptlib:asn.obj
 0002:000029a0       ??_7?$basic_ostream@DU?$char_traits@D@std@@@std@@6B@ 00000001800d49a0     cryptlib:asn.obj
 0002:000029b0       ??_7?$basic_streambuf@DU?$char_traits@D@std@@@std@@6B@ 00000001800d49b0     cryptlib:asn.obj
 0002:00002a30       ??_7?$num_put@DV?$ostreambuf_iterator@DU?$char_traits@D@std@@@std@@@std@@6B@ 00000001800d4a30     cryptlib:asn.obj
 0002:00002a88       ??_C@_02BBAHNLBA@?$CFp@    00000001800d4a88     cryptlib:asn.obj
 0002:00002a98       ??_7?$numpunct@D@std@@6B@  00000001800d4a98     cryptlib:asn.obj
 0002:00002ad8       ??_C@_02MDKMJEGG@eE@       00000001800d4ad8     cryptlib:asn.obj
 0002:00002adc       ??_C@_02OOPEBDOJ@pP@       00000001800d4adc     cryptlib:asn.obj
 0002:00002ae0       __real@4202a05f20000000    00000001800d4ae0     cryptlib:asn.obj
 0002:00002af0       __xmm@7fffffffffffffff7fffffffffffffff 00000001800d4af0     cryptlib:asn.obj
 0002:00002b10       ?SSE_SIMD_FNAME@@3QBDB     00000001800d4b10     cryptlib:sse_simd.obj
 0002:00002b6c       ?m@LC_RNG@CryptoPP@@0IB    00000001800d4b6c     cryptlib:rng.obj
 0002:00002b70       ?q@LC_RNG@CryptoPP@@0IB    00000001800d4b70     cryptlib:rng.obj
 0002:00002b74       ?a@LC_RNG@CryptoPP@@0GB    00000001800d4b74     cryptlib:rng.obj
 0002:00002b78       ?r@LC_RNG@CryptoPP@@0GB    00000001800d4b78     cryptlib:rng.obj
 0002:00002b90       ?GF2N_SIMD_FNAME@@3QBDB    00000001800d4b90     cryptlib:gf2n_simd.obj
 0002:00002be8       FOLDERID_RoamingAppData    00000001800d4be8     shell32:shguid.obj
 0002:00002c00       ??_7bad_function_call@std@@6B@ 00000001800d4c00     libcpmt:xthrow.obj
 0002:00002c10       ??_C@_0BC@DPJNKNAF@bad?5function?5call@ 00000001800d4c10     libcpmt:xthrow.obj
 0002:00002c30       ??_7logic_error@std@@6B@   00000001800d4c30     libcpmt:xthrow.obj
 0002:00002c48       ??_7length_error@std@@6B@  00000001800d4c48     libcpmt:xthrow.obj
 0002:00002c60       ??_7out_of_range@std@@6B@  00000001800d4c60     libcpmt:xthrow.obj
 0002:00002d78       ??_7?$basic_filebuf@DU?$char_traits@D@std@@@std@@6B@ 00000001800d4d78     libcpmt:cout.obj
 0002:00002df8       ??_7?$codecvt@DDU_Mbstatet@@@std@@6B@ 00000001800d4df8     libcpmt:cout.obj
 0002:00002e50       ??_7?$num_get@DV?$istreambuf_iterator@DU?$char_traits@D@std@@@std@@@std@@6B@ 00000001800d4e50     libcpmt:locale.obj
 0002:00002ec0       ?_Src@?1??_Getffld@?$num_get@DV?$istreambuf_iterator@DU?$char_traits@D@std@@@std@@@std@@AEBAHPEADAEAV?$istreambuf_iterator@DU?$char_traits@D@std@@@3@1AEAVios_base@3@PEAH@Z@4QBDB 00000001800d4ec0     libcpmt:locale.obj
 0002:00002ed0       ?_Src@?1??_Getifld@?$num_get@DV?$istreambuf_iterator@DU?$char_traits@D@std@@@std@@@std@@AEBAHPEADAEAV?$istreambuf_iterator@DU?$char_traits@D@std@@@3@1HAEBVlocale@3@@Z@4QBDB 00000001800d4ed0     libcpmt:locale.obj
 0002:00002ef0       ?_Src@?1??_Getffldx@?$num_get@DV?$istreambuf_iterator@DU?$char_traits@D@std@@@std@@@std@@AEBAHPEADAEAV?$istreambuf_iterator@DU?$char_traits@D@std@@@3@1AEAVios_base@3@PEAH@Z@4QBDB 00000001800d4ef0     libcpmt:locale.obj
 0002:00002f18       ??_7_Locimp@locale@std@@6B@ 00000001800d4f18     libcpmt:locale0.obj
 0002:00002f30       ?_BADOFF@std@@3_JB         00000001800d4f30     libcpmt:ios.obj
 0002:000036a0       ??_C@_0BN@LKKBCCDB@address?5family?5not?5supported@ 00000001800d56a0     libcpmt:syserror.obj
 0002:000036c0       ??_C@_0P@LDMLAFHI@address?5in?5use@ 00000001800d56c0     libcpmt:syserror.obj
 0002:000036d0       ??_C@_0BG@DHPCNBJB@address?5not?5available@ 00000001800d56d0     libcpmt:syserror.obj
 0002:000036e8       ??_C@_0BC@DFIBIBIL@already?5connected@ 00000001800d56e8     libcpmt:syserror.obj
 0002:00003700       ??_C@_0BH@CAKOHOMI@argument?5list?5too?5long@ 00000001800d5700     libcpmt:syserror.obj
 0002:00003718       ??_C@_0BH@CGIMPKIM@argument?5out?5of?5domain@ 00000001800d5718     libcpmt:syserror.obj
 0002:00003730       ??_C@_0M@KGHGGJGL@bad?5address@ 00000001800d5730     libcpmt:syserror.obj
 0002:00003740       ??_C@_0BE@MPJPGCEO@bad?5file?5descriptor@ 00000001800d5740     libcpmt:syserror.obj
 0002:00003758       ??_C@_0M@PMMIEFCP@bad?5message@ 00000001800d5758     libcpmt:syserror.obj
 0002:00003768       ??_C@_0M@KPHOFDBE@broken?5pipe@ 00000001800d5768     libcpmt:syserror.obj
 0002:00003778       ??_C@_0BD@MGNDDEGM@connection?5aborted@ 00000001800d5778     libcpmt:syserror.obj
 0002:00003790       ??_C@_0BP@KAIHPOGN@connection?5already?5in?5progress@ 00000001800d5790     libcpmt:syserror.obj
 0002:000037b0       ??_C@_0BD@PJLIIJEL@connection?5refused@ 00000001800d57b0     libcpmt:syserror.obj
 0002:000037c8       ??_C@_0BB@IECNJNOI@connection?5reset@ 00000001800d57c8     libcpmt:syserror.obj
 0002:000037e0       ??_C@_0BC@PPHBOELF@cross?5device?5link@ 00000001800d57e0     libcpmt:syserror.obj
 0002:000037f8       ??_C@_0BN@KDMIFEIP@destination?5address?5required@ 00000001800d57f8     libcpmt:syserror.obj
 0002:00003818       ??_C@_0BI@NGCEHDD@device?5or?5resource?5busy@ 00000001800d5818     libcpmt:syserror.obj
 0002:00003830       ??_C@_0BE@JIDOCPHM@directory?5not?5empty@ 00000001800d5830     libcpmt:syserror.obj
 0002:00003848       ??_C@_0BI@BNCLIGPB@executable?5format?5error@ 00000001800d5848     libcpmt:syserror.obj
 0002:00003860       ??_C@_0M@MIDIAGJP@file?5exists@ 00000001800d5860     libcpmt:syserror.obj
 0002:00003870       ??_C@_0P@DNAJLBJK@file?5too?5large@ 00000001800d5870     libcpmt:syserror.obj
 0002:00003880       ??_C@_0BC@EJHOMAAK@filename?5too?5long@ 00000001800d5880     libcpmt:syserror.obj
 0002:00003898       ??_C@_0BH@KEFGLDAF@function?5not?5supported@ 00000001800d5898     libcpmt:syserror.obj
 0002:000038b0       ??_C@_0BB@DHFDFGDM@host?5unreachable@ 00000001800d58b0     libcpmt:syserror.obj
 0002:000038c8       ??_C@_0BD@JPHBMONG@identifier?5removed@ 00000001800d58c8     libcpmt:syserror.obj
 0002:000038e0       ??_C@_0BG@CDNPAGJK@illegal?5byte?5sequence@ 00000001800d58e0     libcpmt:syserror.obj
 0002:000038f8       ??_C@_0CD@BNPLBMNA@inappropriate?5io?5control?5operat@ 00000001800d58f8     libcpmt:syserror.obj
 0002:00003920       ??_C@_0M@EGEKIIMP@interrupted@ 00000001800d5920     libcpmt:syserror.obj
 0002:00003930       ??_C@_0BB@FCMFBGOM@invalid?5argument@ 00000001800d5930     libcpmt:syserror.obj
 0002:00003948       ??_C@_0N@OHAFKDEK@invalid?5seek@ 00000001800d5948     libcpmt:syserror.obj
 0002:00003958       ??_C@_08GLNPIFBN@io?5error@ 00000001800d5958     libcpmt:syserror.obj
 0002:00003968       ??_C@_0P@FLLDBIDK@is?5a?5directory@ 00000001800d5968     libcpmt:syserror.obj
 0002:00003978       ??_C@_0N@IFLPBIOP@message?5size@ 00000001800d5978     libcpmt:syserror.obj
 0002:00003988       ??_C@_0N@KIIEAAIO@network?5down@ 00000001800d5988     libcpmt:syserror.obj
 0002:00003998       ??_C@_0O@FNPDBHEE@network?5reset@ 00000001800d5998     libcpmt:syserror.obj
 0002:000039a8       ??_C@_0BE@IFNCKGE@network?5unreachable@ 00000001800d59a8     libcpmt:syserror.obj
 0002:000039c0       ??_C@_0BA@PFFCAOFK@no?5buffer?5space@ 00000001800d59c0     libcpmt:syserror.obj
 0002:000039d0       ??_C@_0BB@IEPBLJHK@no?5child?5process@ 00000001800d59d0     libcpmt:syserror.obj
 0002:000039e8       ??_C@_07PLECNNKG@no?5link@ 00000001800d59e8     libcpmt:syserror.obj
 0002:000039f0       ??_C@_0BC@NJECKMKE@no?5lock?5available@ 00000001800d59f0     libcpmt:syserror.obj
 0002:00003a08       ??_C@_0BF@PBGGPKKE@no?5message?5available@ 00000001800d5a08     libcpmt:syserror.obj
 0002:00003a20       ??_C@_0L@EDOLMPAK@no?5message@ 00000001800d5a20     libcpmt:syserror.obj
 0002:00003a30       ??_C@_0BD@EAMBFIDF@no?5protocol?5option@ 00000001800d5a30     libcpmt:syserror.obj
 0002:00003a48       ??_C@_0BD@IJDJKDEA@no?5space?5on?5device@ 00000001800d5a48     libcpmt:syserror.obj
 0002:00003a60       ??_C@_0BE@MKFDAFMP@no?5stream?5resources@ 00000001800d5a60     libcpmt:syserror.obj
 0002:00003a78       ??_C@_0BK@IMCPHCBI@no?5such?5device?5or?5address@ 00000001800d5a78     libcpmt:syserror.obj
 0002:00003a98       ??_C@_0P@FDINDDOK@no?5such?5device@ 00000001800d5a98     libcpmt:syserror.obj
 0002:00003aa8       ??_C@_0BK@NDOCBPGE@no?5such?5file?5or?5directory@ 00000001800d5aa8     libcpmt:syserror.obj
 0002:00003ac8       ??_C@_0BA@ENLPPKBN@no?5such?5process@ 00000001800d5ac8     libcpmt:syserror.obj
 0002:00003ad8       ??_C@_0BA@DOCPFFJG@not?5a?5directory@ 00000001800d5ad8     libcpmt:syserror.obj
 0002:00003ae8       ??_C@_0N@POEIPGGF@not?5a?5socket@ 00000001800d5ae8     libcpmt:syserror.obj
 0002:00003af8       ??_C@_0N@LGAPMMPI@not?5a?5stream@ 00000001800d5af8     libcpmt:syserror.obj
 0002:00003b08       ??_C@_0O@GLMIBBEG@not?5connected@ 00000001800d5b08     libcpmt:syserror.obj
 0002:00003b18       ??_C@_0BC@ENOOLCNF@not?5enough?5memory@ 00000001800d5b18     libcpmt:syserror.obj
 0002:00003b30       ??_C@_0O@NHEDABJP@not?5supported@ 00000001800d5b30     libcpmt:syserror.obj
 0002:00003b40       ??_C@_0BD@MOLBPMEA@operation?5canceled@ 00000001800d5b40     libcpmt:syserror.obj
 0002:00003b58       ??_C@_0BG@KDKHOPCO@operation?5in?5progress@ 00000001800d5b58     libcpmt:syserror.obj
 0002:00003b70       ??_C@_0BI@OHIEJAAB@operation?5not?5permitted@ 00000001800d5b70     libcpmt:syserror.obj
 0002:00003b88       ??_C@_0BI@LNEGIFLN@operation?5not?5supported@ 00000001800d5b88     libcpmt:syserror.obj
 0002:00003ba0       ??_C@_0BG@OEMDKMEE@operation?5would?5block@ 00000001800d5ba0     libcpmt:syserror.obj
 0002:00003bb8       ??_C@_0L@BLPOFLNJ@owner?5dead@ 00000001800d5bb8     libcpmt:syserror.obj
 0002:00003bc8       ??_C@_0BC@CIJDGCDI@permission?5denied@ 00000001800d5bc8     libcpmt:syserror.obj
 0002:00003be0       ??_C@_0P@FNPOCJBE@protocol?5error@ 00000001800d5be0     libcpmt:syserror.obj
 0002:00003bf0       ??_C@_0BH@JPPPLHJB@protocol?5not?5supported@ 00000001800d5bf0     libcpmt:syserror.obj
 0002:00003c08       ??_C@_0BG@EICBIHDP@read?5only?5file?5system@ 00000001800d5c08     libcpmt:syserror.obj
 0002:00003c20       ??_C@_0BO@BJBOMOEJ@resource?5deadlock?5would?5occur@ 00000001800d5c20     libcpmt:syserror.obj
 0002:00003c40       ??_C@_0BP@LKNGHENJ@resource?5unavailable?5try?5again@ 00000001800d5c40     libcpmt:syserror.obj
 0002:00003c60       ??_C@_0BE@GOIPJJHG@result?5out?5of?5range@ 00000001800d5c60     libcpmt:syserror.obj
 0002:00003c78       ??_C@_0BG@MPLKFPAE@state?5not?5recoverable@ 00000001800d5c78     libcpmt:syserror.obj
 0002:00003c90       ??_C@_0P@DIIFGFCG@stream?5timeout@ 00000001800d5c90     libcpmt:syserror.obj
 0002:00003ca0       ??_C@_0P@IPFDMIFL@text?5file?5busy@ 00000001800d5ca0     libcpmt:syserror.obj
 0002:00003cb0       ??_C@_09KJPPMAOI@timed?5out@ 00000001800d5cb0     libcpmt:syserror.obj
 0002:00003cc0       ??_C@_0BO@HACHBEKI@too?5many?5files?5open?5in?5system@ 00000001800d5cc0     libcpmt:syserror.obj
 0002:00003ce0       ??_C@_0BE@GHAFMPAH@too?5many?5files?5open@ 00000001800d5ce0     libcpmt:syserror.obj
 0002:00003cf8       ??_C@_0P@HCOMKFCC@too?5many?5links@ 00000001800d5cf8     libcpmt:syserror.obj
 0002:00003d08       ??_C@_0BO@EFGOJEF@too?5many?5symbolic?5link?5levels@ 00000001800d5d08     libcpmt:syserror.obj
 0002:00003d28       ??_C@_0BA@KGKGOOJA@value?5too?5large@ 00000001800d5d28     libcpmt:syserror.obj
 0002:00003d38       ??_C@_0BE@MIEJDDNH@wrong?5protocol?5type@ 00000001800d5d38     libcpmt:syserror.obj
 0002:00003d50       ??_C@_0O@BFJCFAAK@unknown?5error@ 00000001800d5d50     libcpmt:syserror.obj
 0002:00003dd8       ??_C@_02JDPG@rb@           00000001800d5dd8     libcpmt:fiopen.obj
 0002:00003ddc       ??_C@_02GMLFBBN@wb@        00000001800d5ddc     libcpmt:fiopen.obj
 0002:00003de0       ??_C@_02BOGAIONP@ab@       00000001800d5de0     libcpmt:fiopen.obj
 0002:00003de4       ??_C@_02CBLLGHLK@r?$CL@    00000001800d5de4     libcpmt:fiopen.obj
 0002:00003de8       ??_C@_02CHHAKFFB@w?$CL@    00000001800d5de8     libcpmt:fiopen.obj
 0002:00003dec       ??_C@_02DPNLHKJD@a?$CL@    00000001800d5dec     libcpmt:fiopen.obj
 0002:00003df0       ??_C@_03HMFOOINA@r?$CLb@   00000001800d5df0     libcpmt:fiopen.obj
 0002:00003df4       ??_C@_03ELIABIOC@w?$CLb@   00000001800d5df4     libcpmt:fiopen.obj
 0002:00003df8       ??_C@_03DOPCBAKB@a?$CLb@   00000001800d5df8     libcpmt:fiopen.obj
 0002:00003e00       ??_C@_0BM@EEBBMCOD@invalid?5random_device?5value@ 00000001800d5e00     libcpmt:xrngdev.obj
 0002:00003e28       ??_7bad_exception@std@@6B@ 00000001800d5e28     libcpmt:excptptr.obj
 0002:00003e38       ??_C@_0O@DPKOEFFH@bad?5exception@ 00000001800d5e38     libcpmt:excptptr.obj
 0002:00003f20       ??_7_Generic_error_category@std@@6B@ 00000001800d5f20     libcpmt:thread0.obj
 0002:00003f50       ??_C@_0FG@EOHGAEB@?3Sun?3Sunday?3Mon?3Monday?3Tue?3Tues@ 00000001800d5f50     libcpmt:wlocale.obj
 0002:00003fb0       ??_C@_0IH@HPGJLCCK@?3Jan?3January?3Feb?3February?3Mar?3M@ 00000001800d5fb0     libcpmt:wlocale.obj
 0002:00004040       ??_C@_1KM@LPDIELBN@?$AA?3?$AAS?$AAu?$AAn?$AA?3?$AAS?$AAu?$AAn?$AAd?$AAa?$AAy?$AA?3?$AAM?$AAo?$AAn@ 00000001800d6040     libcpmt:wlocale.obj
 0002:000040f0       ??_C@_1BAO@JIKOGLKA@?$AA?3?$AAJ?$AAa?$AAn?$AA?3?$AAJ?$AAa?$AAn?$AAu?$AAa?$AAr?$AAy?$AA?3?$AAF?$AAe@ 00000001800d60f0     libcpmt:wlocale.obj
 0002:00004208       ??_7?$codecvt@_WDU_Mbstatet@@@std@@6B@ 00000001800d6208     libcpmt:wlocale.obj
 0002:00004260       ??_7?$codecvt@GDU_Mbstatet@@@std@@6B@ 00000001800d6260     libcpmt:wlocale.obj
 0002:000042b8       ??_7?$ctype@_W@std@@6B@    00000001800d62b8     libcpmt:wlocale.obj
 0002:00004338       ??_7?$ctype@G@std@@6B@     00000001800d6338     libcpmt:wlocale.obj
 0002:000043b8       ??_7?$time_put@_WV?$ostreambuf_iterator@_WU?$char_traits@_W@std@@@std@@@std@@6B@ 00000001800d63b8     libcpmt:wlocale.obj
 0002:000043e0       ??_7?$num_get@_WV?$istreambuf_iterator@_WU?$char_traits@_W@std@@@std@@@std@@6B@ 00000001800d63e0     libcpmt:wlocale.obj
 0002:00004458       ??_7?$num_put@_WV?$ostreambuf_iterator@_WU?$char_traits@_W@std@@@std@@@std@@6B@ 00000001800d6458     libcpmt:wlocale.obj
 0002:000044b8       ??_7?$numpunct@_W@std@@6B@ 00000001800d64b8     libcpmt:wlocale.obj
 0002:00004500       ??_7?$collate@_W@std@@6B@  00000001800d6500     libcpmt:wlocale.obj
 0002:00004538       ??_7?$messages@_W@std@@6B@ 00000001800d6538     libcpmt:wlocale.obj
 0002:00004570       ??_7?$money_get@_WV?$istreambuf_iterator@_WU?$char_traits@_W@std@@@std@@@std@@6B@ 00000001800d6570     libcpmt:wlocale.obj
 0002:000045a0       ??_7?$money_put@_WV?$ostreambuf_iterator@_WU?$char_traits@_W@std@@@std@@@std@@6B@ 00000001800d65a0     libcpmt:wlocale.obj
 0002:000045d0       ??_7?$_Mpunct@_W@std@@6B@  00000001800d65d0     libcpmt:wlocale.obj
 0002:00004638       ??_7?$moneypunct@_W$0A@@std@@6B@ 00000001800d6638     libcpmt:wlocale.obj
 0002:000046a0       ??_7?$moneypunct@_W$00@std@@6B@ 00000001800d66a0     libcpmt:wlocale.obj
 0002:00004708       ??_7?$time_get@_WV?$istreambuf_iterator@_WU?$char_traits@_W@std@@@std@@@std@@6B@ 00000001800d6708     libcpmt:wlocale.obj
 0002:00004760       ??_7?$num_get@GV?$istreambuf_iterator@GU?$char_traits@G@std@@@std@@@std@@6B@ 00000001800d6760     libcpmt:wlocale.obj
 0002:000047d8       ??_7?$num_put@GV?$ostreambuf_iterator@GU?$char_traits@G@std@@@std@@@std@@6B@ 00000001800d67d8     libcpmt:wlocale.obj
 0002:00004838       ??_7?$numpunct@G@std@@6B@  00000001800d6838     libcpmt:wlocale.obj
 0002:00004880       ??_7?$collate@G@std@@6B@   00000001800d6880     libcpmt:wlocale.obj
 0002:000048b8       ??_7?$messages@G@std@@6B@  00000001800d68b8     libcpmt:wlocale.obj
 0002:000048f0       ??_7?$money_get@GV?$istreambuf_iterator@GU?$char_traits@G@std@@@std@@@std@@6B@ 00000001800d68f0     libcpmt:wlocale.obj
 0002:00004920       ??_7?$money_put@GV?$ostreambuf_iterator@GU?$char_traits@G@std@@@std@@@std@@6B@ 00000001800d6920     libcpmt:wlocale.obj
 0002:00004950       ??_7?$_Mpunct@G@std@@6B@   00000001800d6950     libcpmt:wlocale.obj
